<?xml version="1.0" encoding="utf-8"?>
<?xml-stylesheet type="text/xsl" href="pdml2html.xsl"?>
<!-- You can find pdml2html.xsl in /Applications/Wireshark.app/Contents/Resources/share/wireshark or at https://code.wireshark.org/review/gitweb?p=wireshark.git;a=blob_plain;f=pdml2html.xsl. -->
<pdml version="0" creator="wireshark/3.0.1" time="Thu May 16 17:27:06 2019" capture_file="ip6-frag-9-10.pcap">
<packet>
  <proto name="geninfo" pos="0" showname="General information" size="622">
    <field name="num" pos="0" show="1" showname="Number" value="1" size="622"/>
    <field name="len" pos="0" show="622" showname="Frame Length" value="26e" size="622"/>
    <field name="caplen" pos="0" show="622" showname="Captured Length" value="26e" size="622"/>
    <field name="timestamp" pos="0" show="Nov 20, 2018 21:49:46.203609000 CET" showname="Captured Time" value="1542746986.203609000" size="622"/>
  </proto>
  <proto name="frame" showname="Frame 1: 622 bytes on wire (4976 bits), 622 bytes captured (4976 bits)" size="622" pos="0">
    <field name="filtered" value="frame" />
  </proto>
  <proto name="eth" showname="Ethernet II, Src: 7e:62:3f:bf:a9:2d, Dst: de:a7:0c:7f:26:32" size="14" pos="0">
    <field name="filtered" value="eth" />
  </proto>
  <proto name="ipv6" showname="Internet Protocol Version 6, Src: 2001:7ab:1::a, Dst: 2001:7ab:2::b" size="40" pos="14">
    <field name="ipv6.version" showname="0110 .... = Version: 6" size="1" pos="14" show="6" value="6" unmaskedvalue="60"/>
    <field name="ip.version" showname="0110 .... = Version: 6 [This field makes the filter match on &quot;ip.version == 6&quot; possible]" hide="yes" size="1" pos="14" show="6" value="6" unmaskedvalue="60"/>
    <field name="ipv6.tclass" showname=".... 0000 0000 .... .... .... .... .... = Traffic Class: 0x00 (DSCP: CS0, ECN: Not-ECT)" size="4" pos="14" show="0x00000000" value="0" unmaskedvalue="6000df04">
      <field name="ipv6.tclass.dscp" showname=".... 0000 00.. .... .... .... .... .... = Differentiated Services Codepoint: Default (0)" size="4" pos="14" show="0" value="0" unmaskedvalue="6000df04"/>
      <field name="ipv6.tclass.ecn" showname=".... .... ..00 .... .... .... .... .... = Explicit Congestion Notification: Not ECN-Capable Transport (0)" size="4" pos="14" show="0" value="0" unmaskedvalue="6000df04"/>
    </field>
    <field name="ipv6.flow" showname=".... .... .... 0000 1101 1111 0000 0100 = Flow Label: 0x0df04" size="4" pos="14" show="0x0000df04" value="DF04" unmaskedvalue="6000df04"/>
    <field name="ipv6.plen" showname="Payload Length: 568" size="2" pos="18" show="568" value="0238"/>
    <field name="ipv6.nxt" showname="Next Header: Fragment Header for IPv6 (44)" size="1" pos="20" show="44" value="2c"/>
    <field name="ipv6.hlim" showname="Hop Limit: 62" size="1" pos="21" show="62" value="3e"/>
    <field name="ipv6.src" showname="Source: 2001:7ab:1::a" size="16" pos="22" show="2001:7ab:1::a" value="200107ab00010000000000000000000a"/>
    <field name="ipv6.addr" showname="Source or Destination Address: 2001:7ab:1::a" hide="yes" size="16" pos="22" show="2001:7ab:1::a" value="200107ab00010000000000000000000a"/>
    <field name="ipv6.src_host" showname="Source Host: 2001:7ab:1::a" hide="yes" size="16" pos="22" show="2001:7ab:1::a" value="200107ab00010000000000000000000a"/>
    <field name="ipv6.host" showname="Source or Destination Host: 2001:7ab:1::a" hide="yes" size="16" pos="22" show="2001:7ab:1::a" value="200107ab00010000000000000000000a"/>
    <field name="ipv6.dst" showname="Destination: 2001:7ab:2::b" size="16" pos="38" show="2001:7ab:2::b" value="200107ab00020000000000000000000b"/>
    <field name="ipv6.addr" showname="Source or Destination Address: 2001:7ab:2::b" hide="yes" size="16" pos="38" show="2001:7ab:2::b" value="200107ab00020000000000000000000b"/>
    <field name="ipv6.dst_host" showname="Destination Host: 2001:7ab:2::b" hide="yes" size="16" pos="38" show="2001:7ab:2::b" value="200107ab00020000000000000000000b"/>
    <field name="ipv6.host" showname="Source or Destination Host: 2001:7ab:2::b" hide="yes" size="16" pos="38" show="2001:7ab:2::b" value="200107ab00020000000000000000000b"/>
    <proto name="ipv6.fraghdr" showname="Fragment Header for IPv6" size="8" pos="54">
      <field name="ipv6.fraghdr.nxt" showname="Next header: ICMPv6 (58)" size="1" pos="54" show="58" value="3a"/>
      <field name="ipv6.fraghdr.reserved_octet" showname="Reserved octet: 0x00" size="1" pos="55" show="0x00000000" value="00"/>
      <field name="ipv6.fraghdr.offset" showname="0000 0101 1010 1... = Offset: 181 (1448 bytes)" size="2" pos="56" show="181" value="B5" unmaskedvalue="05a8"/>
      <field name="ipv6.fraghdr.reserved_bits" showname=".... .... .... .00. = Reserved bits: 0" size="2" pos="56" show="0" value="0" unmaskedvalue="05a8"/>
      <field name="ipv6.fraghdr.more" showname=".... .... .... ...0 = More Fragments: No" size="2" pos="56" show="0" value="0" unmaskedvalue="05a8"/>
      <field name="ipv6.fraghdr.ident" showname="Identification: 0x54d73d00" size="4" pos="58" show="0x54d73d00" value="54d73d00"/>
    </proto>
  </proto>
  <proto name="fake-field-wrapper">
    <field name="data" value="a0a1a2a3a4a5a6a7a8a9aaabacadaeafb0b1b2b3b4b5b6b7b8b9babbbcbdbebfc0c1c2c3c4c5c6c7c8c9cacbcccdcecfd0d1d2d3d4d5d6d7d8d9dadbdcdddedfe0e1e2e3e4e5e6e7e8e9eaebecedeeeff0f1f2f3f4f5f6f7f8f9fafbfcfdfeff000102030405060708090a0b0c0d0e0f101112131415161718191a1b1c1d1e1f202122232425262728292a2b2c2d2e2f303132333435363738393a3b3c3d3e3f404142434445464748494a4b4c4d4e4f505152535455565758595a5b5c5d5e5f606162636465666768696a6b6c6d6e6f707172737475767778797a7b7c7d7e7f808182838485868788898a8b8c8d8e8f909192939495969798999a9b9c9d9e9fa0a1a2a3a4a5a6a7a8a9aaabacadaeafb0b1b2b3b4b5b6b7b8b9babbbcbdbebfc0c1c2c3c4c5c6c7c8c9cacbcccdcecfd0d1d2d3d4d5d6d7d8d9dadbdcdddedfe0e1e2e3e4e5e6e7e8e9eaebecedeeeff0f1f2f3f4f5f6f7f8f9fafbfcfdfeff000102030405060708090a0b0c0d0e0f101112131415161718191a1b1c1d1e1f202122232425262728292a2b2c2d2e2f303132333435363738393a3b3c3d3e3f404142434445464748494a4b4c4d4e4f505152535455565758595a5b5c5d5e5f606162636465666768696a6b6c6d6e6f707172737475767778797a7b7c7d7e7f808182838485868788898a8b8c8d8e8f909192939495969798999a9b9c9d9e9fa0a1a2a3a4a5a6a7a8a9aaabacadaeafb0b1b2b3b4b5b6b7b8b9babbbcbdbebfc0c1c2c3c4c5c6c7c8c9cacbcccdcecf">
      <field name="filtered" value="data" />
  </field>
  </proto>
</packet>


<packet>
  <proto name="geninfo" pos="0" showname="General information" size="1294">
    <field name="num" pos="0" show="2" showname="Number" value="2" size="1294"/>
    <field name="len" pos="0" show="1294" showname="Frame Length" value="50e" size="1294"/>
    <field name="caplen" pos="0" show="1294" showname="Captured Length" value="50e" size="1294"/>
    <field name="timestamp" pos="0" show="Nov 20, 2018 21:49:47.235473000 CET" showname="Captured Time" value="1542746987.235473000" size="1294"/>
  </proto>
  <proto name="frame" showname="Frame 2: 1294 bytes on wire (10352 bits), 1294 bytes captured (10352 bits)" size="1294" pos="0">
    <field name="filtered" value="frame" />
  </proto>
  <proto name="eth" showname="Ethernet II, Src: 7e:62:3f:bf:a9:2d, Dst: de:a7:0c:7f:26:32" size="14" pos="0">
    <field name="filtered" value="eth" />
  </proto>
  <proto name="ipv6" showname="Internet Protocol Version 6, Src: 2001:7ab:1::a, Dst: 2001:7ab:2::b" size="40" pos="14">
    <field name="ipv6.version" showname="0110 .... = Version: 6" size="1" pos="14" show="6" value="6" unmaskedvalue="60"/>
    <field name="ip.version" showname="0110 .... = Version: 6 [This field makes the filter match on &quot;ip.version == 6&quot; possible]" hide="yes" size="1" pos="14" show="6" value="6" unmaskedvalue="60"/>
    <field name="ipv6.tclass" showname=".... 0000 0000 .... .... .... .... .... = Traffic Class: 0x00 (DSCP: CS0, ECN: Not-ECT)" size="4" pos="14" show="0x00000000" value="0" unmaskedvalue="6000df04">
      <field name="ipv6.tclass.dscp" showname=".... 0000 00.. .... .... .... .... .... = Differentiated Services Codepoint: Default (0)" size="4" pos="14" show="0" value="0" unmaskedvalue="6000df04"/>
      <field name="ipv6.tclass.ecn" showname=".... .... ..00 .... .... .... .... .... = Explicit Congestion Notification: Not ECN-Capable Transport (0)" size="4" pos="14" show="0" value="0" unmaskedvalue="6000df04"/>
    </field>
    <field name="ipv6.flow" showname=".... .... .... 0000 1101 1111 0000 0100 = Flow Label: 0x0df04" size="4" pos="14" show="0x0000df04" value="DF04" unmaskedvalue="6000df04"/>
    <field name="ipv6.plen" showname="Payload Length: 1240" size="2" pos="18" show="1240" value="04d8"/>
    <field name="ipv6.nxt" showname="Next Header: Fragment Header for IPv6 (44)" size="1" pos="20" show="44" value="2c"/>
    <field name="ipv6.hlim" showname="Hop Limit: 62" size="1" pos="21" show="62" value="3e"/>
    <field name="ipv6.src" showname="Source: 2001:7ab:1::a" size="16" pos="22" show="2001:7ab:1::a" value="200107ab00010000000000000000000a"/>
    <field name="ipv6.addr" showname="Source or Destination Address: 2001:7ab:1::a" hide="yes" size="16" pos="22" show="2001:7ab:1::a" value="200107ab00010000000000000000000a"/>
    <field name="ipv6.src_host" showname="Source Host: 2001:7ab:1::a" hide="yes" size="16" pos="22" show="2001:7ab:1::a" value="200107ab00010000000000000000000a"/>
    <field name="ipv6.host" showname="Source or Destination Host: 2001:7ab:1::a" hide="yes" size="16" pos="22" show="2001:7ab:1::a" value="200107ab00010000000000000000000a"/>
    <field name="ipv6.dst" showname="Destination: 2001:7ab:2::b" size="16" pos="38" show="2001:7ab:2::b" value="200107ab00020000000000000000000b"/>
    <field name="ipv6.addr" showname="Source or Destination Address: 2001:7ab:2::b" hide="yes" size="16" pos="38" show="2001:7ab:2::b" value="200107ab00020000000000000000000b"/>
    <field name="ipv6.dst_host" showname="Destination Host: 2001:7ab:2::b" hide="yes" size="16" pos="38" show="2001:7ab:2::b" value="200107ab00020000000000000000000b"/>
    <field name="ipv6.host" showname="Source or Destination Host: 2001:7ab:2::b" hide="yes" size="16" pos="38" show="2001:7ab:2::b" value="200107ab00020000000000000000000b"/>
    <proto name="ipv6.fraghdr" showname="Fragment Header for IPv6" size="8" pos="54">
      <field name="ipv6.fraghdr.nxt" showname="Next header: ICMPv6 (58)" size="1" pos="54" show="58" value="3a"/>
      <field name="ipv6.fraghdr.reserved_octet" showname="Reserved octet: 0x00" size="1" pos="55" show="0x00000000" value="00"/>
      <field name="ipv6.fraghdr.offset" showname="0000 0000 0000 0... = Offset: 0 (0 bytes)" size="2" pos="56" show="0" value="0" unmaskedvalue="0001"/>
      <field name="ipv6.fraghdr.reserved_bits" showname=".... .... .... .00. = Reserved bits: 0" size="2" pos="56" show="0" value="0" unmaskedvalue="0001"/>
      <field name="ipv6.fraghdr.more" showname=".... .... .... ...1 = More Fragments: Yes" size="2" pos="56" show="1" value="1" unmaskedvalue="0001"/>
      <field name="ipv6.fraghdr.ident" showname="Identification: 0x54d73dbe" size="4" pos="58" show="0x54d73dbe" value="54d73dbe"/>
    </proto>
  </proto>
  <proto name="fake-field-wrapper">
    <field name="data" value="8000394815e500026b73f45b000000006a96030000000000101112131415161718191a1b1c1d1e1f202122232425262728292a2b2c2d2e2f303132333435363738393a3b3c3d3e3f404142434445464748494a4b4c4d4e4f505152535455565758595a5b5c5d5e5f606162636465666768696a6b6c6d6e6f707172737475767778797a7b7c7d7e7f808182838485868788898a8b8c8d8e8f909192939495969798999a9b9c9d9e9fa0a1a2a3a4a5a6a7a8a9aaabacadaeafb0b1b2b3b4b5b6b7b8b9babbbcbdbebfc0c1c2c3c4c5c6c7c8c9cacbcccdcecfd0d1d2d3d4d5d6d7d8d9dadbdcdddedfe0e1e2e3e4e5e6e7e8e9eaebecedeeeff0f1f2f3f4f5f6f7f8f9fafbfcfdfeff000102030405060708090a0b0c0d0e0f101112131415161718191a1b1c1d1e1f202122232425262728292a2b2c2d2e2f303132333435363738393a3b3c3d3e3f404142434445464748494a4b4c4d4e4f505152535455565758595a5b5c5d5e5f606162636465666768696a6b6c6d6e6f707172737475767778797a7b7c7d7e7f808182838485868788898a8b8c8d8e8f909192939495969798999a9b9c9d9e9fa0a1a2a3a4a5a6a7a8a9aaabacadaeafb0b1b2b3b4b5b6b7b8b9babbbcbdbebfc0c1c2c3c4c5c6c7c8c9cacbcccdcecfd0d1d2d3d4d5d6d7d8d9dadbdcdddedfe0e1e2e3e4e5e6e7e8e9eaebecedeeeff0f1f2f3f4f5f6f7f8f9fafbfcfdfeff000102030405060708090a0b0c0d0e0f101112131415161718191a1b1c1d1e1f202122232425262728292a2b2c2d2e2f303132333435363738393a3b3c3d3e3f404142434445464748494a4b4c4d4e4f505152535455565758595a5b5c5d5e5f606162636465666768696a6b6c6d6e6f707172737475767778797a7b7c7d7e7f808182838485868788898a8b8c8d8e8f909192939495969798999a9b9c9d9e9fa0a1a2a3a4a5a6a7a8a9aaabacadaeafb0b1b2b3b4b5b6b7b8b9babbbcbdbebfc0c1c2c3c4c5c6c7c8c9cacbcccdcecfd0d1d2d3d4d5d6d7d8d9dadbdcdddedfe0e1e2e3e4e5e6e7e8e9eaebecedeeeff0f1f2f3f4f5f6f7f8f9fafbfcfdfeff000102030405060708090a0b0c0d0e0f101112131415161718191a1b1c1d1e1f202122232425262728292a2b2c2d2e2f303132333435363738393a3b3c3d3e3f404142434445464748494a4b4c4d4e4f505152535455565758595a5b5c5d5e5f606162636465666768696a6b6c6d6e6f707172737475767778797a7b7c7d7e7f808182838485868788898a8b8c8d8e8f909192939495969798999a9b9c9d9e9fa0a1a2a3a4a5a6a7a8a9aaabacadaeafb0b1b2b3b4b5b6b7b8b9babbbcbdbebfc0c1c2c3c4c5c6c7c8c9cacbcccdcecfd0d1d2d3d4d5d6d7d8d9dadbdcdddedfe0e1e2e3e4e5e6e7e8e9eaebecedeeeff0f1f2f3f4f5f6f7f8f9fafbfcfdfeff000102030405060708090a0b0c0d0e0f101112131415161718191a1b1c1d1e1f202122232425262728292a2b2c2d2e2f303132333435363738393a3b3c3d3e3f404142434445464748494a4b4c4d4e4f505152535455565758595a5b5c5d5e5f606162636465666768696a6b6c6d6e6f707172737475767778797a7b7c7d7e7f808182838485868788898a8b8c8d8e8f909192939495969798999a9b9c9d9e9fa0a1a2a3a4a5a6a7a8a9aaabacadaeafb0b1b2b3b4b5b6b7b8b9babbbcbdbebfc0c1c2c3c4c5c6c7">
      <field name="filtered" value="data" />
  </field>
  </proto>
</packet>


</pdml>
