<?xml version="1.0" encoding="utf-8"?>
<?xml-stylesheet type="text/xsl" href="pdml2html.xsl"?>
<!-- You can find pdml2html.xsl in /Applications/Wireshark.app/Contents/Resources/share/wireshark or at https://code.wireshark.org/review/gitweb?p=wireshark.git;a=blob_plain;f=pdml2html.xsl. -->
<pdml version="0" creator="wireshark/3.0.1" time="Thu May 16 17:46:33 2019" capture_file="ip6-traceroute6-86-98.pcap">
<packet>
  <proto name="geninfo" pos="0" showname="General information" size="74">
    <field name="num" pos="0" show="1" showname="Number" value="1" size="74"/>
    <field name="len" pos="0" show="74" showname="Frame Length" value="4a" size="74"/>
    <field name="caplen" pos="0" show="74" showname="Captured Length" value="4a" size="74"/>
    <field name="timestamp" pos="0" show="Nov 21, 2018 20:43:51.901768000 CET" showname="Captured Time" value="1542829431.901768000" size="74"/>
  </proto>
  <proto name="frame" showname="Frame 1: 74 bytes on wire (592 bits), 74 bytes captured (592 bits)" size="74" pos="0">
    <field name="filtered" value="frame" />
  </proto>
  <proto name="eth" showname="Ethernet II, Src: 3c:15:c2:e4:46:44, Dst: a0:21:b7:d8:aa:90" size="14" pos="0">
    <field name="filtered" value="eth" />
  </proto>
  <proto name="ipv6" showname="Internet Protocol Version 6, Src: 2a02:2788:484:59e:2c1c:849e:f74f:e233, Dst: 2606:4700:10::6814:155" size="40" pos="14">
    <field name="ipv6.version" showname="0110 .... = Version: 6" size="1" pos="14" show="6" value="6" unmaskedvalue="60"/>
    <field name="ip.version" showname="0110 .... = Version: 6 [This field makes the filter match on &quot;ip.version == 6&quot; possible]" hide="yes" size="1" pos="14" show="6" value="6" unmaskedvalue="60"/>
    <field name="ipv6.tclass" showname=".... 0000 0000 .... .... .... .... .... = Traffic Class: 0x00 (DSCP: CS0, ECN: Not-ECT)" size="4" pos="14" show="0x00000000" value="0" unmaskedvalue="6007d0ed">
      <field name="ipv6.tclass.dscp" showname=".... 0000 00.. .... .... .... .... .... = Differentiated Services Codepoint: Default (0)" size="4" pos="14" show="0" value="0" unmaskedvalue="6007d0ed"/>
      <field name="ipv6.tclass.ecn" showname=".... .... ..00 .... .... .... .... .... = Explicit Congestion Notification: Not ECN-Capable Transport (0)" size="4" pos="14" show="0" value="0" unmaskedvalue="6007d0ed"/>
    </field>
    <field name="ipv6.flow" showname=".... .... .... 0111 1101 0000 1110 1101 = Flow Label: 0x7d0ed" size="4" pos="14" show="0x0007d0ed" value="7D0ED" unmaskedvalue="6007d0ed"/>
    <field name="ipv6.plen" showname="Payload Length: 20" size="2" pos="18" show="20" value="0014"/>
    <field name="ipv6.nxt" showname="Next Header: UDP (17)" size="1" pos="20" show="17" value="11"/>
    <field name="ipv6.hlim" showname="Hop Limit: 1" size="1" pos="21" show="1" value="01"/>
    <field name="ipv6.src" showname="Source: 2a02:2788:484:59e:2c1c:849e:f74f:e233" size="16" pos="22" show="2a02:2788:484:59e:2c1c:849e:f74f:e233" value="2a0227880484059e2c1c849ef74fe233"/>
    <field name="ipv6.addr" showname="Source or Destination Address: 2a02:2788:484:59e:2c1c:849e:f74f:e233" hide="yes" size="16" pos="22" show="2a02:2788:484:59e:2c1c:849e:f74f:e233" value="2a0227880484059e2c1c849ef74fe233"/>
    <field name="ipv6.src_host" showname="Source Host: 2a02:2788:484:59e:2c1c:849e:f74f:e233" hide="yes" size="16" pos="22" show="2a02:2788:484:59e:2c1c:849e:f74f:e233" value="2a0227880484059e2c1c849ef74fe233"/>
    <field name="ipv6.host" showname="Source or Destination Host: 2a02:2788:484:59e:2c1c:849e:f74f:e233" hide="yes" size="16" pos="22" show="2a02:2788:484:59e:2c1c:849e:f74f:e233" value="2a0227880484059e2c1c849ef74fe233"/>
    <field name="ipv6.dst" showname="Destination: 2606:4700:10::6814:155" size="16" pos="38" show="2606:4700:10::6814:155" value="26064700001000000000000068140155"/>
    <field name="ipv6.addr" showname="Source or Destination Address: 2606:4700:10::6814:155" hide="yes" size="16" pos="38" show="2606:4700:10::6814:155" value="26064700001000000000000068140155"/>
    <field name="ipv6.dst_host" showname="Destination Host: 2606:4700:10::6814:155" hide="yes" size="16" pos="38" show="2606:4700:10::6814:155" value="26064700001000000000000068140155"/>
    <field name="ipv6.host" showname="Source or Destination Host: 2606:4700:10::6814:155" hide="yes" size="16" pos="38" show="2606:4700:10::6814:155" value="26064700001000000000000068140155"/>
  </proto>
  <proto name="udp" showname="User Datagram Protocol, Src Port: 53634, Dst Port: 33435" size="8" pos="54">
    <field name="udp.srcport" showname="Source Port: 53634" size="2" pos="54" show="53634" value="d182"/>
    <field name="udp.dstport" showname="Destination Port: 33435" size="2" pos="56" show="33435" value="829b">
      <field name="_ws.expert" showname="Expert Info (Chat/Sequence): Possible traceroute: hop #1, attempt #1" size="0" pos="56">
        <field name="udp.possible_traceroute" showname="Possible traceroute: hop #1, attempt #1" size="0" pos="0" show="" value=""/>
        <field name="_ws.expert.message" showname="Message: Possible traceroute: hop #1, attempt #1" hide="yes" size="0" pos="0" show="Possible traceroute: hop #1, attempt #1"/>
        <field name="_ws.expert.severity" showname="Severity level: Chat" size="0" pos="0" show="2097152"/>
        <field name="_ws.expert.group" showname="Group: Sequence" size="0" pos="0" show="33554432"/>
      </field>
    </field>
    <field name="udp.port" showname="Source or Destination Port: 53634" hide="yes" size="2" pos="54" show="53634" value="d182"/>
    <field name="udp.port" showname="Source or Destination Port: 33435" hide="yes" size="2" pos="56" show="33435" value="829b"/>
    <field name="udp.length" showname="Length: 20" size="2" pos="58" show="20" value="0014"/>
    <field name="udp.checksum" showname="Checksum: 0x1a84 [unverified]" size="2" pos="60" show="0x00001a84" value="1a84"/>
    <field name="udp.checksum.status" showname="Checksum Status: Unverified" size="0" pos="60" show="2"/>
    <field name="udp.stream" showname="Stream index: 0" size="0" pos="62" show="0"/>
    <field name="" show="Timestamps" size="0" pos="54">
      <field name="udp.time_relative" showname="Time since first frame: 0.000000000 seconds" size="0" pos="54" show="0.000000000"/>
      <field name="udp.time_delta" showname="Time since previous frame: 0.000000000 seconds" size="0" pos="54" show="0.000000000"/>
    </field>
  </proto>
  <proto name="fake-field-wrapper">
    <field name="data" value="010100005bf5b577000dc23e">
      <field name="filtered" value="data" />
  </field>
  </proto>
</packet>


<packet>
  <proto name="geninfo" pos="0" showname="General information" size="74">
    <field name="num" pos="0" show="2" showname="Number" value="2" size="74"/>
    <field name="len" pos="0" show="74" showname="Frame Length" value="4a" size="74"/>
    <field name="caplen" pos="0" show="74" showname="Captured Length" value="4a" size="74"/>
    <field name="timestamp" pos="0" show="Nov 21, 2018 20:43:51.903815000 CET" showname="Captured Time" value="1542829431.903815000" size="74"/>
  </proto>
  <proto name="frame" showname="Frame 2: 74 bytes on wire (592 bits), 74 bytes captured (592 bits)" size="74" pos="0">
    <field name="filtered" value="frame" />
  </proto>
  <proto name="eth" showname="Ethernet II, Src: 3c:15:c2:e4:46:44, Dst: a0:21:b7:d8:aa:90" size="14" pos="0">
    <field name="filtered" value="eth" />
  </proto>
  <proto name="ipv6" showname="Internet Protocol Version 6, Src: 2a02:2788:484:59e:2c1c:849e:f74f:e233, Dst: 2606:4700:10::6814:155" size="40" pos="14">
    <field name="ipv6.version" showname="0110 .... = Version: 6" size="1" pos="14" show="6" value="6" unmaskedvalue="60"/>
    <field name="ip.version" showname="0110 .... = Version: 6 [This field makes the filter match on &quot;ip.version == 6&quot; possible]" hide="yes" size="1" pos="14" show="6" value="6" unmaskedvalue="60"/>
    <field name="ipv6.tclass" showname=".... 0000 0000 .... .... .... .... .... = Traffic Class: 0x00 (DSCP: CS0, ECN: Not-ECT)" size="4" pos="14" show="0x00000000" value="0" unmaskedvalue="6007d0ed">
      <field name="ipv6.tclass.dscp" showname=".... 0000 00.. .... .... .... .... .... = Differentiated Services Codepoint: Default (0)" size="4" pos="14" show="0" value="0" unmaskedvalue="6007d0ed"/>
      <field name="ipv6.tclass.ecn" showname=".... .... ..00 .... .... .... .... .... = Explicit Congestion Notification: Not ECN-Capable Transport (0)" size="4" pos="14" show="0" value="0" unmaskedvalue="6007d0ed"/>
    </field>
    <field name="ipv6.flow" showname=".... .... .... 0111 1101 0000 1110 1101 = Flow Label: 0x7d0ed" size="4" pos="14" show="0x0007d0ed" value="7D0ED" unmaskedvalue="6007d0ed"/>
    <field name="ipv6.plen" showname="Payload Length: 20" size="2" pos="18" show="20" value="0014"/>
    <field name="ipv6.nxt" showname="Next Header: UDP (17)" size="1" pos="20" show="17" value="11"/>
    <field name="ipv6.hlim" showname="Hop Limit: 2" size="1" pos="21" show="2" value="02"/>
    <field name="ipv6.src" showname="Source: 2a02:2788:484:59e:2c1c:849e:f74f:e233" size="16" pos="22" show="2a02:2788:484:59e:2c1c:849e:f74f:e233" value="2a0227880484059e2c1c849ef74fe233"/>
    <field name="ipv6.addr" showname="Source or Destination Address: 2a02:2788:484:59e:2c1c:849e:f74f:e233" hide="yes" size="16" pos="22" show="2a02:2788:484:59e:2c1c:849e:f74f:e233" value="2a0227880484059e2c1c849ef74fe233"/>
    <field name="ipv6.src_host" showname="Source Host: 2a02:2788:484:59e:2c1c:849e:f74f:e233" hide="yes" size="16" pos="22" show="2a02:2788:484:59e:2c1c:849e:f74f:e233" value="2a0227880484059e2c1c849ef74fe233"/>
    <field name="ipv6.host" showname="Source or Destination Host: 2a02:2788:484:59e:2c1c:849e:f74f:e233" hide="yes" size="16" pos="22" show="2a02:2788:484:59e:2c1c:849e:f74f:e233" value="2a0227880484059e2c1c849ef74fe233"/>
    <field name="ipv6.dst" showname="Destination: 2606:4700:10::6814:155" size="16" pos="38" show="2606:4700:10::6814:155" value="26064700001000000000000068140155"/>
    <field name="ipv6.addr" showname="Source or Destination Address: 2606:4700:10::6814:155" hide="yes" size="16" pos="38" show="2606:4700:10::6814:155" value="26064700001000000000000068140155"/>
    <field name="ipv6.dst_host" showname="Destination Host: 2606:4700:10::6814:155" hide="yes" size="16" pos="38" show="2606:4700:10::6814:155" value="26064700001000000000000068140155"/>
    <field name="ipv6.host" showname="Source or Destination Host: 2606:4700:10::6814:155" hide="yes" size="16" pos="38" show="2606:4700:10::6814:155" value="26064700001000000000000068140155"/>
  </proto>
  <proto name="udp" showname="User Datagram Protocol, Src Port: 53634, Dst Port: 33436" size="8" pos="54">
    <field name="udp.srcport" showname="Source Port: 53634" size="2" pos="54" show="53634" value="d182"/>
    <field name="udp.dstport" showname="Destination Port: 33436" size="2" pos="56" show="33436" value="829c">
      <field name="_ws.expert" showname="Expert Info (Chat/Sequence): Possible traceroute: hop #1, attempt #2" size="0" pos="56">
        <field name="udp.possible_traceroute" showname="Possible traceroute: hop #1, attempt #2" size="0" pos="0" show="" value=""/>
        <field name="_ws.expert.message" showname="Message: Possible traceroute: hop #1, attempt #2" hide="yes" size="0" pos="0" show="Possible traceroute: hop #1, attempt #2"/>
        <field name="_ws.expert.severity" showname="Severity level: Chat" size="0" pos="0" show="2097152"/>
        <field name="_ws.expert.group" showname="Group: Sequence" size="0" pos="0" show="33554432"/>
      </field>
    </field>
    <field name="udp.port" showname="Source or Destination Port: 53634" hide="yes" size="2" pos="54" show="53634" value="d182"/>
    <field name="udp.port" showname="Source or Destination Port: 33436" hide="yes" size="2" pos="56" show="33436" value="829c"/>
    <field name="udp.length" showname="Length: 20" size="2" pos="58" show="20" value="0014"/>
    <field name="udp.checksum" showname="Checksum: 0x1170 [unverified]" size="2" pos="60" show="0x00001170" value="1170"/>
    <field name="udp.checksum.status" showname="Checksum Status: Unverified" size="0" pos="60" show="2"/>
    <field name="udp.stream" showname="Stream index: 1" size="0" pos="62" show="1"/>
    <field name="" show="Timestamps" size="0" pos="54">
      <field name="udp.time_relative" showname="Time since first frame: 0.000000000 seconds" size="0" pos="54" show="0.000000000"/>
      <field name="udp.time_delta" showname="Time since previous frame: 0.000000000 seconds" size="0" pos="54" show="0.000000000"/>
    </field>
  </proto>
  <proto name="fake-field-wrapper">
    <field name="data" value="020200005bf5b577000dca50">
      <field name="filtered" value="data" />
  </field>
  </proto>
</packet>


<packet>
  <proto name="geninfo" pos="0" showname="General information" size="74">
    <field name="num" pos="0" show="3" showname="Number" value="3" size="74"/>
    <field name="len" pos="0" show="74" showname="Frame Length" value="4a" size="74"/>
    <field name="caplen" pos="0" show="74" showname="Captured Length" value="4a" size="74"/>
    <field name="timestamp" pos="0" show="Nov 21, 2018 20:43:51.911940000 CET" showname="Captured Time" value="1542829431.911940000" size="74"/>
  </proto>
  <proto name="frame" showname="Frame 3: 74 bytes on wire (592 bits), 74 bytes captured (592 bits)" size="74" pos="0">
    <field name="filtered" value="frame" />
  </proto>
  <proto name="eth" showname="Ethernet II, Src: 3c:15:c2:e4:46:44, Dst: a0:21:b7:d8:aa:90" size="14" pos="0">
    <field name="filtered" value="eth" />
  </proto>
  <proto name="ipv6" showname="Internet Protocol Version 6, Src: 2a02:2788:484:59e:2c1c:849e:f74f:e233, Dst: 2606:4700:10::6814:155" size="40" pos="14">
    <field name="ipv6.version" showname="0110 .... = Version: 6" size="1" pos="14" show="6" value="6" unmaskedvalue="60"/>
    <field name="ip.version" showname="0110 .... = Version: 6 [This field makes the filter match on &quot;ip.version == 6&quot; possible]" hide="yes" size="1" pos="14" show="6" value="6" unmaskedvalue="60"/>
    <field name="ipv6.tclass" showname=".... 0000 0000 .... .... .... .... .... = Traffic Class: 0x00 (DSCP: CS0, ECN: Not-ECT)" size="4" pos="14" show="0x00000000" value="0" unmaskedvalue="6007d0ed">
      <field name="ipv6.tclass.dscp" showname=".... 0000 00.. .... .... .... .... .... = Differentiated Services Codepoint: Default (0)" size="4" pos="14" show="0" value="0" unmaskedvalue="6007d0ed"/>
      <field name="ipv6.tclass.ecn" showname=".... .... ..00 .... .... .... .... .... = Explicit Congestion Notification: Not ECN-Capable Transport (0)" size="4" pos="14" show="0" value="0" unmaskedvalue="6007d0ed"/>
    </field>
    <field name="ipv6.flow" showname=".... .... .... 0111 1101 0000 1110 1101 = Flow Label: 0x7d0ed" size="4" pos="14" show="0x0007d0ed" value="7D0ED" unmaskedvalue="6007d0ed"/>
    <field name="ipv6.plen" showname="Payload Length: 20" size="2" pos="18" show="20" value="0014"/>
    <field name="ipv6.nxt" showname="Next Header: UDP (17)" size="1" pos="20" show="17" value="11"/>
    <field name="ipv6.hlim" showname="Hop Limit: 3" size="1" pos="21" show="3" value="03"/>
    <field name="ipv6.src" showname="Source: 2a02:2788:484:59e:2c1c:849e:f74f:e233" size="16" pos="22" show="2a02:2788:484:59e:2c1c:849e:f74f:e233" value="2a0227880484059e2c1c849ef74fe233"/>
    <field name="ipv6.addr" showname="Source or Destination Address: 2a02:2788:484:59e:2c1c:849e:f74f:e233" hide="yes" size="16" pos="22" show="2a02:2788:484:59e:2c1c:849e:f74f:e233" value="2a0227880484059e2c1c849ef74fe233"/>
    <field name="ipv6.src_host" showname="Source Host: 2a02:2788:484:59e:2c1c:849e:f74f:e233" hide="yes" size="16" pos="22" show="2a02:2788:484:59e:2c1c:849e:f74f:e233" value="2a0227880484059e2c1c849ef74fe233"/>
    <field name="ipv6.host" showname="Source or Destination Host: 2a02:2788:484:59e:2c1c:849e:f74f:e233" hide="yes" size="16" pos="22" show="2a02:2788:484:59e:2c1c:849e:f74f:e233" value="2a0227880484059e2c1c849ef74fe233"/>
    <field name="ipv6.dst" showname="Destination: 2606:4700:10::6814:155" size="16" pos="38" show="2606:4700:10::6814:155" value="26064700001000000000000068140155"/>
    <field name="ipv6.addr" showname="Source or Destination Address: 2606:4700:10::6814:155" hide="yes" size="16" pos="38" show="2606:4700:10::6814:155" value="26064700001000000000000068140155"/>
    <field name="ipv6.dst_host" showname="Destination Host: 2606:4700:10::6814:155" hide="yes" size="16" pos="38" show="2606:4700:10::6814:155" value="26064700001000000000000068140155"/>
    <field name="ipv6.host" showname="Source or Destination Host: 2606:4700:10::6814:155" hide="yes" size="16" pos="38" show="2606:4700:10::6814:155" value="26064700001000000000000068140155"/>
  </proto>
  <proto name="udp" showname="User Datagram Protocol, Src Port: 53634, Dst Port: 33437" size="8" pos="54">
    <field name="udp.srcport" showname="Source Port: 53634" size="2" pos="54" show="53634" value="d182"/>
    <field name="udp.dstport" showname="Destination Port: 33437" size="2" pos="56" show="33437" value="829d">
      <field name="_ws.expert" showname="Expert Info (Chat/Sequence): Possible traceroute: hop #1, attempt #3" size="0" pos="56">
        <field name="udp.possible_traceroute" showname="Possible traceroute: hop #1, attempt #3" size="0" pos="0" show="" value=""/>
        <field name="_ws.expert.message" showname="Message: Possible traceroute: hop #1, attempt #3" hide="yes" size="0" pos="0" show="Possible traceroute: hop #1, attempt #3"/>
        <field name="_ws.expert.severity" showname="Severity level: Chat" size="0" pos="0" show="2097152"/>
        <field name="_ws.expert.group" showname="Group: Sequence" size="0" pos="0" show="33554432"/>
      </field>
    </field>
    <field name="udp.port" showname="Source or Destination Port: 53634" hide="yes" size="2" pos="54" show="53634" value="d182"/>
    <field name="udp.port" showname="Source or Destination Port: 33437" hide="yes" size="2" pos="56" show="33437" value="829d"/>
    <field name="udp.length" showname="Length: 20" size="2" pos="58" show="20" value="0014"/>
    <field name="udp.checksum" showname="Checksum: 0xf0b3 [unverified]" size="2" pos="60" show="0x0000f0b3" value="f0b3"/>
    <field name="udp.checksum.status" showname="Checksum Status: Unverified" size="0" pos="60" show="2"/>
    <field name="udp.stream" showname="Stream index: 2" size="0" pos="62" show="2"/>
    <field name="" show="Timestamps" size="0" pos="54">
      <field name="udp.time_relative" showname="Time since first frame: 0.000000000 seconds" size="0" pos="54" show="0.000000000"/>
      <field name="udp.time_delta" showname="Time since previous frame: 0.000000000 seconds" size="0" pos="54" show="0.000000000"/>
    </field>
  </proto>
  <proto name="fake-field-wrapper">
    <field name="data" value="030300005bf5b577000dea0a">
      <field name="filtered" value="data" />
  </field>
  </proto>
</packet>


<packet>
  <proto name="geninfo" pos="0" showname="General information" size="74">
    <field name="num" pos="0" show="4" showname="Number" value="4" size="74"/>
    <field name="len" pos="0" show="74" showname="Frame Length" value="4a" size="74"/>
    <field name="caplen" pos="0" show="74" showname="Captured Length" value="4a" size="74"/>
    <field name="timestamp" pos="0" show="Nov 21, 2018 20:43:51.920832000 CET" showname="Captured Time" value="1542829431.920832000" size="74"/>
  </proto>
  <proto name="frame" showname="Frame 4: 74 bytes on wire (592 bits), 74 bytes captured (592 bits)" size="74" pos="0">
    <field name="filtered" value="frame" />
  </proto>
  <proto name="eth" showname="Ethernet II, Src: 3c:15:c2:e4:46:44, Dst: a0:21:b7:d8:aa:90" size="14" pos="0">
    <field name="filtered" value="eth" />
  </proto>
  <proto name="ipv6" showname="Internet Protocol Version 6, Src: 2a02:2788:484:59e:2c1c:849e:f74f:e233, Dst: 2606:4700:10::6814:155" size="40" pos="14">
    <field name="ipv6.version" showname="0110 .... = Version: 6" size="1" pos="14" show="6" value="6" unmaskedvalue="60"/>
    <field name="ip.version" showname="0110 .... = Version: 6 [This field makes the filter match on &quot;ip.version == 6&quot; possible]" hide="yes" size="1" pos="14" show="6" value="6" unmaskedvalue="60"/>
    <field name="ipv6.tclass" showname=".... 0000 0000 .... .... .... .... .... = Traffic Class: 0x00 (DSCP: CS0, ECN: Not-ECT)" size="4" pos="14" show="0x00000000" value="0" unmaskedvalue="6007d0ed">
      <field name="ipv6.tclass.dscp" showname=".... 0000 00.. .... .... .... .... .... = Differentiated Services Codepoint: Default (0)" size="4" pos="14" show="0" value="0" unmaskedvalue="6007d0ed"/>
      <field name="ipv6.tclass.ecn" showname=".... .... ..00 .... .... .... .... .... = Explicit Congestion Notification: Not ECN-Capable Transport (0)" size="4" pos="14" show="0" value="0" unmaskedvalue="6007d0ed"/>
    </field>
    <field name="ipv6.flow" showname=".... .... .... 0111 1101 0000 1110 1101 = Flow Label: 0x7d0ed" size="4" pos="14" show="0x0007d0ed" value="7D0ED" unmaskedvalue="6007d0ed"/>
    <field name="ipv6.plen" showname="Payload Length: 20" size="2" pos="18" show="20" value="0014"/>
    <field name="ipv6.nxt" showname="Next Header: UDP (17)" size="1" pos="20" show="17" value="11"/>
    <field name="ipv6.hlim" showname="Hop Limit: 4" size="1" pos="21" show="4" value="04"/>
    <field name="ipv6.src" showname="Source: 2a02:2788:484:59e:2c1c:849e:f74f:e233" size="16" pos="22" show="2a02:2788:484:59e:2c1c:849e:f74f:e233" value="2a0227880484059e2c1c849ef74fe233"/>
    <field name="ipv6.addr" showname="Source or Destination Address: 2a02:2788:484:59e:2c1c:849e:f74f:e233" hide="yes" size="16" pos="22" show="2a02:2788:484:59e:2c1c:849e:f74f:e233" value="2a0227880484059e2c1c849ef74fe233"/>
    <field name="ipv6.src_host" showname="Source Host: 2a02:2788:484:59e:2c1c:849e:f74f:e233" hide="yes" size="16" pos="22" show="2a02:2788:484:59e:2c1c:849e:f74f:e233" value="2a0227880484059e2c1c849ef74fe233"/>
    <field name="ipv6.host" showname="Source or Destination Host: 2a02:2788:484:59e:2c1c:849e:f74f:e233" hide="yes" size="16" pos="22" show="2a02:2788:484:59e:2c1c:849e:f74f:e233" value="2a0227880484059e2c1c849ef74fe233"/>
    <field name="ipv6.dst" showname="Destination: 2606:4700:10::6814:155" size="16" pos="38" show="2606:4700:10::6814:155" value="26064700001000000000000068140155"/>
    <field name="ipv6.addr" showname="Source or Destination Address: 2606:4700:10::6814:155" hide="yes" size="16" pos="38" show="2606:4700:10::6814:155" value="26064700001000000000000068140155"/>
    <field name="ipv6.dst_host" showname="Destination Host: 2606:4700:10::6814:155" hide="yes" size="16" pos="38" show="2606:4700:10::6814:155" value="26064700001000000000000068140155"/>
    <field name="ipv6.host" showname="Source or Destination Host: 2606:4700:10::6814:155" hide="yes" size="16" pos="38" show="2606:4700:10::6814:155" value="26064700001000000000000068140155"/>
  </proto>
  <proto name="udp" showname="User Datagram Protocol, Src Port: 53634, Dst Port: 33438" size="8" pos="54">
    <field name="udp.srcport" showname="Source Port: 53634" size="2" pos="54" show="53634" value="d182"/>
    <field name="udp.dstport" showname="Destination Port: 33438" size="2" pos="56" show="33438" value="829e">
      <field name="_ws.expert" showname="Expert Info (Chat/Sequence): Possible traceroute: hop #2, attempt #1" size="0" pos="56">
        <field name="udp.possible_traceroute" showname="Possible traceroute: hop #2, attempt #1" size="0" pos="0" show="" value=""/>
        <field name="_ws.expert.message" showname="Message: Possible traceroute: hop #2, attempt #1" hide="yes" size="0" pos="0" show="Possible traceroute: hop #2, attempt #1"/>
        <field name="_ws.expert.severity" showname="Severity level: Chat" size="0" pos="0" show="2097152"/>
        <field name="_ws.expert.group" showname="Group: Sequence" size="0" pos="0" show="33554432"/>
      </field>
    </field>
    <field name="udp.port" showname="Source or Destination Port: 53634" hide="yes" size="2" pos="54" show="53634" value="d182"/>
    <field name="udp.port" showname="Source or Destination Port: 33438" hide="yes" size="2" pos="56" show="33438" value="829e"/>
    <field name="udp.length" showname="Length: 20" size="2" pos="58" show="20" value="0014"/>
    <field name="udp.checksum" showname="Checksum: 0xcd01 [unverified]" size="2" pos="60" show="0x0000cd01" value="cd01"/>
    <field name="udp.checksum.status" showname="Checksum Status: Unverified" size="0" pos="60" show="2"/>
    <field name="udp.stream" showname="Stream index: 3" size="0" pos="62" show="3"/>
    <field name="" show="Timestamps" size="0" pos="54">
      <field name="udp.time_relative" showname="Time since first frame: 0.000000000 seconds" size="0" pos="54" show="0.000000000"/>
      <field name="udp.time_delta" showname="Time since previous frame: 0.000000000 seconds" size="0" pos="54" show="0.000000000"/>
    </field>
  </proto>
  <proto name="fake-field-wrapper">
    <field name="data" value="040400005bf5b577000e0cba">
      <field name="filtered" value="data" />
  </field>
  </proto>
</packet>


<packet>
  <proto name="geninfo" pos="0" showname="General information" size="74">
    <field name="num" pos="0" show="5" showname="Number" value="5" size="74"/>
    <field name="len" pos="0" show="74" showname="Frame Length" value="4a" size="74"/>
    <field name="caplen" pos="0" show="74" showname="Captured Length" value="4a" size="74"/>
    <field name="timestamp" pos="0" show="Nov 21, 2018 20:43:51.928783000 CET" showname="Captured Time" value="1542829431.928783000" size="74"/>
  </proto>
  <proto name="frame" showname="Frame 5: 74 bytes on wire (592 bits), 74 bytes captured (592 bits)" size="74" pos="0">
    <field name="filtered" value="frame" />
  </proto>
  <proto name="eth" showname="Ethernet II, Src: 3c:15:c2:e4:46:44, Dst: a0:21:b7:d8:aa:90" size="14" pos="0">
    <field name="filtered" value="eth" />
  </proto>
  <proto name="ipv6" showname="Internet Protocol Version 6, Src: 2a02:2788:484:59e:2c1c:849e:f74f:e233, Dst: 2606:4700:10::6814:155" size="40" pos="14">
    <field name="ipv6.version" showname="0110 .... = Version: 6" size="1" pos="14" show="6" value="6" unmaskedvalue="60"/>
    <field name="ip.version" showname="0110 .... = Version: 6 [This field makes the filter match on &quot;ip.version == 6&quot; possible]" hide="yes" size="1" pos="14" show="6" value="6" unmaskedvalue="60"/>
    <field name="ipv6.tclass" showname=".... 0000 0000 .... .... .... .... .... = Traffic Class: 0x00 (DSCP: CS0, ECN: Not-ECT)" size="4" pos="14" show="0x00000000" value="0" unmaskedvalue="6007d0ed">
      <field name="ipv6.tclass.dscp" showname=".... 0000 00.. .... .... .... .... .... = Differentiated Services Codepoint: Default (0)" size="4" pos="14" show="0" value="0" unmaskedvalue="6007d0ed"/>
      <field name="ipv6.tclass.ecn" showname=".... .... ..00 .... .... .... .... .... = Explicit Congestion Notification: Not ECN-Capable Transport (0)" size="4" pos="14" show="0" value="0" unmaskedvalue="6007d0ed"/>
    </field>
    <field name="ipv6.flow" showname=".... .... .... 0111 1101 0000 1110 1101 = Flow Label: 0x7d0ed" size="4" pos="14" show="0x0007d0ed" value="7D0ED" unmaskedvalue="6007d0ed"/>
    <field name="ipv6.plen" showname="Payload Length: 20" size="2" pos="18" show="20" value="0014"/>
    <field name="ipv6.nxt" showname="Next Header: UDP (17)" size="1" pos="20" show="17" value="11"/>
    <field name="ipv6.hlim" showname="Hop Limit: 5" size="1" pos="21" show="5" value="05"/>
    <field name="ipv6.src" showname="Source: 2a02:2788:484:59e:2c1c:849e:f74f:e233" size="16" pos="22" show="2a02:2788:484:59e:2c1c:849e:f74f:e233" value="2a0227880484059e2c1c849ef74fe233"/>
    <field name="ipv6.addr" showname="Source or Destination Address: 2a02:2788:484:59e:2c1c:849e:f74f:e233" hide="yes" size="16" pos="22" show="2a02:2788:484:59e:2c1c:849e:f74f:e233" value="2a0227880484059e2c1c849ef74fe233"/>
    <field name="ipv6.src_host" showname="Source Host: 2a02:2788:484:59e:2c1c:849e:f74f:e233" hide="yes" size="16" pos="22" show="2a02:2788:484:59e:2c1c:849e:f74f:e233" value="2a0227880484059e2c1c849ef74fe233"/>
    <field name="ipv6.host" showname="Source or Destination Host: 2a02:2788:484:59e:2c1c:849e:f74f:e233" hide="yes" size="16" pos="22" show="2a02:2788:484:59e:2c1c:849e:f74f:e233" value="2a0227880484059e2c1c849ef74fe233"/>
    <field name="ipv6.dst" showname="Destination: 2606:4700:10::6814:155" size="16" pos="38" show="2606:4700:10::6814:155" value="26064700001000000000000068140155"/>
    <field name="ipv6.addr" showname="Source or Destination Address: 2606:4700:10::6814:155" hide="yes" size="16" pos="38" show="2606:4700:10::6814:155" value="26064700001000000000000068140155"/>
    <field name="ipv6.dst_host" showname="Destination Host: 2606:4700:10::6814:155" hide="yes" size="16" pos="38" show="2606:4700:10::6814:155" value="26064700001000000000000068140155"/>
    <field name="ipv6.host" showname="Source or Destination Host: 2606:4700:10::6814:155" hide="yes" size="16" pos="38" show="2606:4700:10::6814:155" value="26064700001000000000000068140155"/>
  </proto>
  <proto name="udp" showname="User Datagram Protocol, Src Port: 53634, Dst Port: 33439" size="8" pos="54">
    <field name="udp.srcport" showname="Source Port: 53634" size="2" pos="54" show="53634" value="d182"/>
    <field name="udp.dstport" showname="Destination Port: 33439" size="2" pos="56" show="33439" value="829f">
      <field name="_ws.expert" showname="Expert Info (Chat/Sequence): Possible traceroute: hop #2, attempt #2" size="0" pos="56">
        <field name="udp.possible_traceroute" showname="Possible traceroute: hop #2, attempt #2" size="0" pos="0" show="" value=""/>
        <field name="_ws.expert.message" showname="Message: Possible traceroute: hop #2, attempt #2" hide="yes" size="0" pos="0" show="Possible traceroute: hop #2, attempt #2"/>
        <field name="_ws.expert.severity" showname="Severity level: Chat" size="0" pos="0" show="2097152"/>
        <field name="_ws.expert.group" showname="Group: Sequence" size="0" pos="0" show="33554432"/>
      </field>
    </field>
    <field name="udp.port" showname="Source or Destination Port: 53634" hide="yes" size="2" pos="54" show="53634" value="d182"/>
    <field name="udp.port" showname="Source or Destination Port: 33439" hide="yes" size="2" pos="56" show="33439" value="829f"/>
    <field name="udp.length" showname="Length: 20" size="2" pos="58" show="20" value="0014"/>
    <field name="udp.checksum" showname="Checksum: 0xacdc [unverified]" size="2" pos="60" show="0x0000acdc" value="acdc"/>
    <field name="udp.checksum.status" showname="Checksum Status: Unverified" size="0" pos="60" show="2"/>
    <field name="udp.stream" showname="Stream index: 4" size="0" pos="62" show="4"/>
    <field name="" show="Timestamps" size="0" pos="54">
      <field name="udp.time_relative" showname="Time since first frame: 0.000000000 seconds" size="0" pos="54" show="0.000000000"/>
      <field name="udp.time_delta" showname="Time since previous frame: 0.000000000 seconds" size="0" pos="54" show="0.000000000"/>
    </field>
  </proto>
  <proto name="fake-field-wrapper">
    <field name="data" value="050500005bf5b577000e2bdd">
      <field name="filtered" value="data" />
  </field>
  </proto>
</packet>


<packet>
  <proto name="geninfo" pos="0" showname="General information" size="74">
    <field name="num" pos="0" show="6" showname="Number" value="6" size="74"/>
    <field name="len" pos="0" show="74" showname="Frame Length" value="4a" size="74"/>
    <field name="caplen" pos="0" show="74" showname="Captured Length" value="4a" size="74"/>
    <field name="timestamp" pos="0" show="Nov 21, 2018 20:43:51.937161000 CET" showname="Captured Time" value="1542829431.937161000" size="74"/>
  </proto>
  <proto name="frame" showname="Frame 6: 74 bytes on wire (592 bits), 74 bytes captured (592 bits)" size="74" pos="0">
    <field name="filtered" value="frame" />
  </proto>
  <proto name="eth" showname="Ethernet II, Src: 3c:15:c2:e4:46:44, Dst: a0:21:b7:d8:aa:90" size="14" pos="0">
    <field name="filtered" value="eth" />
  </proto>
  <proto name="ipv6" showname="Internet Protocol Version 6, Src: 2a02:2788:484:59e:2c1c:849e:f74f:e233, Dst: 2606:4700:10::6814:155" size="40" pos="14">
    <field name="ipv6.version" showname="0110 .... = Version: 6" size="1" pos="14" show="6" value="6" unmaskedvalue="60"/>
    <field name="ip.version" showname="0110 .... = Version: 6 [This field makes the filter match on &quot;ip.version == 6&quot; possible]" hide="yes" size="1" pos="14" show="6" value="6" unmaskedvalue="60"/>
    <field name="ipv6.tclass" showname=".... 0000 0000 .... .... .... .... .... = Traffic Class: 0x00 (DSCP: CS0, ECN: Not-ECT)" size="4" pos="14" show="0x00000000" value="0" unmaskedvalue="6007d0ed">
      <field name="ipv6.tclass.dscp" showname=".... 0000 00.. .... .... .... .... .... = Differentiated Services Codepoint: Default (0)" size="4" pos="14" show="0" value="0" unmaskedvalue="6007d0ed"/>
      <field name="ipv6.tclass.ecn" showname=".... .... ..00 .... .... .... .... .... = Explicit Congestion Notification: Not ECN-Capable Transport (0)" size="4" pos="14" show="0" value="0" unmaskedvalue="6007d0ed"/>
    </field>
    <field name="ipv6.flow" showname=".... .... .... 0111 1101 0000 1110 1101 = Flow Label: 0x7d0ed" size="4" pos="14" show="0x0007d0ed" value="7D0ED" unmaskedvalue="6007d0ed"/>
    <field name="ipv6.plen" showname="Payload Length: 20" size="2" pos="18" show="20" value="0014"/>
    <field name="ipv6.nxt" showname="Next Header: UDP (17)" size="1" pos="20" show="17" value="11"/>
    <field name="ipv6.hlim" showname="Hop Limit: 6" size="1" pos="21" show="6" value="06"/>
    <field name="ipv6.src" showname="Source: 2a02:2788:484:59e:2c1c:849e:f74f:e233" size="16" pos="22" show="2a02:2788:484:59e:2c1c:849e:f74f:e233" value="2a0227880484059e2c1c849ef74fe233"/>
    <field name="ipv6.addr" showname="Source or Destination Address: 2a02:2788:484:59e:2c1c:849e:f74f:e233" hide="yes" size="16" pos="22" show="2a02:2788:484:59e:2c1c:849e:f74f:e233" value="2a0227880484059e2c1c849ef74fe233"/>
    <field name="ipv6.src_host" showname="Source Host: 2a02:2788:484:59e:2c1c:849e:f74f:e233" hide="yes" size="16" pos="22" show="2a02:2788:484:59e:2c1c:849e:f74f:e233" value="2a0227880484059e2c1c849ef74fe233"/>
    <field name="ipv6.host" showname="Source or Destination Host: 2a02:2788:484:59e:2c1c:849e:f74f:e233" hide="yes" size="16" pos="22" show="2a02:2788:484:59e:2c1c:849e:f74f:e233" value="2a0227880484059e2c1c849ef74fe233"/>
    <field name="ipv6.dst" showname="Destination: 2606:4700:10::6814:155" size="16" pos="38" show="2606:4700:10::6814:155" value="26064700001000000000000068140155"/>
    <field name="ipv6.addr" showname="Source or Destination Address: 2606:4700:10::6814:155" hide="yes" size="16" pos="38" show="2606:4700:10::6814:155" value="26064700001000000000000068140155"/>
    <field name="ipv6.dst_host" showname="Destination Host: 2606:4700:10::6814:155" hide="yes" size="16" pos="38" show="2606:4700:10::6814:155" value="26064700001000000000000068140155"/>
    <field name="ipv6.host" showname="Source or Destination Host: 2606:4700:10::6814:155" hide="yes" size="16" pos="38" show="2606:4700:10::6814:155" value="26064700001000000000000068140155"/>
  </proto>
  <proto name="udp" showname="User Datagram Protocol, Src Port: 53634, Dst Port: 33440" size="8" pos="54">
    <field name="udp.srcport" showname="Source Port: 53634" size="2" pos="54" show="53634" value="d182"/>
    <field name="udp.dstport" showname="Destination Port: 33440" size="2" pos="56" show="33440" value="82a0">
      <field name="_ws.expert" showname="Expert Info (Chat/Sequence): Possible traceroute: hop #2, attempt #3" size="0" pos="56">
        <field name="udp.possible_traceroute" showname="Possible traceroute: hop #2, attempt #3" size="0" pos="0" show="" value=""/>
        <field name="_ws.expert.message" showname="Message: Possible traceroute: hop #2, attempt #3" hide="yes" size="0" pos="0" show="Possible traceroute: hop #2, attempt #3"/>
        <field name="_ws.expert.severity" showname="Severity level: Chat" size="0" pos="0" show="2097152"/>
        <field name="_ws.expert.group" showname="Group: Sequence" size="0" pos="0" show="33554432"/>
      </field>
    </field>
    <field name="udp.port" showname="Source or Destination Port: 53634" hide="yes" size="2" pos="54" show="53634" value="d182"/>
    <field name="udp.port" showname="Source or Destination Port: 33440" hide="yes" size="2" pos="56" show="33440" value="82a0"/>
    <field name="udp.length" showname="Length: 20" size="2" pos="58" show="20" value="0014"/>
    <field name="udp.checksum" showname="Checksum: 0x8b22 [unverified]" size="2" pos="60" show="0x00008b22" value="8b22"/>
    <field name="udp.checksum.status" showname="Checksum Status: Unverified" size="0" pos="60" show="2"/>
    <field name="udp.stream" showname="Stream index: 5" size="0" pos="62" show="5"/>
    <field name="" show="Timestamps" size="0" pos="54">
      <field name="udp.time_relative" showname="Time since first frame: 0.000000000 seconds" size="0" pos="54" show="0.000000000"/>
      <field name="udp.time_delta" showname="Time since previous frame: 0.000000000 seconds" size="0" pos="54" show="0.000000000"/>
    </field>
  </proto>
  <proto name="fake-field-wrapper">
    <field name="data" value="060600005bf5b577000e4c95">
      <field name="filtered" value="data" />
  </field>
  </proto>
</packet>


</pdml>
