<?xml version="1.0" encoding="utf-8"?>
<?xml-stylesheet type="text/xsl" href="pdml2html.xsl"?>
<!-- You can find pdml2html.xsl in /Applications/Wireshark.app/Contents/Resources/share/wireshark or at https://code.wireshark.org/review/gitweb?p=wireshark.git;a=blob_plain;f=pdml2html.xsl. -->
<pdml version="0" creator="wireshark/3.0.1" time="Thu May 16 15:45:51 2019" capture_file="tcp-rfc793-4-10b.pcap">
<packet>
  <proto name="geninfo" pos="0" showname="General information" size="78">
    <field name="num" pos="0" show="1" showname="Number" value="1" size="78"/>
    <field name="len" pos="0" show="78" showname="Frame Length" value="4e" size="78"/>
    <field name="caplen" pos="0" show="78" showname="Captured Length" value="4e" size="78"/>
    <field name="timestamp" pos="0" show="Oct 25, 2018 17:26:22.344740000 CEST" showname="Captured Time" value="1540481182.344740000" size="78"/>
  </proto>
  <proto name="frame" showname="Frame 1: 78 bytes on wire (624 bits), 78 bytes captured (624 bits)" size="78" pos="0">
    <field name="filtered" value="frame" />
  </proto>
  <proto name="eth" showname="Ethernet II, Src: 26:71:ff:fe:ec:1d, Dst: 36:66:93:b9:6c:1a" size="14" pos="0">
    <field name="filtered" value="eth" />
  </proto>
  <proto name="ipv6" showname="Internet Protocol Version 6, Src: 2001:7ab:1::a, Dst: 2001:7ab:3::c" size="40" pos="14">
    <field name="filtered" value="ipv6" />
  </proto>
  <proto name="tcp" showname="Transmission Control Protocol, Src Port: 53706, Dst Port: 1234, Seq: 925123579, Len: 0" size="24" pos="54">
    <field name="tcp.srcport" showname="Source Port: 53706" size="2" pos="54" show="53706" value="d1ca"/>
    <field name="tcp.dstport" showname="Destination Port: 1234" size="2" pos="56" show="1234" value="04d2"/>
    <field name="tcp.port" showname="Source or Destination Port: 53706" hide="yes" size="2" pos="54" show="53706" value="d1ca"/>
    <field name="tcp.port" showname="Source or Destination Port: 1234" hide="yes" size="2" pos="56" show="1234" value="04d2"/>
    <field name="tcp.stream" showname="Stream index: 0" size="0" pos="54" show="0"/>
    <field name="tcp.len" showname="TCP Segment Len: 0" size="1" pos="66" show="0" value="60"/>
    <field name="tcp.seq" showname="Sequence number: 925123579" size="4" pos="58" show="925123579" value="372443fb"/>
    <field name="tcp.nxtseq" showname="Next sequence number: 925123579" size="0" pos="54" show="925123579"/>
    <field name="tcp.ack" showname="Acknowledgment number: 0" size="4" pos="62" show="0" value="00000000"/>
    <field name="tcp.hdr_len" showname="0110 .... = Header Length: 24 bytes (6)" size="1" pos="66" show="24" value="60"/>
    <field name="tcp.flags" showname="Flags: 0x002 (SYN)" size="2" pos="66" show="0x00000002" value="2" unmaskedvalue="6002">
      <field name="tcp.flags.res" showname="000. .... .... = Reserved: Not set" size="1" pos="66" show="0" value="0" unmaskedvalue="60"/>
      <field name="tcp.flags.ns" showname="...0 .... .... = Nonce: Not set" size="1" pos="66" show="0" value="0" unmaskedvalue="60"/>
      <field name="tcp.flags.cwr" showname=".... 0... .... = Congestion Window Reduced (CWR): Not set" size="1" pos="67" show="0" value="0" unmaskedvalue="02"/>
      <field name="tcp.flags.ecn" showname=".... .0.. .... = ECN-Echo: Not set" size="1" pos="67" show="0" value="0" unmaskedvalue="02"/>
      <field name="tcp.flags.urg" showname=".... ..0. .... = Urgent: Not set" size="1" pos="67" show="0" value="0" unmaskedvalue="02"/>
      <field name="tcp.flags.ack" showname=".... ...0 .... = Acknowledgment: Not set" size="1" pos="67" show="0" value="0" unmaskedvalue="02"/>
      <field name="tcp.flags.push" showname=".... .... 0... = Push: Not set" size="1" pos="67" show="0" value="0" unmaskedvalue="02"/>
      <field name="tcp.flags.reset" showname=".... .... .0.. = Reset: Not set" size="1" pos="67" show="0" value="0" unmaskedvalue="02"/>
      <field name="tcp.flags.syn" showname=".... .... ..1. = Syn: Set" size="1" pos="67" show="1" value="1" unmaskedvalue="02">
        <field name="_ws.expert" showname="Expert Info (Chat/Sequence): Connection establish request (SYN): server port 1234" size="0" pos="67">
          <field name="tcp.connection.syn" showname="Connection establish request (SYN): server port 1234" size="0" pos="0" show="" value=""/>
          <field name="_ws.expert.message" showname="Message: Connection establish request (SYN): server port 1234" hide="yes" size="0" pos="0" show="Connection establish request (SYN): server port 1234"/>
          <field name="_ws.expert.severity" showname="Severity level: Chat" size="0" pos="0" show="2097152"/>
          <field name="_ws.expert.group" showname="Group: Sequence" size="0" pos="0" show="33554432"/>
        </field>
      </field>
      <field name="tcp.flags.fin" showname=".... .... ...0 = Fin: Not set" size="1" pos="67" show="0" value="0" unmaskedvalue="02"/>
      <field name="tcp.flags.str" showname="TCP Flags: \xc2\xb7\xc2\xb7\xc2\xb7\xc2\xb7\xc2\xb7\xc2\xb7\xc2\xb7\xc2\xb7\xc2\xb7\xc2\xb7S\xc2\xb7" size="2" pos="66" show="\xc2\xb7\xc2\xb7\xc2\xb7\xc2\xb7\xc2\xb7\xc2\xb7\xc2\xb7\xc2\xb7\xc2\xb7\xc2\xb7S\xc2\xb7" value="6002"/>
    </field>
    <field name="tcp.window_size_value" showname="Window size value: 28800" size="2" pos="68" show="28800" value="7080"/>
    <field name="tcp.window_size" showname="Calculated window size: 28800" size="2" pos="68" show="28800" value="7080"/>
    <field name="tcp.checksum" showname="Checksum: 0x4f90 [unverified]" size="2" pos="70" show="0x00004f90" value="4f90"/>
    <field name="tcp.checksum.status" showname="Checksum Status: Unverified" size="0" pos="70" show="2"/>
    <field name="tcp.urgent_pointer" showname="Urgent pointer: 0" size="2" pos="72" show="0" value="0000"/>
    <field name="tcp.options" showname="Options: (4 bytes), Maximum segment size" size="4" pos="74" show="02:04:05:a0" value="020405a0">
      <field name="tcp.options.mss" showname="TCP Option - Maximum segment size: 1440 bytes" size="4" pos="74" show="02:04:05:a0" value="020405a0">
        <field name="tcp.option_kind" showname="Kind: Maximum Segment Size (2)" size="1" pos="74" show="2" value="02"/>
        <field name="tcp.option_len" showname="Length: 4" size="1" pos="75" show="4" value="04"/>
        <field name="tcp.options.mss_val" showname="MSS Value: 1440" size="2" pos="76" show="1440" value="05a0"/>
      </field>
    </field>
    <field name="" show="Timestamps" size="0" pos="54">
      <field name="tcp.time_relative" showname="Time since first frame in this TCP stream: 0.000000000 seconds" size="0" pos="54" show="0.000000000"/>
      <field name="tcp.time_delta" showname="Time since previous frame in this TCP stream: 0.000000000 seconds" size="0" pos="54" show="0.000000000"/>
    </field>
  </proto>
</packet>


<packet>
  <proto name="geninfo" pos="0" showname="General information" size="78">
    <field name="num" pos="0" show="2" showname="Number" value="2" size="78"/>
    <field name="len" pos="0" show="78" showname="Frame Length" value="4e" size="78"/>
    <field name="caplen" pos="0" show="78" showname="Captured Length" value="4e" size="78"/>
    <field name="timestamp" pos="0" show="Oct 25, 2018 17:26:22.344761000 CEST" showname="Captured Time" value="1540481182.344761000" size="78"/>
  </proto>
  <proto name="frame" showname="Frame 2: 78 bytes on wire (624 bits), 78 bytes captured (624 bits)" size="78" pos="0">
    <field name="filtered" value="frame" />
  </proto>
  <proto name="eth" showname="Ethernet II, Src: 36:66:93:b9:6c:1a, Dst: 26:71:ff:fe:ec:1d" size="14" pos="0">
    <field name="filtered" value="eth" />
  </proto>
  <proto name="ipv6" showname="Internet Protocol Version 6, Src: 2001:7ab:3::c, Dst: 2001:7ab:1::a" size="40" pos="14">
    <field name="filtered" value="ipv6" />
  </proto>
  <proto name="tcp" showname="Transmission Control Protocol, Src Port: 1234, Dst Port: 53706, Seq: 3658695655, Ack: 925123580, Len: 0" size="24" pos="54">
    <field name="tcp.srcport" showname="Source Port: 1234" size="2" pos="54" show="1234" value="04d2"/>
    <field name="tcp.dstport" showname="Destination Port: 53706" size="2" pos="56" show="53706" value="d1ca"/>
    <field name="tcp.port" showname="Source or Destination Port: 1234" hide="yes" size="2" pos="54" show="1234" value="04d2"/>
    <field name="tcp.port" showname="Source or Destination Port: 53706" hide="yes" size="2" pos="56" show="53706" value="d1ca"/>
    <field name="tcp.stream" showname="Stream index: 0" size="0" pos="54" show="0"/>
    <field name="tcp.len" showname="TCP Segment Len: 0" size="1" pos="66" show="0" value="60"/>
    <field name="tcp.seq" showname="Sequence number: 3658695655" size="4" pos="58" show="3658695655" value="da1343e7"/>
    <field name="tcp.nxtseq" showname="Next sequence number: 3658695655" size="0" pos="54" show="3658695655"/>
    <field name="tcp.ack" showname="Acknowledgment number: 925123580" size="4" pos="62" show="925123580" value="372443fc"/>
    <field name="tcp.hdr_len" showname="0110 .... = Header Length: 24 bytes (6)" size="1" pos="66" show="24" value="60"/>
    <field name="tcp.flags" showname="Flags: 0x012 (SYN, ACK)" size="2" pos="66" show="0x00000012" value="12" unmaskedvalue="6012">
      <field name="tcp.flags.res" showname="000. .... .... = Reserved: Not set" size="1" pos="66" show="0" value="0" unmaskedvalue="60"/>
      <field name="tcp.flags.ns" showname="...0 .... .... = Nonce: Not set" size="1" pos="66" show="0" value="0" unmaskedvalue="60"/>
      <field name="tcp.flags.cwr" showname=".... 0... .... = Congestion Window Reduced (CWR): Not set" size="1" pos="67" show="0" value="0" unmaskedvalue="12"/>
      <field name="tcp.flags.ecn" showname=".... .0.. .... = ECN-Echo: Not set" size="1" pos="67" show="0" value="0" unmaskedvalue="12"/>
      <field name="tcp.flags.urg" showname=".... ..0. .... = Urgent: Not set" size="1" pos="67" show="0" value="0" unmaskedvalue="12"/>
      <field name="tcp.flags.ack" showname=".... ...1 .... = Acknowledgment: Set" size="1" pos="67" show="1" value="1" unmaskedvalue="12"/>
      <field name="tcp.flags.push" showname=".... .... 0... = Push: Not set" size="1" pos="67" show="0" value="0" unmaskedvalue="12"/>
      <field name="tcp.flags.reset" showname=".... .... .0.. = Reset: Not set" size="1" pos="67" show="0" value="0" unmaskedvalue="12"/>
      <field name="tcp.flags.syn" showname=".... .... ..1. = Syn: Set" size="1" pos="67" show="1" value="1" unmaskedvalue="12">
        <field name="_ws.expert" showname="Expert Info (Chat/Sequence): Connection establish acknowledge (SYN+ACK): server port 1234" size="0" pos="67">
          <field name="tcp.connection.sack" showname="Connection establish acknowledge (SYN+ACK): server port 1234" size="0" pos="0" show="" value=""/>
          <field name="_ws.expert.message" showname="Message: Connection establish acknowledge (SYN+ACK): server port 1234" hide="yes" size="0" pos="0" show="Connection establish acknowledge (SYN+ACK): server port 1234"/>
          <field name="_ws.expert.severity" showname="Severity level: Chat" size="0" pos="0" show="2097152"/>
          <field name="_ws.expert.group" showname="Group: Sequence" size="0" pos="0" show="33554432"/>
        </field>
      </field>
      <field name="tcp.flags.fin" showname=".... .... ...0 = Fin: Not set" size="1" pos="67" show="0" value="0" unmaskedvalue="12"/>
      <field name="tcp.flags.str" showname="TCP Flags: \xc2\xb7\xc2\xb7\xc2\xb7\xc2\xb7\xc2\xb7\xc2\xb7\xc2\xb7A\xc2\xb7\xc2\xb7S\xc2\xb7" size="2" pos="66" show="\xc2\xb7\xc2\xb7\xc2\xb7\xc2\xb7\xc2\xb7\xc2\xb7\xc2\xb7A\xc2\xb7\xc2\xb7S\xc2\xb7" value="6012"/>
    </field>
    <field name="tcp.window_size_value" showname="Window size value: 28800" size="2" pos="68" show="28800" value="7080"/>
    <field name="tcp.window_size" showname="Calculated window size: 28800" size="2" pos="68" show="28800" value="7080"/>
    <field name="tcp.checksum" showname="Checksum: 0x4f90 [unverified]" size="2" pos="70" show="0x00004f90" value="4f90"/>
    <field name="tcp.checksum.status" showname="Checksum Status: Unverified" size="0" pos="70" show="2"/>
    <field name="tcp.urgent_pointer" showname="Urgent pointer: 0" size="2" pos="72" show="0" value="0000"/>
    <field name="tcp.options" showname="Options: (4 bytes), Maximum segment size" size="4" pos="74" show="02:04:05:a0" value="020405a0">
      <field name="tcp.options.mss" showname="TCP Option - Maximum segment size: 1440 bytes" size="4" pos="74" show="02:04:05:a0" value="020405a0">
        <field name="tcp.option_kind" showname="Kind: Maximum Segment Size (2)" size="1" pos="74" show="2" value="02"/>
        <field name="tcp.option_len" showname="Length: 4" size="1" pos="75" show="4" value="04"/>
        <field name="tcp.options.mss_val" showname="MSS Value: 1440" size="2" pos="76" show="1440" value="05a0"/>
      </field>
    </field>
    <field name="tcp.analysis" showname="SEQ/ACK analysis" size="0" pos="54" show="" value="">
      <field name="tcp.analysis.acks_frame" showname="This is an ACK to the segment in frame: 1" size="0" pos="54" show="1"/>
      <field name="tcp.analysis.ack_rtt" showname="The RTT to ACK the segment was: 0.000021000 seconds" size="0" pos="54" show="0.000021000"/>
    </field>
    <field name="" show="Timestamps" size="0" pos="54">
      <field name="tcp.time_relative" showname="Time since first frame in this TCP stream: 0.000021000 seconds" size="0" pos="54" show="0.000021000"/>
      <field name="tcp.time_delta" showname="Time since previous frame in this TCP stream: 0.000021000 seconds" size="0" pos="54" show="0.000021000"/>
    </field>
  </proto>
</packet>


<packet>
  <proto name="geninfo" pos="0" showname="General information" size="74">
    <field name="num" pos="0" show="3" showname="Number" value="3" size="74"/>
    <field name="len" pos="0" show="74" showname="Frame Length" value="4a" size="74"/>
    <field name="caplen" pos="0" show="74" showname="Captured Length" value="4a" size="74"/>
    <field name="timestamp" pos="0" show="Oct 25, 2018 17:26:22.344791000 CEST" showname="Captured Time" value="1540481182.344791000" size="74"/>
  </proto>
  <proto name="frame" showname="Frame 3: 74 bytes on wire (592 bits), 74 bytes captured (592 bits)" size="74" pos="0">
    <field name="filtered" value="frame" />
  </proto>
  <proto name="eth" showname="Ethernet II, Src: 26:71:ff:fe:ec:1d, Dst: 36:66:93:b9:6c:1a" size="14" pos="0">
    <field name="filtered" value="eth" />
  </proto>
  <proto name="ipv6" showname="Internet Protocol Version 6, Src: 2001:7ab:1::a, Dst: 2001:7ab:3::c" size="40" pos="14">
    <field name="filtered" value="ipv6" />
  </proto>
  <proto name="tcp" showname="Transmission Control Protocol, Src Port: 53706, Dst Port: 1234, Seq: 925123580, Ack: 3658695656, Len: 0" size="20" pos="54">
    <field name="tcp.srcport" showname="Source Port: 53706" size="2" pos="54" show="53706" value="d1ca"/>
    <field name="tcp.dstport" showname="Destination Port: 1234" size="2" pos="56" show="1234" value="04d2"/>
    <field name="tcp.port" showname="Source or Destination Port: 53706" hide="yes" size="2" pos="54" show="53706" value="d1ca"/>
    <field name="tcp.port" showname="Source or Destination Port: 1234" hide="yes" size="2" pos="56" show="1234" value="04d2"/>
    <field name="tcp.stream" showname="Stream index: 0" size="0" pos="54" show="0"/>
    <field name="tcp.len" showname="TCP Segment Len: 0" size="1" pos="66" show="0" value="50"/>
    <field name="tcp.seq" showname="Sequence number: 925123580" size="4" pos="58" show="925123580" value="372443fc"/>
    <field name="tcp.nxtseq" showname="Next sequence number: 925123580" size="0" pos="54" show="925123580"/>
    <field name="tcp.ack" showname="Acknowledgment number: 3658695656" size="4" pos="62" show="3658695656" value="da1343e8"/>
    <field name="tcp.hdr_len" showname="0101 .... = Header Length: 20 bytes (5)" size="1" pos="66" show="20" value="50"/>
    <field name="tcp.flags" showname="Flags: 0x010 (ACK)" size="2" pos="66" show="0x00000010" value="10" unmaskedvalue="5010">
      <field name="tcp.flags.res" showname="000. .... .... = Reserved: Not set" size="1" pos="66" show="0" value="0" unmaskedvalue="50"/>
      <field name="tcp.flags.ns" showname="...0 .... .... = Nonce: Not set" size="1" pos="66" show="0" value="0" unmaskedvalue="50"/>
      <field name="tcp.flags.cwr" showname=".... 0... .... = Congestion Window Reduced (CWR): Not set" size="1" pos="67" show="0" value="0" unmaskedvalue="10"/>
      <field name="tcp.flags.ecn" showname=".... .0.. .... = ECN-Echo: Not set" size="1" pos="67" show="0" value="0" unmaskedvalue="10"/>
      <field name="tcp.flags.urg" showname=".... ..0. .... = Urgent: Not set" size="1" pos="67" show="0" value="0" unmaskedvalue="10"/>
      <field name="tcp.flags.ack" showname=".... ...1 .... = Acknowledgment: Set" size="1" pos="67" show="1" value="1" unmaskedvalue="10"/>
      <field name="tcp.flags.push" showname=".... .... 0... = Push: Not set" size="1" pos="67" show="0" value="0" unmaskedvalue="10"/>
      <field name="tcp.flags.reset" showname=".... .... .0.. = Reset: Not set" size="1" pos="67" show="0" value="0" unmaskedvalue="10"/>
      <field name="tcp.flags.syn" showname=".... .... ..0. = Syn: Not set" size="1" pos="67" show="0" value="0" unmaskedvalue="10"/>
      <field name="tcp.flags.fin" showname=".... .... ...0 = Fin: Not set" size="1" pos="67" show="0" value="0" unmaskedvalue="10"/>
      <field name="tcp.flags.str" showname="TCP Flags: \xc2\xb7\xc2\xb7\xc2\xb7\xc2\xb7\xc2\xb7\xc2\xb7\xc2\xb7A\xc2\xb7\xc2\xb7\xc2\xb7\xc2\xb7" size="2" pos="66" show="\xc2\xb7\xc2\xb7\xc2\xb7\xc2\xb7\xc2\xb7\xc2\xb7\xc2\xb7A\xc2\xb7\xc2\xb7\xc2\xb7\xc2\xb7" value="5010"/>
    </field>
    <field name="tcp.window_size_value" showname="Window size value: 28800" size="2" pos="68" show="28800" value="7080"/>
    <field name="tcp.window_size" showname="Calculated window size: 28800" size="2" pos="68" show="28800" value="7080"/>
    <field name="tcp.window_size_scalefactor" showname="Window size scaling factor: -2 (no window scaling used)" size="2" pos="68" show="-2" value="7080"/>
    <field name="tcp.checksum" showname="Checksum: 0x4f8c [unverified]" size="2" pos="70" show="0x00004f8c" value="4f8c"/>
    <field name="tcp.checksum.status" showname="Checksum Status: Unverified" size="0" pos="70" show="2"/>
    <field name="tcp.urgent_pointer" showname="Urgent pointer: 0" size="2" pos="72" show="0" value="0000"/>
    <field name="tcp.analysis" showname="SEQ/ACK analysis" size="0" pos="54" show="" value="">
      <field name="tcp.analysis.acks_frame" showname="This is an ACK to the segment in frame: 2" size="0" pos="54" show="2"/>
      <field name="tcp.analysis.ack_rtt" showname="The RTT to ACK the segment was: 0.000030000 seconds" size="0" pos="54" show="0.000030000"/>
      <field name="tcp.analysis.initial_rtt" showname="iRTT: 0.000051000 seconds" size="0" pos="54" show="0.000051000"/>
    </field>
    <field name="" show="Timestamps" size="0" pos="54">
      <field name="tcp.time_relative" showname="Time since first frame in this TCP stream: 0.000051000 seconds" size="0" pos="54" show="0.000051000"/>
      <field name="tcp.time_delta" showname="Time since previous frame in this TCP stream: 0.000030000 seconds" size="0" pos="54" show="0.000030000"/>
    </field>
  </proto>
</packet>


<packet>
  <proto name="geninfo" pos="0" showname="General information" size="76">
    <field name="num" pos="0" show="4" showname="Number" value="4" size="76"/>
    <field name="len" pos="0" show="76" showname="Frame Length" value="4c" size="76"/>
    <field name="caplen" pos="0" show="76" showname="Captured Length" value="4c" size="76"/>
    <field name="timestamp" pos="0" show="Oct 25, 2018 17:26:23.838664000 CEST" showname="Captured Time" value="1540481183.838664000" size="76"/>
  </proto>
  <proto name="frame" showname="Frame 4: 76 bytes on wire (608 bits), 76 bytes captured (608 bits)" size="76" pos="0">
    <field name="filtered" value="frame" />
  </proto>
  <proto name="eth" showname="Ethernet II, Src: 26:71:ff:fe:ec:1d, Dst: 36:66:93:b9:6c:1a" size="14" pos="0">
    <field name="filtered" value="eth" />
  </proto>
  <proto name="ipv6" showname="Internet Protocol Version 6, Src: 2001:7ab:1::a, Dst: 2001:7ab:3::c" size="40" pos="14">
    <field name="filtered" value="ipv6" />
  </proto>
  <proto name="tcp" showname="Transmission Control Protocol, Src Port: 53706, Dst Port: 1234, Seq: ????, Ack: 3658695656, Len: 2" size="20" pos="54">
    <field name="tcp.srcport" showname="Source Port: 53706" size="2" pos="54" show="53706" value="d1ca"/>
    <field name="tcp.dstport" showname="Destination Port: 1234" size="2" pos="56" show="1234" value="04d2"/>
    <field name="tcp.port" showname="Source or Destination Port: 53706" hide="yes" size="2" pos="54" show="53706" value="d1ca"/>
    <field name="tcp.port" showname="Source or Destination Port: 1234" hide="yes" size="2" pos="56" show="1234" value="04d2"/>
    <field name="tcp.stream" showname="Stream index: 0" size="0" pos="54" show="0"/>
    <field name="tcp.len" showname="TCP Segment Len: 2" size="1" pos="66" show="2" value="50"/>
    <field name="tcp.seq" showname="Sequence number: 925123580" size="4" pos="58" show="925123580" value="372443fc"/>
    <field name="tcp.nxtseq" showname="Next sequence number: 925123582" size="0" pos="54" show="925123582"/>
    <field name="tcp.ack" showname="Acknowledgment number: 3658695656" size="4" pos="62" show="3658695656" value="da1343e8"/>
    <field name="tcp.hdr_len" showname="0101 .... = Header Length: 20 bytes (5)" size="1" pos="66" show="20" value="50"/>
    <field name="tcp.flags" showname="Flags: 0x018 (PSH, ACK)" size="2" pos="66" show="0x00000018" value="18" unmaskedvalue="5018">
      <field name="tcp.flags.res" showname="000. .... .... = Reserved: Not set" size="1" pos="66" show="0" value="0" unmaskedvalue="50"/>
      <field name="tcp.flags.ns" showname="...0 .... .... = Nonce: Not set" size="1" pos="66" show="0" value="0" unmaskedvalue="50"/>
      <field name="tcp.flags.cwr" showname=".... 0... .... = Congestion Window Reduced (CWR): Not set" size="1" pos="67" show="0" value="0" unmaskedvalue="18"/>
      <field name="tcp.flags.ecn" showname=".... .0.. .... = ECN-Echo: Not set" size="1" pos="67" show="0" value="0" unmaskedvalue="18"/>
      <field name="tcp.flags.urg" showname=".... ..0. .... = Urgent: Not set" size="1" pos="67" show="0" value="0" unmaskedvalue="18"/>
      <field name="tcp.flags.ack" showname=".... ...1 .... = Acknowledgment: Set" size="1" pos="67" show="1" value="1" unmaskedvalue="18"/>
      <field name="tcp.flags.push" showname=".... .... 1... = Push: Set" size="1" pos="67" show="1" value="1" unmaskedvalue="18"/>
      <field name="tcp.flags.reset" showname=".... .... .0.. = Reset: Not set" size="1" pos="67" show="0" value="0" unmaskedvalue="18"/>
      <field name="tcp.flags.syn" showname=".... .... ..0. = Syn: Not set" size="1" pos="67" show="0" value="0" unmaskedvalue="18"/>
      <field name="tcp.flags.fin" showname=".... .... ...0 = Fin: Not set" size="1" pos="67" show="0" value="0" unmaskedvalue="18"/>
      <field name="tcp.flags.str" showname="TCP Flags: \xc2\xb7\xc2\xb7\xc2\xb7\xc2\xb7\xc2\xb7\xc2\xb7\xc2\xb7AP\xc2\xb7\xc2\xb7\xc2\xb7" size="2" pos="66" show="\xc2\xb7\xc2\xb7\xc2\xb7\xc2\xb7\xc2\xb7\xc2\xb7\xc2\xb7AP\xc2\xb7\xc2\xb7\xc2\xb7" value="5018"/>
    </field>
    <field name="tcp.window_size_value" showname="Window size value: 28800" size="2" pos="68" show="28800" value="7080"/>
    <field name="tcp.window_size" showname="Calculated window size: 28800" size="2" pos="68" show="28800" value="7080"/>
    <field name="tcp.window_size_scalefactor" showname="Window size scaling factor: -2 (no window scaling used)" size="2" pos="68" show="-2" value="7080"/>
    <field name="tcp.checksum" showname="Checksum: 0x4f8e [unverified]" size="2" pos="70" show="0x00004f8e" value="4f8e"/>
    <field name="tcp.checksum.status" showname="Checksum Status: Unverified" size="0" pos="70" show="2"/>
    <field name="tcp.urgent_pointer" showname="Urgent pointer: 0" size="2" pos="72" show="0" value="0000"/>
    <field name="tcp.analysis" showname="SEQ/ACK analysis" size="0" pos="54" show="" value="">
      <field name="tcp.analysis.initial_rtt" showname="iRTT: 0.000051000 seconds" size="0" pos="54" show="0.000051000"/>
      <field name="tcp.analysis.bytes_in_flight" showname="Bytes in flight: 2" size="0" pos="54" show="2"/>
      <field name="tcp.analysis.push_bytes_sent" showname="Bytes sent since last PSH flag: 2" size="0" pos="54" show="2"/>
    </field>
    <field name="" show="Timestamps" size="0" pos="54">
      <field name="tcp.time_relative" showname="Time since first frame in this TCP stream: 1.493924000 seconds" size="0" pos="54" show="1.493924000"/>
      <field name="tcp.time_delta" showname="Time since previous frame in this TCP stream: 1.493873000 seconds" size="0" pos="54" show="1.493873000"/>
    </field>
    <field name="tcp.payload" showname="TCP payload (2 bytes)" size="2" pos="74" show="61:0a" value="610a"/>
  </proto>
  <proto name="fake-field-wrapper">
    <field name="data" value="610a">
      <field name="filtered" value="data" />
  </field>
  </proto>
</packet>


<packet>
  <proto name="geninfo" pos="0" showname="General information" size="74">
    <field name="num" pos="0" show="5" showname="Number" value="5" size="74"/>
    <field name="len" pos="0" show="74" showname="Frame Length" value="4a" size="74"/>
    <field name="caplen" pos="0" show="74" showname="Captured Length" value="4a" size="74"/>
    <field name="timestamp" pos="0" show="Oct 25, 2018 17:26:23.838678000 CEST" showname="Captured Time" value="1540481183.838678000" size="74"/>
  </proto>
  <proto name="frame" showname="Frame 5: 74 bytes on wire (592 bits), 74 bytes captured (592 bits)" size="74" pos="0">
    <field name="filtered" value="frame" />
  </proto>
  <proto name="eth" showname="Ethernet II, Src: 36:66:93:b9:6c:1a, Dst: 26:71:ff:fe:ec:1d" size="14" pos="0">
    <field name="filtered" value="eth" />
  </proto>
  <proto name="ipv6" showname="Internet Protocol Version 6, Src: 2001:7ab:3::c, Dst: 2001:7ab:1::a" size="40" pos="14">
    <field name="filtered" value="ipv6" />
  </proto>
  <proto name="tcp" showname="Transmission Control Protocol, Src Port: 1234, Dst Port: 53706, Seq: 3658695656, Ack: 925123582, Len: 0" size="20" pos="54">
    <field name="tcp.srcport" showname="Source Port: 1234" size="2" pos="54" show="1234" value="04d2"/>
    <field name="tcp.dstport" showname="Destination Port: 53706" size="2" pos="56" show="53706" value="d1ca"/>
    <field name="tcp.port" showname="Source or Destination Port: 1234" hide="yes" size="2" pos="54" show="1234" value="04d2"/>
    <field name="tcp.port" showname="Source or Destination Port: 53706" hide="yes" size="2" pos="56" show="53706" value="d1ca"/>
    <field name="tcp.stream" showname="Stream index: 0" size="0" pos="54" show="0"/>
    <field name="tcp.len" showname="TCP Segment Len: 0" size="1" pos="66" show="0" value="50"/>
    <field name="tcp.seq" showname="Sequence number: 3658695656" size="4" pos="58" show="3658695656" value="da1343e8"/>
    <field name="tcp.nxtseq" showname="Next sequence number: 3658695656" size="0" pos="54" show="3658695656"/>
    <field name="tcp.ack" showname="Acknowledgment number: 925123582" size="4" pos="62" show="925123582" value="372443fe"/>
    <field name="tcp.hdr_len" showname="0101 .... = Header Length: 20 bytes (5)" size="1" pos="66" show="20" value="50"/>
    <field name="tcp.flags" showname="Flags: 0x010 (ACK)" size="2" pos="66" show="0x00000010" value="10" unmaskedvalue="5010">
      <field name="tcp.flags.res" showname="000. .... .... = Reserved: Not set" size="1" pos="66" show="0" value="0" unmaskedvalue="50"/>
      <field name="tcp.flags.ns" showname="...0 .... .... = Nonce: Not set" size="1" pos="66" show="0" value="0" unmaskedvalue="50"/>
      <field name="tcp.flags.cwr" showname=".... 0... .... = Congestion Window Reduced (CWR): Not set" size="1" pos="67" show="0" value="0" unmaskedvalue="10"/>
      <field name="tcp.flags.ecn" showname=".... .0.. .... = ECN-Echo: Not set" size="1" pos="67" show="0" value="0" unmaskedvalue="10"/>
      <field name="tcp.flags.urg" showname=".... ..0. .... = Urgent: Not set" size="1" pos="67" show="0" value="0" unmaskedvalue="10"/>
      <field name="tcp.flags.ack" showname=".... ...1 .... = Acknowledgment: Set" size="1" pos="67" show="1" value="1" unmaskedvalue="10"/>
      <field name="tcp.flags.push" showname=".... .... 0... = Push: Not set" size="1" pos="67" show="0" value="0" unmaskedvalue="10"/>
      <field name="tcp.flags.reset" showname=".... .... .0.. = Reset: Not set" size="1" pos="67" show="0" value="0" unmaskedvalue="10"/>
      <field name="tcp.flags.syn" showname=".... .... ..0. = Syn: Not set" size="1" pos="67" show="0" value="0" unmaskedvalue="10"/>
      <field name="tcp.flags.fin" showname=".... .... ...0 = Fin: Not set" size="1" pos="67" show="0" value="0" unmaskedvalue="10"/>
      <field name="tcp.flags.str" showname="TCP Flags: \xc2\xb7\xc2\xb7\xc2\xb7\xc2\xb7\xc2\xb7\xc2\xb7\xc2\xb7A\xc2\xb7\xc2\xb7\xc2\xb7\xc2\xb7" size="2" pos="66" show="\xc2\xb7\xc2\xb7\xc2\xb7\xc2\xb7\xc2\xb7\xc2\xb7\xc2\xb7A\xc2\xb7\xc2\xb7\xc2\xb7\xc2\xb7" value="5010"/>
    </field>
    <field name="tcp.window_size_value" showname="Window size value: 28800" size="2" pos="68" show="28800" value="7080"/>
    <field name="tcp.window_size" showname="Calculated window size: 28800" size="2" pos="68" show="28800" value="7080"/>
    <field name="tcp.window_size_scalefactor" showname="Window size scaling factor: -2 (no window scaling used)" size="2" pos="68" show="-2" value="7080"/>
    <field name="tcp.checksum" showname="Checksum: 0x4f8c [unverified]" size="2" pos="70" show="0x00004f8c" value="4f8c"/>
    <field name="tcp.checksum.status" showname="Checksum Status: Unverified" size="0" pos="70" show="2"/>
    <field name="tcp.urgent_pointer" showname="Urgent pointer: 0" size="2" pos="72" show="0" value="0000"/>
    <field name="tcp.analysis" showname="SEQ/ACK analysis" size="0" pos="54" show="" value="">
      <field name="tcp.analysis.acks_frame" showname="This is an ACK to the segment in frame: 4" size="0" pos="54" show="4"/>
      <field name="tcp.analysis.ack_rtt" showname="The RTT to ACK the segment was: 0.000014000 seconds" size="0" pos="54" show="0.000014000"/>
      <field name="tcp.analysis.initial_rtt" showname="iRTT: 0.000051000 seconds" size="0" pos="54" show="0.000051000"/>
    </field>
    <field name="" show="Timestamps" size="0" pos="54">
      <field name="tcp.time_relative" showname="Time since first frame in this TCP stream: 1.493938000 seconds" size="0" pos="54" show="1.493938000"/>
      <field name="tcp.time_delta" showname="Time since previous frame in this TCP stream: 0.000014000 seconds" size="0" pos="54" show="0.000014000"/>
    </field>
  </proto>
</packet>


<packet>
  <proto name="geninfo" pos="0" showname="General information" size="77">
    <field name="num" pos="0" show="6" showname="Number" value="6" size="77"/>
    <field name="len" pos="0" show="77" showname="Frame Length" value="4d" size="77"/>
    <field name="caplen" pos="0" show="77" showname="Captured Length" value="4d" size="77"/>
    <field name="timestamp" pos="0" show="Oct 25, 2018 17:26:24.799143000 CEST" showname="Captured Time" value="1540481184.799143000" size="77"/>
  </proto>
  <proto name="frame" showname="Frame 6: 77 bytes on wire (616 bits), 77 bytes captured (616 bits)" size="77" pos="0">
    <field name="filtered" value="frame" />
  </proto>
  <proto name="eth" showname="Ethernet II, Src: 26:71:ff:fe:ec:1d, Dst: 36:66:93:b9:6c:1a" size="14" pos="0">
    <field name="filtered" value="eth" />
  </proto>
  <proto name="ipv6" showname="Internet Protocol Version 6, Src: 2001:7ab:1::a, Dst: 2001:7ab:3::c" size="40" pos="14">
    <field name="filtered" value="ipv6" />
  </proto>
  <proto name="tcp" showname="Transmission Control Protocol, Src Port: 53706, Dst Port: 1234, Seq: ????, Ack: 3658695656, Len: 3" size="20" pos="54">
    <field name="tcp.srcport" showname="Source Port: 53706" size="2" pos="54" show="53706" value="d1ca"/>
    <field name="tcp.dstport" showname="Destination Port: 1234" size="2" pos="56" show="1234" value="04d2"/>
    <field name="tcp.port" showname="Source or Destination Port: 53706" hide="yes" size="2" pos="54" show="53706" value="d1ca"/>
    <field name="tcp.port" showname="Source or Destination Port: 1234" hide="yes" size="2" pos="56" show="1234" value="04d2"/>
    <field name="tcp.stream" showname="Stream index: 0" size="0" pos="54" show="0"/>
    <field name="tcp.len" showname="TCP Segment Len: 3" size="1" pos="66" show="3" value="50"/>
    <field name="tcp.seq" showname="Sequence number: 925123582" size="4" pos="58" show="925123582" value="372443fe"/>
    <field name="tcp.nxtseq" showname="Next sequence number: 925123585" size="0" pos="54" show="925123585"/>
    <field name="tcp.ack" showname="Acknowledgment number: 3658695656" size="4" pos="62" show="3658695656" value="da1343e8"/>
    <field name="tcp.hdr_len" showname="0101 .... = Header Length: 20 bytes (5)" size="1" pos="66" show="20" value="50"/>
    <field name="tcp.flags" showname="Flags: 0x018 (PSH, ACK)" size="2" pos="66" show="0x00000018" value="18" unmaskedvalue="5018">
      <field name="tcp.flags.res" showname="000. .... .... = Reserved: Not set" size="1" pos="66" show="0" value="0" unmaskedvalue="50"/>
      <field name="tcp.flags.ns" showname="...0 .... .... = Nonce: Not set" size="1" pos="66" show="0" value="0" unmaskedvalue="50"/>
      <field name="tcp.flags.cwr" showname=".... 0... .... = Congestion Window Reduced (CWR): Not set" size="1" pos="67" show="0" value="0" unmaskedvalue="18"/>
      <field name="tcp.flags.ecn" showname=".... .0.. .... = ECN-Echo: Not set" size="1" pos="67" show="0" value="0" unmaskedvalue="18"/>
      <field name="tcp.flags.urg" showname=".... ..0. .... = Urgent: Not set" size="1" pos="67" show="0" value="0" unmaskedvalue="18"/>
      <field name="tcp.flags.ack" showname=".... ...1 .... = Acknowledgment: Set" size="1" pos="67" show="1" value="1" unmaskedvalue="18"/>
      <field name="tcp.flags.push" showname=".... .... 1... = Push: Set" size="1" pos="67" show="1" value="1" unmaskedvalue="18"/>
      <field name="tcp.flags.reset" showname=".... .... .0.. = Reset: Not set" size="1" pos="67" show="0" value="0" unmaskedvalue="18"/>
      <field name="tcp.flags.syn" showname=".... .... ..0. = Syn: Not set" size="1" pos="67" show="0" value="0" unmaskedvalue="18"/>
      <field name="tcp.flags.fin" showname=".... .... ...0 = Fin: Not set" size="1" pos="67" show="0" value="0" unmaskedvalue="18"/>
      <field name="tcp.flags.str" showname="TCP Flags: \xc2\xb7\xc2\xb7\xc2\xb7\xc2\xb7\xc2\xb7\xc2\xb7\xc2\xb7AP\xc2\xb7\xc2\xb7\xc2\xb7" size="2" pos="66" show="\xc2\xb7\xc2\xb7\xc2\xb7\xc2\xb7\xc2\xb7\xc2\xb7\xc2\xb7AP\xc2\xb7\xc2\xb7\xc2\xb7" value="5018"/>
    </field>
    <field name="tcp.window_size_value" showname="Window size value: 28800" size="2" pos="68" show="28800" value="7080"/>
    <field name="tcp.window_size" showname="Calculated window size: 28800" size="2" pos="68" show="28800" value="7080"/>
    <field name="tcp.window_size_scalefactor" showname="Window size scaling factor: -2 (no window scaling used)" size="2" pos="68" show="-2" value="7080"/>
    <field name="tcp.checksum" showname="Checksum: 0x4f8f [unverified]" size="2" pos="70" show="0x00004f8f" value="4f8f"/>
    <field name="tcp.checksum.status" showname="Checksum Status: Unverified" size="0" pos="70" show="2"/>
    <field name="tcp.urgent_pointer" showname="Urgent pointer: 0" size="2" pos="72" show="0" value="0000"/>
    <field name="tcp.analysis" showname="SEQ/ACK analysis" size="0" pos="54" show="" value="">
      <field name="tcp.analysis.initial_rtt" showname="iRTT: 0.000051000 seconds" size="0" pos="54" show="0.000051000"/>
      <field name="tcp.analysis.bytes_in_flight" showname="Bytes in flight: 3" size="0" pos="54" show="3"/>
      <field name="tcp.analysis.push_bytes_sent" showname="Bytes sent since last PSH flag: 3" size="0" pos="54" show="3"/>
    </field>
    <field name="" show="Timestamps" size="0" pos="54">
      <field name="tcp.time_relative" showname="Time since first frame in this TCP stream: 2.454403000 seconds" size="0" pos="54" show="2.454403000"/>
      <field name="tcp.time_delta" showname="Time since previous frame in this TCP stream: 0.960465000 seconds" size="0" pos="54" show="0.960465000"/>
    </field>
    <field name="tcp.payload" showname="TCP payload (3 bytes)" size="3" pos="74" show="61:62:0a" value="61620a"/>
  </proto>
  <proto name="fake-field-wrapper">
    <field name="data" value="61620a">
      <field name="filtered" value="data" />
  </field>
  </proto>
</packet>


<packet>
  <proto name="geninfo" pos="0" showname="General information" size="74">
    <field name="num" pos="0" show="7" showname="Number" value="7" size="74"/>
    <field name="len" pos="0" show="74" showname="Frame Length" value="4a" size="74"/>
    <field name="caplen" pos="0" show="74" showname="Captured Length" value="4a" size="74"/>
    <field name="timestamp" pos="0" show="Oct 25, 2018 17:26:24.799152000 CEST" showname="Captured Time" value="1540481184.799152000" size="74"/>
  </proto>
  <proto name="frame" showname="Frame 7: 74 bytes on wire (592 bits), 74 bytes captured (592 bits)" size="74" pos="0">
    <field name="filtered" value="frame" />
  </proto>
  <proto name="eth" showname="Ethernet II, Src: 36:66:93:b9:6c:1a, Dst: 26:71:ff:fe:ec:1d" size="14" pos="0">
    <field name="filtered" value="eth" />
  </proto>
  <proto name="ipv6" showname="Internet Protocol Version 6, Src: 2001:7ab:3::c, Dst: 2001:7ab:1::a" size="40" pos="14">
    <field name="filtered" value="ipv6" />
  </proto>
  <proto name="tcp" showname="Transmission Control Protocol, Src Port: 1234, Dst Port: 53706, Seq: 3658695656, Ack: 925123585, Len: 0" size="20" pos="54">
    <field name="tcp.srcport" showname="Source Port: 1234" size="2" pos="54" show="1234" value="04d2"/>
    <field name="tcp.dstport" showname="Destination Port: 53706" size="2" pos="56" show="53706" value="d1ca"/>
    <field name="tcp.port" showname="Source or Destination Port: 1234" hide="yes" size="2" pos="54" show="1234" value="04d2"/>
    <field name="tcp.port" showname="Source or Destination Port: 53706" hide="yes" size="2" pos="56" show="53706" value="d1ca"/>
    <field name="tcp.stream" showname="Stream index: 0" size="0" pos="54" show="0"/>
    <field name="tcp.len" showname="TCP Segment Len: 0" size="1" pos="66" show="0" value="50"/>
    <field name="tcp.seq" showname="Sequence number: 3658695656" size="4" pos="58" show="3658695656" value="da1343e8"/>
    <field name="tcp.nxtseq" showname="Next sequence number: 3658695656" size="0" pos="54" show="3658695656"/>
    <field name="tcp.ack" showname="Acknowledgment number: 925123585" size="4" pos="62" show="925123585" value="37244401"/>
    <field name="tcp.hdr_len" showname="0101 .... = Header Length: 20 bytes (5)" size="1" pos="66" show="20" value="50"/>
    <field name="tcp.flags" showname="Flags: 0x010 (ACK)" size="2" pos="66" show="0x00000010" value="10" unmaskedvalue="5010">
      <field name="tcp.flags.res" showname="000. .... .... = Reserved: Not set" size="1" pos="66" show="0" value="0" unmaskedvalue="50"/>
      <field name="tcp.flags.ns" showname="...0 .... .... = Nonce: Not set" size="1" pos="66" show="0" value="0" unmaskedvalue="50"/>
      <field name="tcp.flags.cwr" showname=".... 0... .... = Congestion Window Reduced (CWR): Not set" size="1" pos="67" show="0" value="0" unmaskedvalue="10"/>
      <field name="tcp.flags.ecn" showname=".... .0.. .... = ECN-Echo: Not set" size="1" pos="67" show="0" value="0" unmaskedvalue="10"/>
      <field name="tcp.flags.urg" showname=".... ..0. .... = Urgent: Not set" size="1" pos="67" show="0" value="0" unmaskedvalue="10"/>
      <field name="tcp.flags.ack" showname=".... ...1 .... = Acknowledgment: Set" size="1" pos="67" show="1" value="1" unmaskedvalue="10"/>
      <field name="tcp.flags.push" showname=".... .... 0... = Push: Not set" size="1" pos="67" show="0" value="0" unmaskedvalue="10"/>
      <field name="tcp.flags.reset" showname=".... .... .0.. = Reset: Not set" size="1" pos="67" show="0" value="0" unmaskedvalue="10"/>
      <field name="tcp.flags.syn" showname=".... .... ..0. = Syn: Not set" size="1" pos="67" show="0" value="0" unmaskedvalue="10"/>
      <field name="tcp.flags.fin" showname=".... .... ...0 = Fin: Not set" size="1" pos="67" show="0" value="0" unmaskedvalue="10"/>
      <field name="tcp.flags.str" showname="TCP Flags: \xc2\xb7\xc2\xb7\xc2\xb7\xc2\xb7\xc2\xb7\xc2\xb7\xc2\xb7A\xc2\xb7\xc2\xb7\xc2\xb7\xc2\xb7" size="2" pos="66" show="\xc2\xb7\xc2\xb7\xc2\xb7\xc2\xb7\xc2\xb7\xc2\xb7\xc2\xb7A\xc2\xb7\xc2\xb7\xc2\xb7\xc2\xb7" value="5010"/>
    </field>
    <field name="tcp.window_size_value" showname="Window size value: 28800" size="2" pos="68" show="28800" value="7080"/>
    <field name="tcp.window_size" showname="Calculated window size: 28800" size="2" pos="68" show="28800" value="7080"/>
    <field name="tcp.window_size_scalefactor" showname="Window size scaling factor: -2 (no window scaling used)" size="2" pos="68" show="-2" value="7080"/>
    <field name="tcp.checksum" showname="Checksum: 0x4f8c [unverified]" size="2" pos="70" show="0x00004f8c" value="4f8c"/>
    <field name="tcp.checksum.status" showname="Checksum Status: Unverified" size="0" pos="70" show="2"/>
    <field name="tcp.urgent_pointer" showname="Urgent pointer: 0" size="2" pos="72" show="0" value="0000"/>
    <field name="tcp.analysis" showname="SEQ/ACK analysis" size="0" pos="54" show="" value="">
      <field name="tcp.analysis.acks_frame" showname="This is an ACK to the segment in frame: 6" size="0" pos="54" show="6"/>
      <field name="tcp.analysis.ack_rtt" showname="The RTT to ACK the segment was: 0.000009000 seconds" size="0" pos="54" show="0.000009000"/>
      <field name="tcp.analysis.initial_rtt" showname="iRTT: 0.000051000 seconds" size="0" pos="54" show="0.000051000"/>
    </field>
    <field name="" show="Timestamps" size="0" pos="54">
      <field name="tcp.time_relative" showname="Time since first frame in this TCP stream: 2.454412000 seconds" size="0" pos="54" show="2.454412000"/>
      <field name="tcp.time_delta" showname="Time since previous frame in this TCP stream: 0.000009000 seconds" size="0" pos="54" show="0.000009000"/>
    </field>
  </proto>
</packet>


</pdml>
