<?xml version="1.0" encoding="utf-8"?>
<?xml-stylesheet type="text/xsl" href="pdml2html.xsl"?>
<!-- You can find pdml2html.xsl in /Applications/Wireshark.app/Contents/Resources/share/wireshark or at https://code.wireshark.org/review/gitweb?p=wireshark.git;a=blob_plain;f=pdml2html.xsl. -->
<pdml version="0" creator="wireshark/3.0.1" time="Thu May 16 17:26:30 2019" capture_file="ip6-packet80-86.pcap">
<packet>
  <proto name="geninfo" pos="0" showname="General information" size="70">
    <field name="num" pos="0" show="1" showname="Number" value="1" size="70"/>
    <field name="len" pos="0" show="70" showname="Frame Length" value="46" size="70"/>
    <field name="caplen" pos="0" show="70" showname="Captured Length" value="46" size="70"/>
    <field name="timestamp" pos="0" show="Nov 20, 2018 16:59:31.781586000 CET" showname="Captured Time" value="1542729571.781586000" size="70"/>
  </proto>
  <proto name="frame" showname="Frame 1: 70 bytes on wire (560 bits), 70 bytes captured (560 bits)" size="70" pos="0">
    <field name="filtered" value="frame" />
  </proto>
  <proto name="eth" showname="Ethernet II, Src: 68:5b:35:ad:aa:e1, Dst: 00:1b:21:38:e9:78" size="14" pos="0">
    <field name="filtered" value="eth" />
  </proto>
  <proto name="ipv6" showname="Internet Protocol Version 6, Src: 2001:6a8:308f:2:48e9:95ae:3a92:922d, Dst: 2001:6a8:3081:1::2" size="40" pos="14">
    <field name="ipv6.version" showname="0110 .... = Version: 6" size="1" pos="14" show="6" value="6" unmaskedvalue="60"/>
    <field name="ip.version" showname="0110 .... = Version: 6 [This field makes the filter match on &quot;ip.version == 6&quot; possible]" hide="yes" size="1" pos="14" show="6" value="6" unmaskedvalue="60"/>
    <field name="ipv6.tclass" showname=".... 0000 0000 .... .... .... .... .... = Traffic Class: 0x00 (DSCP: CS0, ECN: Not-ECT)" size="4" pos="14" show="0x00000000" value="0" unmaskedvalue="6006f536">
      <field name="ipv6.tclass.dscp" showname=".... 0000 00.. .... .... .... .... .... = Differentiated Services Codepoint: Default (0)" size="4" pos="14" show="0" value="0" unmaskedvalue="6006f536"/>
      <field name="ipv6.tclass.ecn" showname=".... .... ..00 .... .... .... .... .... = Explicit Congestion Notification: Not ECN-Capable Transport (0)" size="4" pos="14" show="0" value="0" unmaskedvalue="6006f536"/>
    </field>
    <field name="ipv6.flow" showname=".... .... .... 0110 1111 0101 0011 0110 = Flow Label: 0x6f536" size="4" pos="14" show="0x0006f536" value="6F536" unmaskedvalue="6006f536"/>
    <field name="ipv6.plen" showname="Payload Length: 16" size="2" pos="18" show="16" value="0010"/>
    <field name="ipv6.nxt" showname="Next Header: ICMPv6 (58)" size="1" pos="20" show="58" value="3a"/>
    <field name="ipv6.hlim" showname="Hop Limit: 64" size="1" pos="21" show="64" value="40"/>
    <field name="ipv6.src" showname="Source: 2001:6a8:308f:2:48e9:95ae:3a92:922d" size="16" pos="22" show="2001:6a8:308f:2:48e9:95ae:3a92:922d" value="200106a8308f000248e995ae3a92922d"/>
    <field name="ipv6.addr" showname="Source or Destination Address: 2001:6a8:308f:2:48e9:95ae:3a92:922d" hide="yes" size="16" pos="22" show="2001:6a8:308f:2:48e9:95ae:3a92:922d" value="200106a8308f000248e995ae3a92922d"/>
    <field name="ipv6.src_host" showname="Source Host: 2001:6a8:308f:2:48e9:95ae:3a92:922d" hide="yes" size="16" pos="22" show="2001:6a8:308f:2:48e9:95ae:3a92:922d" value="200106a8308f000248e995ae3a92922d"/>
    <field name="ipv6.host" showname="Source or Destination Host: 2001:6a8:308f:2:48e9:95ae:3a92:922d" hide="yes" size="16" pos="22" show="2001:6a8:308f:2:48e9:95ae:3a92:922d" value="200106a8308f000248e995ae3a92922d"/>
    <field name="ipv6.dst" showname="Destination: 2001:6a8:3081:1::2" size="16" pos="38" show="2001:6a8:3081:1::2" value="200106a8308100010000000000000002"/>
    <field name="ipv6.addr" showname="Source or Destination Address: 2001:6a8:3081:1::2" hide="yes" size="16" pos="38" show="2001:6a8:3081:1::2" value="200106a8308100010000000000000002"/>
    <field name="ipv6.dst_host" showname="Destination Host: 2001:6a8:3081:1::2" hide="yes" size="16" pos="38" show="2001:6a8:3081:1::2" value="200106a8308100010000000000000002"/>
    <field name="ipv6.host" showname="Source or Destination Host: 2001:6a8:3081:1::2" hide="yes" size="16" pos="38" show="2001:6a8:3081:1::2" value="200106a8308100010000000000000002"/>
  </proto>
  <proto name="icmpv6" showname="Internet Control Message Protocol v6" size="16" pos="54">
    <field name="icmpv6.type" showname="Type: Echo (ping) request (128)" size="1" pos="54" show="128" value="80"/>
    <field name="icmpv6.code" showname="Code: 0" size="1" pos="55" show="0" value="00"/>
    <field name="icmpv6.checksum" showname="Checksum: 0x7359 [correct]" size="2" pos="56" show="0x00007359" value="7359"/>
    <field name="icmpv6.checksum.status" showname="Checksum Status: Good" size="0" pos="56" show="1"/>
    <field name="icmpv6.echo.identifier" showname="Identifier: 0x3a83" size="2" pos="58" show="0x00003a83" value="3a83"/>
    <field name="icmpv6.echo.sequence_number" showname="Sequence: 2" size="2" pos="60" show="2" value="0002"/>
    <field name="data" value="5bf42f63000becb4">
      <field name="data.data" showname="Data: 5bf42f63000becb4" size="8" pos="62" show="5b:f4:2f:63:00:0b:ec:b4" value="5bf42f63000becb4"/>
      <field name="data.len" showname="Length: 8" size="0" pos="62" show="8"/>
    </field>
  </proto>
</packet>


<packet>
  <proto name="geninfo" pos="0" showname="General information" size="70">
    <field name="num" pos="0" show="2" showname="Number" value="2" size="70"/>
    <field name="len" pos="0" show="70" showname="Frame Length" value="46" size="70"/>
    <field name="caplen" pos="0" show="70" showname="Captured Length" value="46" size="70"/>
    <field name="timestamp" pos="0" show="Nov 20, 2018 16:59:31.782301000 CET" showname="Captured Time" value="1542729571.782301000" size="70"/>
  </proto>
  <proto name="frame" showname="Frame 2: 70 bytes on wire (560 bits), 70 bytes captured (560 bits)" size="70" pos="0">
    <field name="filtered" value="frame" />
  </proto>
  <proto name="eth" showname="Ethernet II, Src: 00:1b:21:38:e9:78, Dst: 68:5b:35:ad:aa:e1" size="14" pos="0">
    <field name="filtered" value="eth" />
  </proto>
  <proto name="ipv6" showname="Internet Protocol Version 6, Src: 2001:6a8:3081:1::2, Dst: 2001:6a8:308f:2:48e9:95ae:3a92:922d" size="40" pos="14">
    <field name="ipv6.version" showname="0110 .... = Version: 6" size="1" pos="14" show="6" value="6" unmaskedvalue="60"/>
    <field name="ip.version" showname="0110 .... = Version: 6 [This field makes the filter match on &quot;ip.version == 6&quot; possible]" hide="yes" size="1" pos="14" show="6" value="6" unmaskedvalue="60"/>
    <field name="ipv6.tclass" showname=".... 0000 0000 .... .... .... .... .... = Traffic Class: 0x00 (DSCP: CS0, ECN: Not-ECT)" size="4" pos="14" show="0x00000000" value="0" unmaskedvalue="6006f536">
      <field name="ipv6.tclass.dscp" showname=".... 0000 00.. .... .... .... .... .... = Differentiated Services Codepoint: Default (0)" size="4" pos="14" show="0" value="0" unmaskedvalue="6006f536"/>
      <field name="ipv6.tclass.ecn" showname=".... .... ..00 .... .... .... .... .... = Explicit Congestion Notification: Not ECN-Capable Transport (0)" size="4" pos="14" show="0" value="0" unmaskedvalue="6006f536"/>
    </field>
    <field name="ipv6.flow" showname=".... .... .... 0110 1111 0101 0011 0110 = Flow Label: 0x6f536" size="4" pos="14" show="0x0006f536" value="6F536" unmaskedvalue="6006f536"/>
    <field name="ipv6.plen" showname="Payload Length: 16" size="2" pos="18" show="16" value="0010"/>
    <field name="ipv6.nxt" showname="Next Header: ICMPv6 (58)" size="1" pos="20" show="58" value="3a"/>
    <field name="ipv6.hlim" showname="Hop Limit: 61" size="1" pos="21" show="61" value="3d"/>
    <field name="ipv6.src" showname="Source: 2001:6a8:3081:1::2" size="16" pos="22" show="2001:6a8:3081:1::2" value="200106a8308100010000000000000002"/>
    <field name="ipv6.addr" showname="Source or Destination Address: 2001:6a8:3081:1::2" hide="yes" size="16" pos="22" show="2001:6a8:3081:1::2" value="200106a8308100010000000000000002"/>
    <field name="ipv6.src_host" showname="Source Host: 2001:6a8:3081:1::2" hide="yes" size="16" pos="22" show="2001:6a8:3081:1::2" value="200106a8308100010000000000000002"/>
    <field name="ipv6.host" showname="Source or Destination Host: 2001:6a8:3081:1::2" hide="yes" size="16" pos="22" show="2001:6a8:3081:1::2" value="200106a8308100010000000000000002"/>
    <field name="ipv6.dst" showname="Destination: 2001:6a8:308f:2:48e9:95ae:3a92:922d" size="16" pos="38" show="2001:6a8:308f:2:48e9:95ae:3a92:922d" value="200106a8308f000248e995ae3a92922d"/>
    <field name="ipv6.addr" showname="Source or Destination Address: 2001:6a8:308f:2:48e9:95ae:3a92:922d" hide="yes" size="16" pos="38" show="2001:6a8:308f:2:48e9:95ae:3a92:922d" value="200106a8308f000248e995ae3a92922d"/>
    <field name="ipv6.dst_host" showname="Destination Host: 2001:6a8:308f:2:48e9:95ae:3a92:922d" hide="yes" size="16" pos="38" show="2001:6a8:308f:2:48e9:95ae:3a92:922d" value="200106a8308f000248e995ae3a92922d"/>
    <field name="ipv6.host" showname="Source or Destination Host: 2001:6a8:308f:2:48e9:95ae:3a92:922d" hide="yes" size="16" pos="38" show="2001:6a8:308f:2:48e9:95ae:3a92:922d" value="200106a8308f000248e995ae3a92922d"/>
  </proto>
  <proto name="icmpv6" showname="Internet Control Message Protocol v6" size="16" pos="54">
    <field name="icmpv6.type" showname="Type: Echo (ping) reply (129)" size="1" pos="54" show="129" value="81"/>
    <field name="icmpv6.code" showname="Code: 0" size="1" pos="55" show="0" value="00"/>
    <field name="icmpv6.checksum" showname="Checksum: 0x7259 [correct]" size="2" pos="56" show="0x00007259" value="7259"/>
    <field name="icmpv6.checksum.status" showname="Checksum Status: Good" size="0" pos="56" show="1"/>
    <field name="icmpv6.echo.identifier" showname="Identifier: 0x3a83" size="2" pos="58" show="0x00003a83" value="3a83"/>
    <field name="icmpv6.echo.sequence_number" showname="Sequence: 2" size="2" pos="60" show="2" value="0002"/>
    <field name="icmpv6.resp_to" showname="Response To: 1" size="0" pos="54" show="1"/>
    <field name="icmpv6.resptime" showname="Response Time: 0.715 ms" size="0" pos="54" show="0.715"/>
    <field name="data" value="5bf42f63000becb4">
      <field name="data.data" showname="Data: 5bf42f63000becb4" size="8" pos="62" show="5b:f4:2f:63:00:0b:ec:b4" value="5bf42f63000becb4"/>
      <field name="data.len" showname="Length: 8" size="0" pos="62" show="8"/>
    </field>
  </proto>
</packet>


<packet>
  <proto name="geninfo" pos="0" showname="General information" size="70">
    <field name="num" pos="0" show="3" showname="Number" value="3" size="70"/>
    <field name="len" pos="0" show="70" showname="Frame Length" value="46" size="70"/>
    <field name="caplen" pos="0" show="70" showname="Captured Length" value="46" size="70"/>
    <field name="timestamp" pos="0" show="Nov 20, 2018 16:59:32.784122000 CET" showname="Captured Time" value="1542729572.784122000" size="70"/>
  </proto>
  <proto name="frame" showname="Frame 3: 70 bytes on wire (560 bits), 70 bytes captured (560 bits)" size="70" pos="0">
    <field name="filtered" value="frame" />
  </proto>
  <proto name="eth" showname="Ethernet II, Src: 68:5b:35:ad:aa:e1, Dst: 00:1b:21:38:e9:78" size="14" pos="0">
    <field name="filtered" value="eth" />
  </proto>
  <proto name="ipv6" showname="Internet Protocol Version 6, Src: 2001:6a8:308f:2:48e9:95ae:3a92:922d, Dst: 2001:6a8:3081:1::2" size="40" pos="14">
    <field name="ipv6.version" showname="0110 .... = Version: 6" size="1" pos="14" show="6" value="6" unmaskedvalue="60"/>
    <field name="ip.version" showname="0110 .... = Version: 6 [This field makes the filter match on &quot;ip.version == 6&quot; possible]" hide="yes" size="1" pos="14" show="6" value="6" unmaskedvalue="60"/>
    <field name="ipv6.tclass" showname=".... 0000 0000 .... .... .... .... .... = Traffic Class: 0x00 (DSCP: CS0, ECN: Not-ECT)" size="4" pos="14" show="0x00000000" value="0" unmaskedvalue="6006f536">
      <field name="ipv6.tclass.dscp" showname=".... 0000 00.. .... .... .... .... .... = Differentiated Services Codepoint: Default (0)" size="4" pos="14" show="0" value="0" unmaskedvalue="6006f536"/>
      <field name="ipv6.tclass.ecn" showname=".... .... ..00 .... .... .... .... .... = Explicit Congestion Notification: Not ECN-Capable Transport (0)" size="4" pos="14" show="0" value="0" unmaskedvalue="6006f536"/>
    </field>
    <field name="ipv6.flow" showname=".... .... .... 0110 1111 0101 0011 0110 = Flow Label: 0x6f536" size="4" pos="14" show="0x0006f536" value="6F536" unmaskedvalue="6006f536"/>
    <field name="ipv6.plen" showname="Payload Length: 16" size="2" pos="18" show="16" value="0010"/>
    <field name="ipv6.nxt" showname="Next Header: ICMPv6 (58)" size="1" pos="20" show="58" value="3a"/>
    <field name="ipv6.hlim" showname="Hop Limit: 64" size="1" pos="21" show="64" value="40"/>
    <field name="ipv6.src" showname="Source: 2001:6a8:308f:2:48e9:95ae:3a92:922d" size="16" pos="22" show="2001:6a8:308f:2:48e9:95ae:3a92:922d" value="200106a8308f000248e995ae3a92922d"/>
    <field name="ipv6.addr" showname="Source or Destination Address: 2001:6a8:308f:2:48e9:95ae:3a92:922d" hide="yes" size="16" pos="22" show="2001:6a8:308f:2:48e9:95ae:3a92:922d" value="200106a8308f000248e995ae3a92922d"/>
    <field name="ipv6.src_host" showname="Source Host: 2001:6a8:308f:2:48e9:95ae:3a92:922d" hide="yes" size="16" pos="22" show="2001:6a8:308f:2:48e9:95ae:3a92:922d" value="200106a8308f000248e995ae3a92922d"/>
    <field name="ipv6.host" showname="Source or Destination Host: 2001:6a8:308f:2:48e9:95ae:3a92:922d" hide="yes" size="16" pos="22" show="2001:6a8:308f:2:48e9:95ae:3a92:922d" value="200106a8308f000248e995ae3a92922d"/>
    <field name="ipv6.dst" showname="Destination: 2001:6a8:3081:1::2" size="16" pos="38" show="2001:6a8:3081:1::2" value="200106a8308100010000000000000002"/>
    <field name="ipv6.addr" showname="Source or Destination Address: 2001:6a8:3081:1::2" hide="yes" size="16" pos="38" show="2001:6a8:3081:1::2" value="200106a8308100010000000000000002"/>
    <field name="ipv6.dst_host" showname="Destination Host: 2001:6a8:3081:1::2" hide="yes" size="16" pos="38" show="2001:6a8:3081:1::2" value="200106a8308100010000000000000002"/>
    <field name="ipv6.host" showname="Source or Destination Host: 2001:6a8:3081:1::2" hide="yes" size="16" pos="38" show="2001:6a8:3081:1::2" value="200106a8308100010000000000000002"/>
  </proto>
  <proto name="icmpv6" showname="Internet Control Message Protocol v6" size="16" pos="54">
    <field name="icmpv6.type" showname="Type: Echo (ping) request (128)" size="1" pos="54" show="128" value="80"/>
    <field name="icmpv6.code" showname="Code: 0" size="1" pos="55" show="0" value="00"/>
    <field name="icmpv6.checksum" showname="Checksum: 0x697b [correct]" size="2" pos="56" show="0x0000697b" value="697b"/>
    <field name="icmpv6.checksum.status" showname="Checksum Status: Good" size="0" pos="56" show="1"/>
    <field name="icmpv6.echo.identifier" showname="Identifier: 0x3a83" size="2" pos="58" show="0x00003a83" value="3a83"/>
    <field name="icmpv6.echo.sequence_number" showname="Sequence: 3" size="2" pos="60" show="3" value="0003"/>
    <field name="data" value="5bf42f64000bf690">
      <field name="data.data" showname="Data: 5bf42f64000bf690" size="8" pos="62" show="5b:f4:2f:64:00:0b:f6:90" value="5bf42f64000bf690"/>
      <field name="data.len" showname="Length: 8" size="0" pos="62" show="8"/>
    </field>
  </proto>
</packet>


<packet>
  <proto name="geninfo" pos="0" showname="General information" size="70">
    <field name="num" pos="0" show="4" showname="Number" value="4" size="70"/>
    <field name="len" pos="0" show="70" showname="Frame Length" value="46" size="70"/>
    <field name="caplen" pos="0" show="70" showname="Captured Length" value="46" size="70"/>
    <field name="timestamp" pos="0" show="Nov 20, 2018 16:59:32.784978000 CET" showname="Captured Time" value="1542729572.784978000" size="70"/>
  </proto>
  <proto name="frame" showname="Frame 4: 70 bytes on wire (560 bits), 70 bytes captured (560 bits)" size="70" pos="0">
    <field name="filtered" value="frame" />
  </proto>
  <proto name="eth" showname="Ethernet II, Src: 00:1b:21:38:e9:78, Dst: 68:5b:35:ad:aa:e1" size="14" pos="0">
    <field name="filtered" value="eth" />
  </proto>
  <proto name="ipv6" showname="Internet Protocol Version 6, Src: 2001:6a8:3081:1::2, Dst: 2001:6a8:308f:2:48e9:95ae:3a92:922d" size="40" pos="14">
    <field name="ipv6.version" showname="0110 .... = Version: 6" size="1" pos="14" show="6" value="6" unmaskedvalue="60"/>
    <field name="ip.version" showname="0110 .... = Version: 6 [This field makes the filter match on &quot;ip.version == 6&quot; possible]" hide="yes" size="1" pos="14" show="6" value="6" unmaskedvalue="60"/>
    <field name="ipv6.tclass" showname=".... 0000 0000 .... .... .... .... .... = Traffic Class: 0x00 (DSCP: CS0, ECN: Not-ECT)" size="4" pos="14" show="0x00000000" value="0" unmaskedvalue="6006f536">
      <field name="ipv6.tclass.dscp" showname=".... 0000 00.. .... .... .... .... .... = Differentiated Services Codepoint: Default (0)" size="4" pos="14" show="0" value="0" unmaskedvalue="6006f536"/>
      <field name="ipv6.tclass.ecn" showname=".... .... ..00 .... .... .... .... .... = Explicit Congestion Notification: Not ECN-Capable Transport (0)" size="4" pos="14" show="0" value="0" unmaskedvalue="6006f536"/>
    </field>
    <field name="ipv6.flow" showname=".... .... .... 0110 1111 0101 0011 0110 = Flow Label: 0x6f536" size="4" pos="14" show="0x0006f536" value="6F536" unmaskedvalue="6006f536"/>
    <field name="ipv6.plen" showname="Payload Length: 16" size="2" pos="18" show="16" value="0010"/>
    <field name="ipv6.nxt" showname="Next Header: ICMPv6 (58)" size="1" pos="20" show="58" value="3a"/>
    <field name="ipv6.hlim" showname="Hop Limit: 61" size="1" pos="21" show="61" value="3d"/>
    <field name="ipv6.src" showname="Source: 2001:6a8:3081:1::2" size="16" pos="22" show="2001:6a8:3081:1::2" value="200106a8308100010000000000000002"/>
    <field name="ipv6.addr" showname="Source or Destination Address: 2001:6a8:3081:1::2" hide="yes" size="16" pos="22" show="2001:6a8:3081:1::2" value="200106a8308100010000000000000002"/>
    <field name="ipv6.src_host" showname="Source Host: 2001:6a8:3081:1::2" hide="yes" size="16" pos="22" show="2001:6a8:3081:1::2" value="200106a8308100010000000000000002"/>
    <field name="ipv6.host" showname="Source or Destination Host: 2001:6a8:3081:1::2" hide="yes" size="16" pos="22" show="2001:6a8:3081:1::2" value="200106a8308100010000000000000002"/>
    <field name="ipv6.dst" showname="Destination: 2001:6a8:308f:2:48e9:95ae:3a92:922d" size="16" pos="38" show="2001:6a8:308f:2:48e9:95ae:3a92:922d" value="200106a8308f000248e995ae3a92922d"/>
    <field name="ipv6.addr" showname="Source or Destination Address: 2001:6a8:308f:2:48e9:95ae:3a92:922d" hide="yes" size="16" pos="38" show="2001:6a8:308f:2:48e9:95ae:3a92:922d" value="200106a8308f000248e995ae3a92922d"/>
    <field name="ipv6.dst_host" showname="Destination Host: 2001:6a8:308f:2:48e9:95ae:3a92:922d" hide="yes" size="16" pos="38" show="2001:6a8:308f:2:48e9:95ae:3a92:922d" value="200106a8308f000248e995ae3a92922d"/>
    <field name="ipv6.host" showname="Source or Destination Host: 2001:6a8:308f:2:48e9:95ae:3a92:922d" hide="yes" size="16" pos="38" show="2001:6a8:308f:2:48e9:95ae:3a92:922d" value="200106a8308f000248e995ae3a92922d"/>
  </proto>
  <proto name="icmpv6" showname="Internet Control Message Protocol v6" size="16" pos="54">
    <field name="icmpv6.type" showname="Type: Echo (ping) reply (129)" size="1" pos="54" show="129" value="81"/>
    <field name="icmpv6.code" showname="Code: 0" size="1" pos="55" show="0" value="00"/>
    <field name="icmpv6.checksum" showname="Checksum: 0x687b [correct]" size="2" pos="56" show="0x0000687b" value="687b"/>
    <field name="icmpv6.checksum.status" showname="Checksum Status: Good" size="0" pos="56" show="1"/>
    <field name="icmpv6.echo.identifier" showname="Identifier: 0x3a83" size="2" pos="58" show="0x00003a83" value="3a83"/>
    <field name="icmpv6.echo.sequence_number" showname="Sequence: 3" size="2" pos="60" show="3" value="0003"/>
    <field name="icmpv6.resp_to" showname="Response To: 3" size="0" pos="54" show="3"/>
    <field name="icmpv6.resptime" showname="Response Time: 0.856 ms" size="0" pos="54" show="0.856"/>
    <field name="data" value="5bf42f64000bf690">
      <field name="data.data" showname="Data: 5bf42f64000bf690" size="8" pos="62" show="5b:f4:2f:64:00:0b:f6:90" value="5bf42f64000bf690"/>
      <field name="data.len" showname="Length: 8" size="0" pos="62" show="8"/>
    </field>
  </proto>
</packet>


<packet>
  <proto name="geninfo" pos="0" showname="General information" size="70">
    <field name="num" pos="0" show="5" showname="Number" value="5" size="70"/>
    <field name="len" pos="0" show="70" showname="Frame Length" value="46" size="70"/>
    <field name="caplen" pos="0" show="70" showname="Captured Length" value="46" size="70"/>
    <field name="timestamp" pos="0" show="Nov 20, 2018 16:59:33.788791000 CET" showname="Captured Time" value="1542729573.788791000" size="70"/>
  </proto>
  <proto name="frame" showname="Frame 5: 70 bytes on wire (560 bits), 70 bytes captured (560 bits)" size="70" pos="0">
    <field name="filtered" value="frame" />
  </proto>
  <proto name="eth" showname="Ethernet II, Src: 68:5b:35:ad:aa:e1, Dst: 00:1b:21:38:e9:78" size="14" pos="0">
    <field name="filtered" value="eth" />
  </proto>
  <proto name="ipv6" showname="Internet Protocol Version 6, Src: 2001:6a8:308f:2:48e9:95ae:3a92:922d, Dst: 2001:6a8:3081:1::2" size="40" pos="14">
    <field name="ipv6.version" showname="0110 .... = Version: 6" size="1" pos="14" show="6" value="6" unmaskedvalue="60"/>
    <field name="ip.version" showname="0110 .... = Version: 6 [This field makes the filter match on &quot;ip.version == 6&quot; possible]" hide="yes" size="1" pos="14" show="6" value="6" unmaskedvalue="60"/>
    <field name="ipv6.tclass" showname=".... 0000 0000 .... .... .... .... .... = Traffic Class: 0x00 (DSCP: CS0, ECN: Not-ECT)" size="4" pos="14" show="0x00000000" value="0" unmaskedvalue="6006f536">
      <field name="ipv6.tclass.dscp" showname=".... 0000 00.. .... .... .... .... .... = Differentiated Services Codepoint: Default (0)" size="4" pos="14" show="0" value="0" unmaskedvalue="6006f536"/>
      <field name="ipv6.tclass.ecn" showname=".... .... ..00 .... .... .... .... .... = Explicit Congestion Notification: Not ECN-Capable Transport (0)" size="4" pos="14" show="0" value="0" unmaskedvalue="6006f536"/>
    </field>
    <field name="ipv6.flow" showname=".... .... .... 0110 1111 0101 0011 0110 = Flow Label: 0x6f536" size="4" pos="14" show="0x0006f536" value="6F536" unmaskedvalue="6006f536"/>
    <field name="ipv6.plen" showname="Payload Length: 16" size="2" pos="18" show="16" value="0010"/>
    <field name="ipv6.nxt" showname="Next Header: ICMPv6 (58)" size="1" pos="20" show="58" value="3a"/>
    <field name="ipv6.hlim" showname="Hop Limit: 64" size="1" pos="21" show="64" value="40"/>
    <field name="ipv6.src" showname="Source: 2001:6a8:308f:2:48e9:95ae:3a92:922d" size="16" pos="22" show="2001:6a8:308f:2:48e9:95ae:3a92:922d" value="200106a8308f000248e995ae3a92922d"/>
    <field name="ipv6.addr" showname="Source or Destination Address: 2001:6a8:308f:2:48e9:95ae:3a92:922d" hide="yes" size="16" pos="22" show="2001:6a8:308f:2:48e9:95ae:3a92:922d" value="200106a8308f000248e995ae3a92922d"/>
    <field name="ipv6.src_host" showname="Source Host: 2001:6a8:308f:2:48e9:95ae:3a92:922d" hide="yes" size="16" pos="22" show="2001:6a8:308f:2:48e9:95ae:3a92:922d" value="200106a8308f000248e995ae3a92922d"/>
    <field name="ipv6.host" showname="Source or Destination Host: 2001:6a8:308f:2:48e9:95ae:3a92:922d" hide="yes" size="16" pos="22" show="2001:6a8:308f:2:48e9:95ae:3a92:922d" value="200106a8308f000248e995ae3a92922d"/>
    <field name="ipv6.dst" showname="Destination: 2001:6a8:3081:1::2" size="16" pos="38" show="2001:6a8:3081:1::2" value="200106a8308100010000000000000002"/>
    <field name="ipv6.addr" showname="Source or Destination Address: 2001:6a8:3081:1::2" hide="yes" size="16" pos="38" show="2001:6a8:3081:1::2" value="200106a8308100010000000000000002"/>
    <field name="ipv6.dst_host" showname="Destination Host: 2001:6a8:3081:1::2" hide="yes" size="16" pos="38" show="2001:6a8:3081:1::2" value="200106a8308100010000000000000002"/>
    <field name="ipv6.host" showname="Source or Destination Host: 2001:6a8:3081:1::2" hide="yes" size="16" pos="38" show="2001:6a8:3081:1::2" value="200106a8308100010000000000000002"/>
  </proto>
  <proto name="icmpv6" showname="Internet Control Message Protocol v6" size="16" pos="54">
    <field name="icmpv6.type" showname="Type: Echo (ping) request (128)" size="1" pos="54" show="128" value="80"/>
    <field name="icmpv6.code" showname="Code: 0" size="1" pos="55" show="0" value="00"/>
    <field name="icmpv6.checksum" showname="Checksum: 0x571c [correct]" size="2" pos="56" show="0x0000571c" value="571c"/>
    <field name="icmpv6.checksum.status" showname="Checksum Status: Good" size="0" pos="56" show="1"/>
    <field name="icmpv6.echo.identifier" showname="Identifier: 0x3a83" size="2" pos="58" show="0x00003a83" value="3a83"/>
    <field name="icmpv6.echo.sequence_number" showname="Sequence: 4" size="2" pos="60" show="4" value="0004"/>
    <field name="data" value="5bf42f65000c08ed">
      <field name="data.data" showname="Data: 5bf42f65000c08ed" size="8" pos="62" show="5b:f4:2f:65:00:0c:08:ed" value="5bf42f65000c08ed"/>
      <field name="data.len" showname="Length: 8" size="0" pos="62" show="8"/>
    </field>
  </proto>
</packet>


<packet>
  <proto name="geninfo" pos="0" showname="General information" size="70">
    <field name="num" pos="0" show="6" showname="Number" value="6" size="70"/>
    <field name="len" pos="0" show="70" showname="Frame Length" value="46" size="70"/>
    <field name="caplen" pos="0" show="70" showname="Captured Length" value="46" size="70"/>
    <field name="timestamp" pos="0" show="Nov 20, 2018 16:59:33.789460000 CET" showname="Captured Time" value="1542729573.789460000" size="70"/>
  </proto>
  <proto name="frame" showname="Frame 6: 70 bytes on wire (560 bits), 70 bytes captured (560 bits)" size="70" pos="0">
    <field name="filtered" value="frame" />
  </proto>
  <proto name="eth" showname="Ethernet II, Src: 00:1b:21:38:e9:78, Dst: 68:5b:35:ad:aa:e1" size="14" pos="0">
    <field name="filtered" value="eth" />
  </proto>
  <proto name="ipv6" showname="Internet Protocol Version 6, Src: 2001:6a8:3081:1::2, Dst: 2001:6a8:308f:2:48e9:95ae:3a92:922d" size="40" pos="14">
    <field name="ipv6.version" showname="0110 .... = Version: 6" size="1" pos="14" show="6" value="6" unmaskedvalue="60"/>
    <field name="ip.version" showname="0110 .... = Version: 6 [This field makes the filter match on &quot;ip.version == 6&quot; possible]" hide="yes" size="1" pos="14" show="6" value="6" unmaskedvalue="60"/>
    <field name="ipv6.tclass" showname=".... 0000 0000 .... .... .... .... .... = Traffic Class: 0x00 (DSCP: CS0, ECN: Not-ECT)" size="4" pos="14" show="0x00000000" value="0" unmaskedvalue="6006f536">
      <field name="ipv6.tclass.dscp" showname=".... 0000 00.. .... .... .... .... .... = Differentiated Services Codepoint: Default (0)" size="4" pos="14" show="0" value="0" unmaskedvalue="6006f536"/>
      <field name="ipv6.tclass.ecn" showname=".... .... ..00 .... .... .... .... .... = Explicit Congestion Notification: Not ECN-Capable Transport (0)" size="4" pos="14" show="0" value="0" unmaskedvalue="6006f536"/>
    </field>
    <field name="ipv6.flow" showname=".... .... .... 0110 1111 0101 0011 0110 = Flow Label: 0x6f536" size="4" pos="14" show="0x0006f536" value="6F536" unmaskedvalue="6006f536"/>
    <field name="ipv6.plen" showname="Payload Length: 16" size="2" pos="18" show="16" value="0010"/>
    <field name="ipv6.nxt" showname="Next Header: ICMPv6 (58)" size="1" pos="20" show="58" value="3a"/>
    <field name="ipv6.hlim" showname="Hop Limit: 61" size="1" pos="21" show="61" value="3d"/>
    <field name="ipv6.src" showname="Source: 2001:6a8:3081:1::2" size="16" pos="22" show="2001:6a8:3081:1::2" value="200106a8308100010000000000000002"/>
    <field name="ipv6.addr" showname="Source or Destination Address: 2001:6a8:3081:1::2" hide="yes" size="16" pos="22" show="2001:6a8:3081:1::2" value="200106a8308100010000000000000002"/>
    <field name="ipv6.src_host" showname="Source Host: 2001:6a8:3081:1::2" hide="yes" size="16" pos="22" show="2001:6a8:3081:1::2" value="200106a8308100010000000000000002"/>
    <field name="ipv6.host" showname="Source or Destination Host: 2001:6a8:3081:1::2" hide="yes" size="16" pos="22" show="2001:6a8:3081:1::2" value="200106a8308100010000000000000002"/>
    <field name="ipv6.dst" showname="Destination: 2001:6a8:308f:2:48e9:95ae:3a92:922d" size="16" pos="38" show="2001:6a8:308f:2:48e9:95ae:3a92:922d" value="200106a8308f000248e995ae3a92922d"/>
    <field name="ipv6.addr" showname="Source or Destination Address: 2001:6a8:308f:2:48e9:95ae:3a92:922d" hide="yes" size="16" pos="38" show="2001:6a8:308f:2:48e9:95ae:3a92:922d" value="200106a8308f000248e995ae3a92922d"/>
    <field name="ipv6.dst_host" showname="Destination Host: 2001:6a8:308f:2:48e9:95ae:3a92:922d" hide="yes" size="16" pos="38" show="2001:6a8:308f:2:48e9:95ae:3a92:922d" value="200106a8308f000248e995ae3a92922d"/>
    <field name="ipv6.host" showname="Source or Destination Host: 2001:6a8:308f:2:48e9:95ae:3a92:922d" hide="yes" size="16" pos="38" show="2001:6a8:308f:2:48e9:95ae:3a92:922d" value="200106a8308f000248e995ae3a92922d"/>
  </proto>
  <proto name="icmpv6" showname="Internet Control Message Protocol v6" size="16" pos="54">
    <field name="icmpv6.type" showname="Type: Echo (ping) reply (129)" size="1" pos="54" show="129" value="81"/>
    <field name="icmpv6.code" showname="Code: 0" size="1" pos="55" show="0" value="00"/>
    <field name="icmpv6.checksum" showname="Checksum: 0x561c [correct]" size="2" pos="56" show="0x0000561c" value="561c"/>
    <field name="icmpv6.checksum.status" showname="Checksum Status: Good" size="0" pos="56" show="1"/>
    <field name="icmpv6.echo.identifier" showname="Identifier: 0x3a83" size="2" pos="58" show="0x00003a83" value="3a83"/>
    <field name="icmpv6.echo.sequence_number" showname="Sequence: 4" size="2" pos="60" show="4" value="0004"/>
    <field name="icmpv6.resp_to" showname="Response To: 5" size="0" pos="54" show="5"/>
    <field name="icmpv6.resptime" showname="Response Time: 0.669 ms" size="0" pos="54" show="0.669"/>
    <field name="data" value="5bf42f65000c08ed">
      <field name="data.data" showname="Data: 5bf42f65000c08ed" size="8" pos="62" show="5b:f4:2f:65:00:0c:08:ed" value="5bf42f65000c08ed"/>
      <field name="data.len" showname="Length: 8" size="0" pos="62" show="8"/>
    </field>
  </proto>
</packet>


</pdml>
