<?xml version="1.0" encoding="utf-8"?>
<?xml-stylesheet type="text/xsl" href="pdml2html.xsl"?>
<!-- You can find pdml2html.xsl in /Applications/Wireshark.app/Contents/Resources/share/wireshark or at https://code.wireshark.org/review/gitweb?p=wireshark.git;a=blob_plain;f=pdml2html.xsl. -->
<pdml version="0" creator="wireshark/3.0.1" time="Thu May 16 15:53:54 2019" capture_file="tcp-rfc793-98-100.pcap">
<packet>
  <proto name="geninfo" pos="0" showname="General information" size="78">
    <field name="num" pos="0" show="1" showname="Number" value="1" size="78"/>
    <field name="len" pos="0" show="78" showname="Frame Length" value="4e" size="78"/>
    <field name="caplen" pos="0" show="78" showname="Captured Length" value="4e" size="78"/>
    <field name="timestamp" pos="0" show="Oct 25, 2018 17:27:18.992751000 CEST" showname="Captured Time" value="1540481238.992751000" size="78"/>
  </proto>
  <proto name="frame" showname="Frame 1: 78 bytes on wire (624 bits), 78 bytes captured (624 bits)" size="78" pos="0">
    <field name="filtered" value="frame" />
  </proto>
  <proto name="eth" showname="Ethernet II, Src: 26:71:ff:fe:ec:1d, Dst: 36:66:93:b9:6c:1a" size="14" pos="0">
    <field name="filtered" value="eth" />
  </proto>
  <proto name="ipv6" showname="Internet Protocol Version 6, Src: 2001:7ab:1::a, Dst: 2001:7ab:3::c" size="40" pos="14">
    <field name="filtered" value="ipv6" />
  </proto>
  <proto name="tcp" showname="Transmission Control Protocol, Src Port: 53720, Dst Port: 1234, Seq: 1541628759, Len: 0" size="24" pos="54">
    <field name="tcp.srcport" showname="Source Port: 53720" size="2" pos="54" show="53720" value="d1d8"/>
    <field name="tcp.dstport" showname="Destination Port: 1234" size="2" pos="56" show="1234" value="04d2"/>
    <field name="tcp.port" showname="Source or Destination Port: 53720" hide="yes" size="2" pos="54" show="53720" value="d1d8"/>
    <field name="tcp.port" showname="Source or Destination Port: 1234" hide="yes" size="2" pos="56" show="1234" value="04d2"/>
    <field name="tcp.stream" showname="Stream index: 0" size="0" pos="54" show="0"/>
    <field name="tcp.len" showname="TCP Segment Len: 0" size="1" pos="66" show="0" value="60"/>
    <field name="tcp.seq" showname="Sequence number: 1541628759" size="4" pos="58" show="1541628759" value="5be36357"/>
    <field name="tcp.nxtseq" showname="Next sequence number: 1541628759" size="0" pos="54" show="1541628759"/>
    <field name="tcp.ack" showname="Acknowledgment number: 0" size="4" pos="62" show="0" value="00000000"/>
    <field name="tcp.hdr_len" showname="0110 .... = Header Length: 24 bytes (6)" size="1" pos="66" show="24" value="60"/>
    <field name="tcp.flags" showname="Flags: 0x002 (SYN)" size="2" pos="66" show="0x00000002" value="2" unmaskedvalue="6002">
      <field name="tcp.flags.res" showname="000. .... .... = Reserved: Not set" size="1" pos="66" show="0" value="0" unmaskedvalue="60"/>
      <field name="tcp.flags.ns" showname="...0 .... .... = Nonce: Not set" size="1" pos="66" show="0" value="0" unmaskedvalue="60"/>
      <field name="tcp.flags.cwr" showname=".... 0... .... = Congestion Window Reduced (CWR): Not set" size="1" pos="67" show="0" value="0" unmaskedvalue="02"/>
      <field name="tcp.flags.ecn" showname=".... .0.. .... = ECN-Echo: Not set" size="1" pos="67" show="0" value="0" unmaskedvalue="02"/>
      <field name="tcp.flags.urg" showname=".... ..0. .... = Urgent: Not set" size="1" pos="67" show="0" value="0" unmaskedvalue="02"/>
      <field name="tcp.flags.ack" showname=".... ...0 .... = Acknowledgment: Not set" size="1" pos="67" show="0" value="0" unmaskedvalue="02"/>
      <field name="tcp.flags.push" showname=".... .... 0... = Push: Not set" size="1" pos="67" show="0" value="0" unmaskedvalue="02"/>
      <field name="tcp.flags.reset" showname=".... .... .0.. = Reset: Not set" size="1" pos="67" show="0" value="0" unmaskedvalue="02"/>
      <field name="tcp.flags.syn" showname=".... .... ..1. = Syn: Set" size="1" pos="67" show="1" value="1" unmaskedvalue="02">
        <field name="_ws.expert" showname="Expert Info (Chat/Sequence): Connection establish request (SYN): server port 1234" size="0" pos="67">
          <field name="tcp.connection.syn" showname="Connection establish request (SYN): server port 1234" size="0" pos="0" show="" value=""/>
          <field name="_ws.expert.message" showname="Message: Connection establish request (SYN): server port 1234" hide="yes" size="0" pos="0" show="Connection establish request (SYN): server port 1234"/>
          <field name="_ws.expert.severity" showname="Severity level: Chat" size="0" pos="0" show="2097152"/>
          <field name="_ws.expert.group" showname="Group: Sequence" size="0" pos="0" show="33554432"/>
        </field>
      </field>
      <field name="tcp.flags.fin" showname=".... .... ...0 = Fin: Not set" size="1" pos="67" show="0" value="0" unmaskedvalue="02"/>
      <field name="tcp.flags.str" showname="TCP Flags: \xc2\xb7\xc2\xb7\xc2\xb7\xc2\xb7\xc2\xb7\xc2\xb7\xc2\xb7\xc2\xb7\xc2\xb7\xc2\xb7S\xc2\xb7" size="2" pos="66" show="\xc2\xb7\xc2\xb7\xc2\xb7\xc2\xb7\xc2\xb7\xc2\xb7\xc2\xb7\xc2\xb7\xc2\xb7\xc2\xb7S\xc2\xb7" value="6002"/>
    </field>
    <field name="tcp.window_size_value" showname="Window size value: 28800" size="2" pos="68" show="28800" value="7080"/>
    <field name="tcp.window_size" showname="Calculated window size: 28800" size="2" pos="68" show="28800" value="7080"/>
    <field name="tcp.checksum" showname="Checksum: 0x4f90 [unverified]" size="2" pos="70" show="0x00004f90" value="4f90"/>
    <field name="tcp.checksum.status" showname="Checksum Status: Unverified" size="0" pos="70" show="2"/>
    <field name="tcp.urgent_pointer" showname="Urgent pointer: 0" size="2" pos="72" show="0" value="0000"/>
    <field name="tcp.options" showname="Options: (4 bytes), Maximum segment size" size="4" pos="74" show="02:04:05:a0" value="020405a0">
      <field name="tcp.options.mss" showname="TCP Option - Maximum segment size: 1440 bytes" size="4" pos="74" show="02:04:05:a0" value="020405a0">
        <field name="tcp.option_kind" showname="Kind: Maximum Segment Size (2)" size="1" pos="74" show="2" value="02"/>
        <field name="tcp.option_len" showname="Length: 4" size="1" pos="75" show="4" value="04"/>
        <field name="tcp.options.mss_val" showname="MSS Value: 1440" size="2" pos="76" show="1440" value="05a0"/>
      </field>
    </field>
    <field name="" show="Timestamps" size="0" pos="54">
      <field name="tcp.time_relative" showname="Time since first frame in this TCP stream: 0.000000000 seconds" size="0" pos="54" show="0.000000000"/>
      <field name="tcp.time_delta" showname="Time since previous frame in this TCP stream: 0.000000000 seconds" size="0" pos="54" show="0.000000000"/>
    </field>
  </proto>
</packet>


<packet>
  <proto name="geninfo" pos="0" showname="General information" size="78">
    <field name="num" pos="0" show="2" showname="Number" value="2" size="78"/>
    <field name="len" pos="0" show="78" showname="Frame Length" value="4e" size="78"/>
    <field name="caplen" pos="0" show="78" showname="Captured Length" value="4e" size="78"/>
    <field name="timestamp" pos="0" show="Oct 25, 2018 17:27:18.992769000 CEST" showname="Captured Time" value="1540481238.992769000" size="78"/>
  </proto>
  <proto name="frame" showname="Frame 2: 78 bytes on wire (624 bits), 78 bytes captured (624 bits)" size="78" pos="0">
    <field name="filtered" value="frame" />
  </proto>
  <proto name="eth" showname="Ethernet II, Src: 36:66:93:b9:6c:1a, Dst: 26:71:ff:fe:ec:1d" size="14" pos="0">
    <field name="filtered" value="eth" />
  </proto>
  <proto name="ipv6" showname="Internet Protocol Version 6, Src: 2001:7ab:3::c, Dst: 2001:7ab:1::a" size="40" pos="14">
    <field name="filtered" value="ipv6" />
  </proto>
  <proto name="tcp" showname="Transmission Control Protocol, Src Port: 1234, Dst Port: 53720, Seq: 1554975569, Ack: 1541628760, Len: 0" size="24" pos="54">
    <field name="tcp.srcport" showname="Source Port: 1234" size="2" pos="54" show="1234" value="04d2"/>
    <field name="tcp.dstport" showname="Destination Port: 53720" size="2" pos="56" show="53720" value="d1d8"/>
    <field name="tcp.port" showname="Source or Destination Port: 1234" hide="yes" size="2" pos="54" show="1234" value="04d2"/>
    <field name="tcp.port" showname="Source or Destination Port: 53720" hide="yes" size="2" pos="56" show="53720" value="d1d8"/>
    <field name="tcp.stream" showname="Stream index: 0" size="0" pos="54" show="0"/>
    <field name="tcp.len" showname="TCP Segment Len: 0" size="1" pos="66" show="0" value="60"/>
    <field name="tcp.seq" showname="Sequence number: 1554975569" size="4" pos="58" show="1554975569" value="5caf0b51"/>
    <field name="tcp.nxtseq" showname="Next sequence number: 1554975569" size="0" pos="54" show="1554975569"/>
    <field name="tcp.ack" showname="Acknowledgment number: 1541628760" size="4" pos="62" show="1541628760" value="5be36358"/>
    <field name="tcp.hdr_len" showname="0110 .... = Header Length: 24 bytes (6)" size="1" pos="66" show="24" value="60"/>
    <field name="tcp.flags" showname="Flags: 0x012 (SYN, ACK)" size="2" pos="66" show="0x00000012" value="12" unmaskedvalue="6012">
      <field name="tcp.flags.res" showname="000. .... .... = Reserved: Not set" size="1" pos="66" show="0" value="0" unmaskedvalue="60"/>
      <field name="tcp.flags.ns" showname="...0 .... .... = Nonce: Not set" size="1" pos="66" show="0" value="0" unmaskedvalue="60"/>
      <field name="tcp.flags.cwr" showname=".... 0... .... = Congestion Window Reduced (CWR): Not set" size="1" pos="67" show="0" value="0" unmaskedvalue="12"/>
      <field name="tcp.flags.ecn" showname=".... .0.. .... = ECN-Echo: Not set" size="1" pos="67" show="0" value="0" unmaskedvalue="12"/>
      <field name="tcp.flags.urg" showname=".... ..0. .... = Urgent: Not set" size="1" pos="67" show="0" value="0" unmaskedvalue="12"/>
      <field name="tcp.flags.ack" showname=".... ...1 .... = Acknowledgment: Set" size="1" pos="67" show="1" value="1" unmaskedvalue="12"/>
      <field name="tcp.flags.push" showname=".... .... 0... = Push: Not set" size="1" pos="67" show="0" value="0" unmaskedvalue="12"/>
      <field name="tcp.flags.reset" showname=".... .... .0.. = Reset: Not set" size="1" pos="67" show="0" value="0" unmaskedvalue="12"/>
      <field name="tcp.flags.syn" showname=".... .... ..1. = Syn: Set" size="1" pos="67" show="1" value="1" unmaskedvalue="12">
        <field name="_ws.expert" showname="Expert Info (Chat/Sequence): Connection establish acknowledge (SYN+ACK): server port 1234" size="0" pos="67">
          <field name="tcp.connection.sack" showname="Connection establish acknowledge (SYN+ACK): server port 1234" size="0" pos="0" show="" value=""/>
          <field name="_ws.expert.message" showname="Message: Connection establish acknowledge (SYN+ACK): server port 1234" hide="yes" size="0" pos="0" show="Connection establish acknowledge (SYN+ACK): server port 1234"/>
          <field name="_ws.expert.severity" showname="Severity level: Chat" size="0" pos="0" show="2097152"/>
          <field name="_ws.expert.group" showname="Group: Sequence" size="0" pos="0" show="33554432"/>
        </field>
      </field>
      <field name="tcp.flags.fin" showname=".... .... ...0 = Fin: Not set" size="1" pos="67" show="0" value="0" unmaskedvalue="12"/>
      <field name="tcp.flags.str" showname="TCP Flags: \xc2\xb7\xc2\xb7\xc2\xb7\xc2\xb7\xc2\xb7\xc2\xb7\xc2\xb7A\xc2\xb7\xc2\xb7S\xc2\xb7" size="2" pos="66" show="\xc2\xb7\xc2\xb7\xc2\xb7\xc2\xb7\xc2\xb7\xc2\xb7\xc2\xb7A\xc2\xb7\xc2\xb7S\xc2\xb7" value="6012"/>
    </field>
    <field name="tcp.window_size_value" showname="Window size value: 28800" size="2" pos="68" show="28800" value="7080"/>
    <field name="tcp.window_size" showname="Calculated window size: 28800" size="2" pos="68" show="28800" value="7080"/>
    <field name="tcp.checksum" showname="Checksum: 0x4f90 [unverified]" size="2" pos="70" show="0x00004f90" value="4f90"/>
    <field name="tcp.checksum.status" showname="Checksum Status: Unverified" size="0" pos="70" show="2"/>
    <field name="tcp.urgent_pointer" showname="Urgent pointer: 0" size="2" pos="72" show="0" value="0000"/>
    <field name="tcp.options" showname="Options: (4 bytes), Maximum segment size" size="4" pos="74" show="02:04:05:a0" value="020405a0">
      <field name="tcp.options.mss" showname="TCP Option - Maximum segment size: 1440 bytes" size="4" pos="74" show="02:04:05:a0" value="020405a0">
        <field name="tcp.option_kind" showname="Kind: Maximum Segment Size (2)" size="1" pos="74" show="2" value="02"/>
        <field name="tcp.option_len" showname="Length: 4" size="1" pos="75" show="4" value="04"/>
        <field name="tcp.options.mss_val" showname="MSS Value: 1440" size="2" pos="76" show="1440" value="05a0"/>
      </field>
    </field>
    <field name="tcp.analysis" showname="SEQ/ACK analysis" size="0" pos="54" show="" value="">
      <field name="tcp.analysis.acks_frame" showname="This is an ACK to the segment in frame: 1" size="0" pos="54" show="1"/>
      <field name="tcp.analysis.ack_rtt" showname="The RTT to ACK the segment was: 0.000018000 seconds" size="0" pos="54" show="0.000018000"/>
    </field>
    <field name="" show="Timestamps" size="0" pos="54">
      <field name="tcp.time_relative" showname="Time since first frame in this TCP stream: 0.000018000 seconds" size="0" pos="54" show="0.000018000"/>
      <field name="tcp.time_delta" showname="Time since previous frame in this TCP stream: 0.000018000 seconds" size="0" pos="54" show="0.000018000"/>
    </field>
  </proto>
</packet>


<packet>
  <proto name="geninfo" pos="0" showname="General information" size="74">
    <field name="num" pos="0" show="3" showname="Number" value="3" size="74"/>
    <field name="len" pos="0" show="74" showname="Frame Length" value="4a" size="74"/>
    <field name="caplen" pos="0" show="74" showname="Captured Length" value="4a" size="74"/>
    <field name="timestamp" pos="0" show="Oct 25, 2018 17:27:18.992802000 CEST" showname="Captured Time" value="1540481238.992802000" size="74"/>
  </proto>
  <proto name="frame" showname="Frame 3: 74 bytes on wire (592 bits), 74 bytes captured (592 bits)" size="74" pos="0">
    <field name="filtered" value="frame" />
  </proto>
  <proto name="eth" showname="Ethernet II, Src: 26:71:ff:fe:ec:1d, Dst: 36:66:93:b9:6c:1a" size="14" pos="0">
    <field name="filtered" value="eth" />
  </proto>
  <proto name="ipv6" showname="Internet Protocol Version 6, Src: 2001:7ab:1::a, Dst: 2001:7ab:3::c" size="40" pos="14">
    <field name="filtered" value="ipv6" />
  </proto>
  <proto name="tcp" showname="Transmission Control Protocol, Src Port: 53720, Dst Port: 1234, Seq: 1541628760, Ack: 1554975570, Len: 0" size="20" pos="54">
    <field name="tcp.srcport" showname="Source Port: 53720" size="2" pos="54" show="53720" value="d1d8"/>
    <field name="tcp.dstport" showname="Destination Port: 1234" size="2" pos="56" show="1234" value="04d2"/>
    <field name="tcp.port" showname="Source or Destination Port: 53720" hide="yes" size="2" pos="54" show="53720" value="d1d8"/>
    <field name="tcp.port" showname="Source or Destination Port: 1234" hide="yes" size="2" pos="56" show="1234" value="04d2"/>
    <field name="tcp.stream" showname="Stream index: 0" size="0" pos="54" show="0"/>
    <field name="tcp.len" showname="TCP Segment Len: 0" size="1" pos="66" show="0" value="50"/>
    <field name="tcp.seq" showname="Sequence number: 1541628760" size="4" pos="58" show="1541628760" value="5be36358"/>
    <field name="tcp.nxtseq" showname="Next sequence number: 1541628760" size="0" pos="54" show="1541628760"/>
    <field name="tcp.ack" showname="Acknowledgment number: 1554975570" size="4" pos="62" show="1554975570" value="5caf0b52"/>
    <field name="tcp.hdr_len" showname="0101 .... = Header Length: 20 bytes (5)" size="1" pos="66" show="20" value="50"/>
    <field name="tcp.flags" showname="Flags: 0x010 (ACK)" size="2" pos="66" show="0x00000010" value="10" unmaskedvalue="5010">
      <field name="tcp.flags.res" showname="000. .... .... = Reserved: Not set" size="1" pos="66" show="0" value="0" unmaskedvalue="50"/>
      <field name="tcp.flags.ns" showname="...0 .... .... = Nonce: Not set" size="1" pos="66" show="0" value="0" unmaskedvalue="50"/>
      <field name="tcp.flags.cwr" showname=".... 0... .... = Congestion Window Reduced (CWR): Not set" size="1" pos="67" show="0" value="0" unmaskedvalue="10"/>
      <field name="tcp.flags.ecn" showname=".... .0.. .... = ECN-Echo: Not set" size="1" pos="67" show="0" value="0" unmaskedvalue="10"/>
      <field name="tcp.flags.urg" showname=".... ..0. .... = Urgent: Not set" size="1" pos="67" show="0" value="0" unmaskedvalue="10"/>
      <field name="tcp.flags.ack" showname=".... ...1 .... = Acknowledgment: Set" size="1" pos="67" show="1" value="1" unmaskedvalue="10"/>
      <field name="tcp.flags.push" showname=".... .... 0... = Push: Not set" size="1" pos="67" show="0" value="0" unmaskedvalue="10"/>
      <field name="tcp.flags.reset" showname=".... .... .0.. = Reset: Not set" size="1" pos="67" show="0" value="0" unmaskedvalue="10"/>
      <field name="tcp.flags.syn" showname=".... .... ..0. = Syn: Not set" size="1" pos="67" show="0" value="0" unmaskedvalue="10"/>
      <field name="tcp.flags.fin" showname=".... .... ...0 = Fin: Not set" size="1" pos="67" show="0" value="0" unmaskedvalue="10"/>
      <field name="tcp.flags.str" showname="TCP Flags: \xc2\xb7\xc2\xb7\xc2\xb7\xc2\xb7\xc2\xb7\xc2\xb7\xc2\xb7A\xc2\xb7\xc2\xb7\xc2\xb7\xc2\xb7" size="2" pos="66" show="\xc2\xb7\xc2\xb7\xc2\xb7\xc2\xb7\xc2\xb7\xc2\xb7\xc2\xb7A\xc2\xb7\xc2\xb7\xc2\xb7\xc2\xb7" value="5010"/>
    </field>
    <field name="tcp.window_size_value" showname="Window size value: 28800" size="2" pos="68" show="28800" value="7080"/>
    <field name="tcp.window_size" showname="Calculated window size: 28800" size="2" pos="68" show="28800" value="7080"/>
    <field name="tcp.window_size_scalefactor" showname="Window size scaling factor: -2 (no window scaling used)" size="2" pos="68" show="-2" value="7080"/>
    <field name="tcp.checksum" showname="Checksum: 0x4f8c [unverified]" size="2" pos="70" show="0x00004f8c" value="4f8c"/>
    <field name="tcp.checksum.status" showname="Checksum Status: Unverified" size="0" pos="70" show="2"/>
    <field name="tcp.urgent_pointer" showname="Urgent pointer: 0" size="2" pos="72" show="0" value="0000"/>
    <field name="tcp.analysis" showname="SEQ/ACK analysis" size="0" pos="54" show="" value="">
      <field name="tcp.analysis.acks_frame" showname="This is an ACK to the segment in frame: 2" size="0" pos="54" show="2"/>
      <field name="tcp.analysis.ack_rtt" showname="The RTT to ACK the segment was: 0.000033000 seconds" size="0" pos="54" show="0.000033000"/>
      <field name="tcp.analysis.initial_rtt" showname="iRTT: 0.000051000 seconds" size="0" pos="54" show="0.000051000"/>
    </field>
    <field name="" show="Timestamps" size="0" pos="54">
      <field name="tcp.time_relative" showname="Time since first frame in this TCP stream: 0.000051000 seconds" size="0" pos="54" show="0.000051000"/>
      <field name="tcp.time_delta" showname="Time since previous frame in this TCP stream: 0.000033000 seconds" size="0" pos="54" show="0.000033000"/>
    </field>
  </proto>
</packet>


</pdml>
