<?xml version="1.0" encoding="utf-8"?>
<?xml-stylesheet type="text/xsl" href="pdml2html.xsl"?>
<!-- You can find pdml2html.xsl in /Applications/Wireshark.app/Contents/Resources/share/wireshark or at https://code.wireshark.org/review/gitweb?p=wireshark.git;a=blob_plain;f=pdml2html.xsl. -->
<pdml version="0" creator="wireshark/3.0.1" time="Thu May 16 16:25:24 2019" capture_file="ethb.pcap">
<packet>
  <proto name="geninfo" pos="0" showname="General information" size="118">
    <field name="num" pos="0" show="1" showname="Number" value="1" size="118"/>
    <field name="len" pos="0" show="118" showname="Frame Length" value="76" size="118"/>
    <field name="caplen" pos="0" show="118" showname="Captured Length" value="76" size="118"/>
    <field name="timestamp" pos="0" show="Nov 22, 2018 10:01:03.302270000 CET" showname="Captured Time" value="1542877263.302270000" size="118"/>
  </proto>
  <proto name="frame" showname="Frame 1: 118 bytes on wire (944 bits), 118 bytes captured (944 bits)" size="118" pos="0">
    <field name="filtered" value="frame" />
  </proto>
  <proto name="eth" showname="Ethernet II, Src: aa:a1:46:1f:3c:97, Dst: d2:07:8b:e1:b0:a1" size="14" pos="0">
    <field name="filtered" value="eth" />
  </proto>
  <proto name="ipv6" showname="Internet Protocol Version 6, Src: 2001:7ab:1::a, Dst: 2001:7ab:2::b" size="40" pos="14">
    <field name="ipv6.version" showname="0110 .... = Version: 6" size="1" pos="14" show="6" value="6" unmaskedvalue="60"/>
    <field name="ip.version" showname="0110 .... = Version: 6 [This field makes the filter match on &quot;ip.version == 6&quot; possible]" hide="yes" size="1" pos="14" show="6" value="6" unmaskedvalue="60"/>
    <field name="ipv6.tclass" showname=".... 0000 0000 .... .... .... .... .... = Traffic Class: 0x00 (DSCP: CS0, ECN: Not-ECT)" size="4" pos="14" show="0x00000000" value="0" unmaskedvalue="6000df04">
      <field name="ipv6.tclass.dscp" showname=".... 0000 00.. .... .... .... .... .... = Differentiated Services Codepoint: Default (0)" size="4" pos="14" show="0" value="0" unmaskedvalue="6000df04"/>
      <field name="ipv6.tclass.ecn" showname=".... .... ..00 .... .... .... .... .... = Explicit Congestion Notification: Not ECN-Capable Transport (0)" size="4" pos="14" show="0" value="0" unmaskedvalue="6000df04"/>
    </field>
    <field name="ipv6.flow" showname=".... .... .... 0000 1101 1111 0000 0100 = Flow Label: 0x0df04" size="4" pos="14" show="0x0000df04" value="DF04" unmaskedvalue="6000df04"/>
    <field name="ipv6.plen" showname="Payload Length: 64" size="2" pos="18" show="64" value="0040"/>
    <field name="ipv6.nxt" showname="Next Header: ICMPv6 (58)" size="1" pos="20" show="58" value="3a"/>
    <field name="ipv6.hlim" showname="Hop Limit: 64" size="1" pos="21" show="64" value="40"/>
    <field name="ipv6.src" showname="Source: 2001:7ab:1::a" size="16" pos="22" show="2001:7ab:1::a" value="200107ab00010000000000000000000a"/>
    <field name="ipv6.addr" showname="Source or Destination Address: 2001:7ab:1::a" hide="yes" size="16" pos="22" show="2001:7ab:1::a" value="200107ab00010000000000000000000a"/>
    <field name="ipv6.src_host" showname="Source Host: 2001:7ab:1::a" hide="yes" size="16" pos="22" show="2001:7ab:1::a" value="200107ab00010000000000000000000a"/>
    <field name="ipv6.host" showname="Source or Destination Host: 2001:7ab:1::a" hide="yes" size="16" pos="22" show="2001:7ab:1::a" value="200107ab00010000000000000000000a"/>
    <field name="ipv6.dst" showname="Destination: 2001:7ab:2::b" size="16" pos="38" show="2001:7ab:2::b" value="200107ab00020000000000000000000b"/>
    <field name="ipv6.addr" showname="Source or Destination Address: 2001:7ab:2::b" hide="yes" size="16" pos="38" show="2001:7ab:2::b" value="200107ab00020000000000000000000b"/>
    <field name="ipv6.dst_host" showname="Destination Host: 2001:7ab:2::b" hide="yes" size="16" pos="38" show="2001:7ab:2::b" value="200107ab00020000000000000000000b"/>
    <field name="ipv6.host" showname="Source or Destination Host: 2001:7ab:2::b" hide="yes" size="16" pos="38" show="2001:7ab:2::b" value="200107ab00020000000000000000000b"/>
  </proto>
  <proto name="icmpv6" showname="Internet Control Message Protocol v6" size="64" pos="54">
    <field name="filtered" value="icmpv6" />
  </proto>
</packet>


<packet>
  <proto name="geninfo" pos="0" showname="General information" size="118">
    <field name="num" pos="0" show="2" showname="Number" value="2" size="118"/>
    <field name="len" pos="0" show="118" showname="Frame Length" value="76" size="118"/>
    <field name="caplen" pos="0" show="118" showname="Captured Length" value="76" size="118"/>
    <field name="timestamp" pos="0" show="Nov 22, 2018 10:01:03.302289000 CET" showname="Captured Time" value="1542877263.302289000" size="118"/>
  </proto>
  <proto name="frame" showname="Frame 2: 118 bytes on wire (944 bits), 118 bytes captured (944 bits)" size="118" pos="0">
    <field name="filtered" value="frame" />
  </proto>
  <proto name="eth" showname="Ethernet II, Src: 46:1e:eb:ae:85:b4, Dst: d6:2e:29:4a:cf:48" size="14" pos="0">
    <field name="filtered" value="eth" />
  </proto>
  <proto name="ipv6" showname="Internet Protocol Version 6, Src: 2001:7ab:1::a, Dst: 2001:7ab:2::b" size="40" pos="14">
    <field name="ipv6.version" showname="0110 .... = Version: 6" size="1" pos="14" show="6" value="6" unmaskedvalue="60"/>
    <field name="ip.version" showname="0110 .... = Version: 6 [This field makes the filter match on &quot;ip.version == 6&quot; possible]" hide="yes" size="1" pos="14" show="6" value="6" unmaskedvalue="60"/>
    <field name="ipv6.tclass" showname=".... 0000 0000 .... .... .... .... .... = Traffic Class: 0x00 (DSCP: CS0, ECN: Not-ECT)" size="4" pos="14" show="0x00000000" value="0" unmaskedvalue="6000df04">
      <field name="ipv6.tclass.dscp" showname=".... 0000 00.. .... .... .... .... .... = Differentiated Services Codepoint: Default (0)" size="4" pos="14" show="0" value="0" unmaskedvalue="6000df04"/>
      <field name="ipv6.tclass.ecn" showname=".... .... ..00 .... .... .... .... .... = Explicit Congestion Notification: Not ECN-Capable Transport (0)" size="4" pos="14" show="0" value="0" unmaskedvalue="6000df04"/>
    </field>
    <field name="ipv6.flow" showname=".... .... .... 0000 1101 1111 0000 0100 = Flow Label: 0x0df04" size="4" pos="14" show="0x0000df04" value="DF04" unmaskedvalue="6000df04"/>
    <field name="ipv6.plen" showname="Payload Length: 64" size="2" pos="18" show="64" value="0040"/>
    <field name="ipv6.nxt" showname="Next Header: ICMPv6 (58)" size="1" pos="20" show="58" value="3a"/>
    <field name="ipv6.hlim" showname="Hop Limit: 63" size="1" pos="21" show="63" value="3f"/>
    <field name="ipv6.src" showname="Source: 2001:7ab:1::a" size="16" pos="22" show="2001:7ab:1::a" value="200107ab00010000000000000000000a"/>
    <field name="ipv6.addr" showname="Source or Destination Address: 2001:7ab:1::a" hide="yes" size="16" pos="22" show="2001:7ab:1::a" value="200107ab00010000000000000000000a"/>
    <field name="ipv6.src_host" showname="Source Host: 2001:7ab:1::a" hide="yes" size="16" pos="22" show="2001:7ab:1::a" value="200107ab00010000000000000000000a"/>
    <field name="ipv6.host" showname="Source or Destination Host: 2001:7ab:1::a" hide="yes" size="16" pos="22" show="2001:7ab:1::a" value="200107ab00010000000000000000000a"/>
    <field name="ipv6.dst" showname="Destination: 2001:7ab:2::b" size="16" pos="38" show="2001:7ab:2::b" value="200107ab00020000000000000000000b"/>
    <field name="ipv6.addr" showname="Source or Destination Address: 2001:7ab:2::b" hide="yes" size="16" pos="38" show="2001:7ab:2::b" value="200107ab00020000000000000000000b"/>
    <field name="ipv6.dst_host" showname="Destination Host: 2001:7ab:2::b" hide="yes" size="16" pos="38" show="2001:7ab:2::b" value="200107ab00020000000000000000000b"/>
    <field name="ipv6.host" showname="Source or Destination Host: 2001:7ab:2::b" hide="yes" size="16" pos="38" show="2001:7ab:2::b" value="200107ab00020000000000000000000b"/>
  </proto>
  <proto name="icmpv6" showname="Internet Control Message Protocol v6" size="64" pos="54">
    <field name="filtered" value="icmpv6" />
  </proto>
</packet>


</pdml>
