<?xml version="1.0" encoding="utf-8"?>
<?xml-stylesheet type="text/xsl" href="pdml2html.xsl"?>
<!-- You can find pdml2html.xsl in /usr/local/share/wireshark or at https://code.wireshark.org/review/gitweb?p=wireshark.git;a=blob_plain;f=pdml2html.xsl. -->
<pdml version="0" creator="wireshark/3.1.1" time="Mon Nov  4 13:52:23 2019" capture_file="dns-example.pcap">
<packet>
  <proto name="geninfo" pos="0" showname="General information" size="106">
    <field name="num" pos="0" show="1" showname="Number" value="1" size="106"/>
    <field name="len" pos="0" show="106" showname="Frame Length" value="6a" size="106"/>
    <field name="caplen" pos="0" show="106" showname="Captured Length" value="6a" size="106"/>
    <field name="timestamp" pos="0" show="Sep  5, 2019 18:48:34.816542000 CEST" showname="Captured Time" value="1567702114.816542000" size="106"/>
  </proto>
  <proto name="frame" showname="Frame 1: 106 bytes on wire (848 bits), 106 bytes captured (848 bits)" size="106" pos="0">
    <field name="filtered" value="frame" />
  </proto>
  <proto name="eth" showname="Ethernet II, Src: 68:5b:35:ad:aa:e1, Dst: 00:1b:21:38:e9:78" size="14" pos="0">
    <field name="filtered" value="eth" />
  </proto>
  <proto name="ipv6" showname="Internet Protocol Version 6, Src: 2001:6a8:308f:2:f1f3:2f2f:397c:1cb5, Dst: 2001:6a8:3081:1::53" size="40" pos="14">
    <field name="filtered" value="ipv6" />
  </proto>
  <proto name="udp" showname="User Datagram Protocol" size="8" pos="54">
    <field name="filtered" value="udp" />
  </proto>
  <proto name="dns" showname="Domain Name System (query)" size="44" pos="62">
    <field name="dns.id" showname="Transaction ID: 0xe8ee" size="2" pos="62" show="0x0000e8ee" value="e8ee"/>
    <field name="dns.flags" showname="Flags: 0x0120 Standard query" size="2" pos="64" show="0x00000120" value="0120">
      <field name="dns.flags.response" showname="0... .... .... .... = Response: Message is a query" size="2" pos="64" show="0" value="0" unmaskedvalue="0120"/>
      <field name="dns.flags.opcode" showname=".000 0... .... .... = Opcode: Standard query (0)" size="2" pos="64" show="0" value="0" unmaskedvalue="0120"/>
      <field name="dns.flags.truncated" showname=".... ..0. .... .... = Truncated: Message is not truncated" size="2" pos="64" show="0" value="0" unmaskedvalue="0120"/>
      <field name="dns.flags.recdesired" showname=".... ...1 .... .... = Recursion desired: Do query recursively" size="2" pos="64" show="1" value="1" unmaskedvalue="0120"/>
      <field name="dns.flags.z" showname=".... .... .0.. .... = Z: reserved (0)" size="2" pos="64" show="0" value="0" unmaskedvalue="0120"/>
      <field name="dns.flags.authenticated" showname=".... .... ..1. .... = AD bit: Set" size="2" pos="64" show="1" value="1" unmaskedvalue="0120"/>
      <field name="dns.flags.checkdisable" showname=".... .... ...0 .... = Non-authenticated data: Unacceptable" size="2" pos="64" show="0" value="0" unmaskedvalue="0120"/>
    </field>
    <field name="dns.count.queries" showname="Questions: 1" size="2" pos="66" show="1" value="0001"/>
    <field name="dns.count.answers" showname="Answer RRs: 0" size="2" pos="68" show="0" value="0000"/>
    <field name="dns.count.auth_rr" showname="Authority RRs: 0" size="2" pos="70" show="0" value="0000"/>
    <field name="dns.count.add_rr" showname="Additional RRs: 1" size="2" pos="72" show="1" value="0001"/>
    <field name="" show="Queries" size="21" pos="74" value="03777777076578616d706c6503636f6d0000010001">
      <field name="" show="www.example.com: type A, class IN" size="21" pos="74" value="03777777076578616d706c6503636f6d0000010001">
        <field name="dns.qry.name" showname="Name: www.example.com" size="17" pos="74" show="www.example.com" value="03777777076578616d706c6503636f6d00"/>
        <field name="dns.qry.name.len" showname="Name Length: 15" size="17" pos="74" show="15" value="03777777076578616d706c6503636f6d00"/>
        <field name="dns.count.labels" showname="Label Count: 3" size="17" pos="74" show="3" value="03777777076578616d706c6503636f6d00"/>
        <field name="dns.qry.type" showname="Type: A (Host Address) (1)" size="2" pos="91" show="1" value="0001"/>
        <field name="dns.qry.class" showname="Class: IN (0x0001)" size="2" pos="93" show="0x00000001" value="0001"/>
      </field>
    </field>
    <field name="" show="Additional records" size="11" pos="95" value="0000291000000000000000">
      <field name="" show="&lt;Root&gt;: type OPT" size="11" pos="95" value="0000291000000000000000">
        <field name="dns.resp.name" showname="Name: &lt;Root&gt;" size="1" pos="95" show="&lt;Root&gt;" value="00"/>
        <field name="dns.resp.type" showname="Type: OPT (41)" size="2" pos="96" show="41" value="0029"/>
        <field name="dns.rr.udp_payload_size" showname="UDP payload size: 4096" size="2" pos="98" show="4096" value="1000"/>
        <field name="dns.resp.ext_rcode" showname="Higher bits in extended RCODE: 0x00" size="1" pos="100" show="0x00000000" value="00"/>
        <field name="dns.resp.edns0_version" showname="EDNS0 version: 0" size="1" pos="101" show="0" value="00"/>
        <field name="dns.resp.z" showname="Z: 0x0000" size="2" pos="102" show="0x00000000" value="0000">
          <field name="dns.resp.z.do" showname="0... .... .... .... = DO bit: Cannot handle DNSSEC security RRs" size="2" pos="102" show="0" value="0" unmaskedvalue="0000"/>
          <field name="dns.resp.z.reserved" showname=".000 0000 0000 0000 = Reserved: 0x0000" size="2" pos="102" show="0x00000000" value="0" unmaskedvalue="0000"/>
        </field>
        <field name="dns.resp.len" showname="Data length: 0" size="2" pos="104" show="0" value="0000"/>
      </field>
    </field>
  </proto>
</packet>


<packet>
  <proto name="geninfo" pos="0" showname="General information" size="170">
    <field name="num" pos="0" show="2" showname="Number" value="2" size="170"/>
    <field name="len" pos="0" show="170" showname="Frame Length" value="aa" size="170"/>
    <field name="caplen" pos="0" show="170" showname="Captured Length" value="aa" size="170"/>
    <field name="timestamp" pos="0" show="Sep  5, 2019 18:48:34.817367000 CEST" showname="Captured Time" value="1567702114.817367000" size="170"/>
  </proto>
  <proto name="frame" showname="Frame 2: 170 bytes on wire (1360 bits), 170 bytes captured (1360 bits)" size="170" pos="0">
    <field name="filtered" value="frame" />
  </proto>
  <proto name="eth" showname="Ethernet II, Src: 00:1b:21:38:e9:78, Dst: 68:5b:35:ad:aa:e1" size="14" pos="0">
    <field name="filtered" value="eth" />
  </proto>
  <proto name="ipv6" showname="Internet Protocol Version 6, Src: 2001:6a8:3081:1::53, Dst: 2001:6a8:308f:2:f1f3:2f2f:397c:1cb5" size="40" pos="14">
    <field name="filtered" value="ipv6" />
  </proto>
  <proto name="udp" showname="User Datagram Protocol" size="8" pos="54">
    <field name="filtered" value="udp" />
  </proto>
  <proto name="dns" showname="Domain Name System (response)" size="108" pos="62">
    <field name="dns.id" showname="Transaction ID: 0xe8ee" size="2" pos="62" show="0x0000e8ee" value="e8ee"/>
    <field name="dns.flags" showname="Flags: 0x81a0 Standard query response, No error" size="2" pos="64" show="0x000081a0" value="81a0">
      <field name="dns.flags.response" showname="1... .... .... .... = Response: Message is a response" size="2" pos="64" show="1" value="1" unmaskedvalue="81a0"/>
      <field name="dns.flags.opcode" showname=".000 0... .... .... = Opcode: Standard query (0)" size="2" pos="64" show="0" value="0" unmaskedvalue="81a0"/>
      <field name="dns.flags.authoritative" showname=".... .0.. .... .... = Authoritative: Server is not an authority for domain" size="2" pos="64" show="0" value="0" unmaskedvalue="81a0"/>
      <field name="dns.flags.truncated" showname=".... ..0. .... .... = Truncated: Message is not truncated" size="2" pos="64" show="0" value="0" unmaskedvalue="81a0"/>
      <field name="dns.flags.recdesired" showname=".... ...1 .... .... = Recursion desired: Do query recursively" size="2" pos="64" show="1" value="1" unmaskedvalue="81a0"/>
      <field name="dns.flags.recavail" showname=".... .... 1... .... = Recursion available: Server can do recursive queries" size="2" pos="64" show="1" value="1" unmaskedvalue="81a0"/>
      <field name="dns.flags.z" showname=".... .... .0.. .... = Z: reserved (0)" size="2" pos="64" show="0" value="0" unmaskedvalue="81a0"/>
      <field name="dns.flags.authenticated" showname=".... .... ..1. .... = Answer authenticated: Answer/authority portion was authenticated by the server" size="2" pos="64" show="1" value="1" unmaskedvalue="81a0"/>
      <field name="dns.flags.checkdisable" showname=".... .... ...0 .... = Non-authenticated data: Unacceptable" size="2" pos="64" show="0" value="0" unmaskedvalue="81a0"/>
      <field name="dns.flags.rcode" showname=".... .... .... 0000 = Reply code: No error (0)" size="2" pos="64" show="0" value="0" unmaskedvalue="81a0"/>
    </field>
    <field name="dns.count.queries" showname="Questions: 1" size="2" pos="66" show="1" value="0001"/>
    <field name="dns.count.answers" showname="Answer RRs: 1" size="2" pos="68" show="1" value="0001"/>
    <field name="dns.count.auth_rr" showname="Authority RRs: 2" size="2" pos="70" show="2" value="0002"/>
    <field name="dns.count.add_rr" showname="Additional RRs: 1" size="2" pos="72" show="1" value="0001"/>
    <field name="" show="Queries" size="21" pos="74" value="03777777076578616d706c6503636f6d0000010001">
      <field name="" show="www.example.com: type A, class IN" size="21" pos="74" value="03777777076578616d706c6503636f6d0000010001">
        <field name="dns.qry.name" showname="Name: www.example.com" size="17" pos="74" show="www.example.com" value="03777777076578616d706c6503636f6d00"/>
        <field name="dns.qry.name.len" showname="Name Length: 15" size="17" pos="74" show="15" value="03777777076578616d706c6503636f6d00"/>
        <field name="dns.count.labels" showname="Label Count: 3" size="17" pos="74" show="3" value="03777777076578616d706c6503636f6d00"/>
        <field name="dns.qry.type" showname="Type: A (Host Address) (1)" size="2" pos="91" show="1" value="0001"/>
        <field name="dns.qry.class" showname="Class: IN (0x0001)" size="2" pos="93" show="0x00000001" value="0001"/>
      </field>
    </field>
    <field name="" show="Answers" size="16" pos="95" value="c00c000100010001035400045db8d822">
      <field name="" show="www.example.com: type A, class IN, addr 93.184.216.34" size="16" pos="95" value="c00c000100010001035400045db8d822">
        <field name="dns.resp.name" showname="Name: www.example.com" size="2" pos="95" show="www.example.com" value="c00c"/>
        <field name="dns.resp.type" showname="Type: A (Host Address) (1)" size="2" pos="97" show="1" value="0001"/>
        <field name="dns.resp.class" showname="Class: IN (0x0001)" size="2" pos="99" show="0x00000001" value="0001"/>
        <field name="dns.resp.ttl" showname="Time to live: 66388" size="4" pos="101" show="66388" value="00010354"/>
        <field name="dns.resp.len" showname="Data length: 4" size="2" pos="105" show="4" value="0004"/>
        <field name="dns.a" showname="Address: 93.184.216.34" size="4" pos="107" show="93.184.216.34" value="5db8d822"/>
      </field>
    </field>
    <field name="" show="Authoritative nameservers" size="48" pos="111" value="c0100002000100010210001401620c69616e612d73657276657273036e657400c010000200010001021000040161c03f">
      <field name="" show="example.com: type NS, class IN, ns b.iana-servers.net" size="32" pos="111" value="c0100002000100010210001401620c69616e612d73657276657273036e657400">
        <field name="dns.resp.name" showname="Name: example.com" size="2" pos="111" show="example.com" value="c010"/>
        <field name="dns.resp.type" showname="Type: NS (authoritative Name Server) (2)" size="2" pos="113" show="2" value="0002"/>
        <field name="dns.resp.class" showname="Class: IN (0x0001)" size="2" pos="115" show="0x00000001" value="0001"/>
        <field name="dns.resp.ttl" showname="Time to live: 66064" size="4" pos="117" show="66064" value="00010210"/>
        <field name="dns.resp.len" showname="Data length: 20" size="2" pos="121" show="20" value="0014"/>
        <field name="dns.ns" showname="Name Server: b.iana-servers.net" size="20" pos="123" show="b.iana-servers.net" value="01620c69616e612d73657276657273036e657400"/>
      </field>
      <field name="" show="example.com: type NS, class IN, ns a.iana-servers.net" size="16" pos="143" value="c010000200010001021000040161c03f">
        <field name="dns.resp.name" showname="Name: example.com" size="2" pos="143" show="example.com" value="c010"/>
        <field name="dns.resp.type" showname="Type: NS (authoritative Name Server) (2)" size="2" pos="145" show="2" value="0002"/>
        <field name="dns.resp.class" showname="Class: IN (0x0001)" size="2" pos="147" show="0x00000001" value="0001"/>
        <field name="dns.resp.ttl" showname="Time to live: 66064" size="4" pos="149" show="66064" value="00010210"/>
        <field name="dns.resp.len" showname="Data length: 4" size="2" pos="153" show="4" value="0004"/>
        <field name="dns.ns" showname="Name Server: a.iana-servers.net" size="4" pos="155" show="a.iana-servers.net" value="0161c03f"/>
      </field>
    </field>
    <field name="" show="Additional records" size="11" pos="159" value="0000291000000000000000">
      <field name="" show="&lt;Root&gt;: type OPT" size="11" pos="159" value="0000291000000000000000">
        <field name="dns.resp.name" showname="Name: &lt;Root&gt;" size="1" pos="159" show="&lt;Root&gt;" value="00"/>
        <field name="dns.resp.type" showname="Type: OPT (41)" size="2" pos="160" show="41" value="0029"/>
        <field name="dns.rr.udp_payload_size" showname="UDP payload size: 4096" size="2" pos="162" show="4096" value="1000"/>
        <field name="dns.resp.ext_rcode" showname="Higher bits in extended RCODE: 0x00" size="1" pos="164" show="0x00000000" value="00"/>
        <field name="dns.resp.edns0_version" showname="EDNS0 version: 0" size="1" pos="165" show="0" value="00"/>
        <field name="dns.resp.z" showname="Z: 0x0000" size="2" pos="166" show="0x00000000" value="0000">
          <field name="dns.resp.z.do" showname="0... .... .... .... = DO bit: Cannot handle DNSSEC security RRs" size="2" pos="166" show="0" value="0" unmaskedvalue="0000"/>
          <field name="dns.resp.z.reserved" showname=".000 0000 0000 0000 = Reserved: 0x0000" size="2" pos="166" show="0x00000000" value="0" unmaskedvalue="0000"/>
        </field>
        <field name="dns.resp.len" showname="Data length: 0" size="2" pos="168" show="0" value="0000"/>
      </field>
    </field>
    <field name="dns.response_to" showname="Request In: 1" size="0" pos="62" show="1"/>
    <field name="dns.time" showname="Time: 0.000825000 seconds" size="0" pos="62" show="0.000825000"/>
  </proto>
</packet>


<packet>
  <proto name="geninfo" pos="0" showname="General information" size="83">
    <field name="num" pos="0" show="3" showname="Number" value="3" size="83"/>
    <field name="len" pos="0" show="83" showname="Frame Length" value="53" size="83"/>
    <field name="caplen" pos="0" show="83" showname="Captured Length" value="53" size="83"/>
    <field name="timestamp" pos="0" show="Sep  5, 2019 18:48:34.887736000 CEST" showname="Captured Time" value="1567702114.887736000" size="83"/>
  </proto>
  <proto name="frame" showname="Frame 3: 83 bytes on wire (664 bits), 83 bytes captured (664 bits)" size="83" pos="0">
    <field name="filtered" value="frame" />
  </proto>
  <proto name="eth" showname="Ethernet II, Src: 68:5b:35:ad:aa:e1, Dst: 00:1b:21:38:e9:78" size="14" pos="0">
    <field name="filtered" value="eth" />
  </proto>
  <proto name="ipv6" showname="Internet Protocol Version 6, Src: 2001:6a8:308f:2:f1f3:2f2f:397c:1cb5, Dst: 2001:7fd::1" size="40" pos="14">
    <field name="filtered" value="ipv6" />
  </proto>
  <proto name="udp" showname="User Datagram Protocol" size="8" pos="54">
    <field name="filtered" value="udp" />
  </proto>
  <proto name="dns" showname="Domain Name System (query)" size="21" pos="62">
    <field name="dns.id" showname="Transaction ID: 0x4ec9" size="2" pos="62" show="0x00004ec9" value="4ec9"/>
    <field name="dns.flags" showname="Flags: 0x0120 Standard query" size="2" pos="64" show="0x00000120" value="0120">
      <field name="dns.flags.response" showname="0... .... .... .... = Response: Message is a query" size="2" pos="64" show="0" value="0" unmaskedvalue="0120"/>
      <field name="dns.flags.opcode" showname=".000 0... .... .... = Opcode: Standard query (0)" size="2" pos="64" show="0" value="0" unmaskedvalue="0120"/>
      <field name="dns.flags.truncated" showname=".... ..0. .... .... = Truncated: Message is not truncated" size="2" pos="64" show="0" value="0" unmaskedvalue="0120"/>
      <field name="dns.flags.recdesired" showname=".... ...1 .... .... = Recursion desired: Do query recursively" size="2" pos="64" show="1" value="1" unmaskedvalue="0120"/>
      <field name="dns.flags.z" showname=".... .... .0.. .... = Z: reserved (0)" size="2" pos="64" show="0" value="0" unmaskedvalue="0120"/>
      <field name="dns.flags.authenticated" showname=".... .... ..1. .... = AD bit: Set" size="2" pos="64" show="1" value="1" unmaskedvalue="0120"/>
      <field name="dns.flags.checkdisable" showname=".... .... ...0 .... = Non-authenticated data: Unacceptable" size="2" pos="64" show="0" value="0" unmaskedvalue="0120"/>
    </field>
    <field name="dns.count.queries" showname="Questions: 1" size="2" pos="66" show="1" value="0001"/>
    <field name="dns.count.answers" showname="Answer RRs: 0" size="2" pos="68" show="0" value="0000"/>
    <field name="dns.count.auth_rr" showname="Authority RRs: 0" size="2" pos="70" show="0" value="0000"/>
    <field name="dns.count.add_rr" showname="Additional RRs: 0" size="2" pos="72" show="0" value="0000"/>
    <field name="" show="Queries" size="9" pos="74" value="03636f6d0000020001">
      <field name="" show="com: type NS, class IN" size="9" pos="74" value="03636f6d0000020001">
        <field name="dns.qry.name" showname="Name: com" size="5" pos="74" show="com" value="03636f6d00"/>
        <field name="dns.qry.name.len" showname="Name Length: 3" size="5" pos="74" show="3" value="03636f6d00"/>
        <field name="dns.count.labels" showname="Label Count: 1" size="5" pos="74" show="1" value="03636f6d00"/>
        <field name="dns.qry.type" showname="Type: NS (authoritative Name Server) (2)" size="2" pos="79" show="2" value="0002"/>
        <field name="dns.qry.class" showname="Class: IN (0x0001)" size="2" pos="81" show="0x00000001" value="0001"/>
      </field>
    </field>
  </proto>
</packet>


<packet>
  <proto name="geninfo" pos="0" showname="General information" size="559">
    <field name="num" pos="0" show="4" showname="Number" value="4" size="559"/>
    <field name="len" pos="0" show="559" showname="Frame Length" value="22f" size="559"/>
    <field name="caplen" pos="0" show="559" showname="Captured Length" value="22f" size="559"/>
    <field name="timestamp" pos="0" show="Sep  5, 2019 18:48:34.898579000 CEST" showname="Captured Time" value="1567702114.898579000" size="559"/>
  </proto>
  <proto name="frame" showname="Frame 4: 559 bytes on wire (4472 bits), 559 bytes captured (4472 bits)" size="559" pos="0">
    <field name="filtered" value="frame" />
  </proto>
  <proto name="eth" showname="Ethernet II, Src: 00:1b:21:38:e9:78, Dst: 68:5b:35:ad:aa:e1" size="14" pos="0">
    <field name="filtered" value="eth" />
  </proto>
  <proto name="ipv6" showname="Internet Protocol Version 6, Src: 2001:7fd::1, Dst: 2001:6a8:308f:2:f1f3:2f2f:397c:1cb5" size="40" pos="14">
    <field name="filtered" value="ipv6" />
  </proto>
  <proto name="udp" showname="User Datagram Protocol" size="8" pos="54">
    <field name="filtered" value="udp" />
  </proto>
  <proto name="dns" showname="Domain Name System (response)" size="497" pos="62">
    <field name="dns.id" showname="Transaction ID: 0x4ec9" size="2" pos="62" show="0x00004ec9" value="4ec9"/>
    <field name="dns.flags" showname="Flags: 0x8100 Standard query response, No error" size="2" pos="64" show="0x00008100" value="8100">
      <field name="dns.flags.response" showname="1... .... .... .... = Response: Message is a response" size="2" pos="64" show="1" value="1" unmaskedvalue="8100"/>
      <field name="dns.flags.opcode" showname=".000 0... .... .... = Opcode: Standard query (0)" size="2" pos="64" show="0" value="0" unmaskedvalue="8100"/>
      <field name="dns.flags.authoritative" showname=".... .0.. .... .... = Authoritative: Server is not an authority for domain" size="2" pos="64" show="0" value="0" unmaskedvalue="8100"/>
      <field name="dns.flags.truncated" showname=".... ..0. .... .... = Truncated: Message is not truncated" size="2" pos="64" show="0" value="0" unmaskedvalue="8100"/>
      <field name="dns.flags.recdesired" showname=".... ...1 .... .... = Recursion desired: Do query recursively" size="2" pos="64" show="1" value="1" unmaskedvalue="8100"/>
      <field name="dns.flags.recavail" showname=".... .... 0... .... = Recursion available: Server can&#x27;t do recursive queries" size="2" pos="64" show="0" value="0" unmaskedvalue="8100"/>
      <field name="dns.flags.z" showname=".... .... .0.. .... = Z: reserved (0)" size="2" pos="64" show="0" value="0" unmaskedvalue="8100"/>
      <field name="dns.flags.authenticated" showname=".... .... ..0. .... = Answer authenticated: Answer/authority portion was not authenticated by the server" size="2" pos="64" show="0" value="0" unmaskedvalue="8100"/>
      <field name="dns.flags.checkdisable" showname=".... .... ...0 .... = Non-authenticated data: Unacceptable" size="2" pos="64" show="0" value="0" unmaskedvalue="8100"/>
      <field name="dns.flags.rcode" showname=".... .... .... 0000 = Reply code: No error (0)" size="2" pos="64" show="0" value="0" unmaskedvalue="8100"/>
    </field>
    <field name="dns.count.queries" showname="Questions: 1" size="2" pos="66" show="1" value="0001"/>
    <field name="dns.count.answers" showname="Answer RRs: 0" size="2" pos="68" show="0" value="0000"/>
    <field name="dns.count.auth_rr" showname="Authority RRs: 13" size="2" pos="70" show="13" value="000d"/>
    <field name="dns.count.add_rr" showname="Additional RRs: 9" size="2" pos="72" show="9" value="0009"/>
    <field name="" show="Queries" size="9" pos="74" value="03636f6d0000020001">
      <field name="" show="com: type NS, class IN" size="9" pos="74" value="03636f6d0000020001">
        <field name="dns.qry.name" showname="Name: com" size="5" pos="74" show="com" value="03636f6d00"/>
        <field name="dns.qry.name.len" showname="Name Length: 3" size="5" pos="74" show="3" value="03636f6d00"/>
        <field name="dns.count.labels" showname="Label Count: 1" size="5" pos="74" show="1" value="03636f6d00"/>
        <field name="dns.qry.type" showname="Type: NS (authoritative Name Server) (2)" size="2" pos="79" show="2" value="0002"/>
        <field name="dns.qry.class" showname="Class: IN (0x0001)" size="2" pos="81" show="0x00000001" value="0001"/>
      </field>
    </field>
    <field name="" show="Authoritative nameservers" size="224" pos="83" value="c00c000200010002a300001401630c67746c642d73657276657273036e657400c00c000200010002a30000040161c023c00c000200010002a30000040164c023c00c000200010002a30000040165c023c00c000200010002a30000040169c023c00c000200010002a3000004016bc023c00c000200010002a30000040167c023c00c000200010002a30000040162c023c00c000200010002a3000004016ac023c00c000200010002a30000040166c023c00c000200010002a3000004016cc023c00c000200010002a3000004016dc023c00c000200010002a30000040168c023">
      <field name="" show="com: type NS, class IN, ns c.gtld-servers.net" size="32" pos="83" value="c00c000200010002a300001401630c67746c642d73657276657273036e657400">
        <field name="dns.resp.name" showname="Name: com" size="2" pos="83" show="com" value="c00c"/>
        <field name="dns.resp.type" showname="Type: NS (authoritative Name Server) (2)" size="2" pos="85" show="2" value="0002"/>
        <field name="dns.resp.class" showname="Class: IN (0x0001)" size="2" pos="87" show="0x00000001" value="0001"/>
        <field name="dns.resp.ttl" showname="Time to live: 172800" size="4" pos="89" show="172800" value="0002a300"/>
        <field name="dns.resp.len" showname="Data length: 20" size="2" pos="93" show="20" value="0014"/>
        <field name="dns.ns" showname="Name Server: c.gtld-servers.net" size="20" pos="95" show="c.gtld-servers.net" value="01630c67746c642d73657276657273036e657400"/>
      </field>
      <field name="" show="com: type NS, class IN, ns a.gtld-servers.net" size="16" pos="115" value="c00c000200010002a30000040161c023">
        <field name="dns.resp.name" showname="Name: com" size="2" pos="115" show="com" value="c00c"/>
        <field name="dns.resp.type" showname="Type: NS (authoritative Name Server) (2)" size="2" pos="117" show="2" value="0002"/>
        <field name="dns.resp.class" showname="Class: IN (0x0001)" size="2" pos="119" show="0x00000001" value="0001"/>
        <field name="dns.resp.ttl" showname="Time to live: 172800" size="4" pos="121" show="172800" value="0002a300"/>
        <field name="dns.resp.len" showname="Data length: 4" size="2" pos="125" show="4" value="0004"/>
        <field name="dns.ns" showname="Name Server: a.gtld-servers.net" size="4" pos="127" show="a.gtld-servers.net" value="0161c023"/>
      </field>
      <field name="" show="com: type NS, class IN, ns d.gtld-servers.net" size="16" pos="131" value="c00c000200010002a30000040164c023">
        <field name="dns.resp.name" showname="Name: com" size="2" pos="131" show="com" value="c00c"/>
        <field name="dns.resp.type" showname="Type: NS (authoritative Name Server) (2)" size="2" pos="133" show="2" value="0002"/>
        <field name="dns.resp.class" showname="Class: IN (0x0001)" size="2" pos="135" show="0x00000001" value="0001"/>
        <field name="dns.resp.ttl" showname="Time to live: 172800" size="4" pos="137" show="172800" value="0002a300"/>
        <field name="dns.resp.len" showname="Data length: 4" size="2" pos="141" show="4" value="0004"/>
        <field name="dns.ns" showname="Name Server: d.gtld-servers.net" size="4" pos="143" show="d.gtld-servers.net" value="0164c023"/>
      </field>
      <field name="" show="com: type NS, class IN, ns e.gtld-servers.net" size="16" pos="147" value="c00c000200010002a30000040165c023">
        <field name="dns.resp.name" showname="Name: com" size="2" pos="147" show="com" value="c00c"/>
        <field name="dns.resp.type" showname="Type: NS (authoritative Name Server) (2)" size="2" pos="149" show="2" value="0002"/>
        <field name="dns.resp.class" showname="Class: IN (0x0001)" size="2" pos="151" show="0x00000001" value="0001"/>
        <field name="dns.resp.ttl" showname="Time to live: 172800" size="4" pos="153" show="172800" value="0002a300"/>
        <field name="dns.resp.len" showname="Data length: 4" size="2" pos="157" show="4" value="0004"/>
        <field name="dns.ns" showname="Name Server: e.gtld-servers.net" size="4" pos="159" show="e.gtld-servers.net" value="0165c023"/>
      </field>
      <field name="" show="com: type NS, class IN, ns i.gtld-servers.net" size="16" pos="163" value="c00c000200010002a30000040169c023">
        <field name="dns.resp.name" showname="Name: com" size="2" pos="163" show="com" value="c00c"/>
        <field name="dns.resp.type" showname="Type: NS (authoritative Name Server) (2)" size="2" pos="165" show="2" value="0002"/>
        <field name="dns.resp.class" showname="Class: IN (0x0001)" size="2" pos="167" show="0x00000001" value="0001"/>
        <field name="dns.resp.ttl" showname="Time to live: 172800" size="4" pos="169" show="172800" value="0002a300"/>
        <field name="dns.resp.len" showname="Data length: 4" size="2" pos="173" show="4" value="0004"/>
        <field name="dns.ns" showname="Name Server: i.gtld-servers.net" size="4" pos="175" show="i.gtld-servers.net" value="0169c023"/>
      </field>
      <field name="" show="com: type NS, class IN, ns k.gtld-servers.net" size="16" pos="179" value="c00c000200010002a3000004016bc023">
        <field name="dns.resp.name" showname="Name: com" size="2" pos="179" show="com" value="c00c"/>
        <field name="dns.resp.type" showname="Type: NS (authoritative Name Server) (2)" size="2" pos="181" show="2" value="0002"/>
        <field name="dns.resp.class" showname="Class: IN (0x0001)" size="2" pos="183" show="0x00000001" value="0001"/>
        <field name="dns.resp.ttl" showname="Time to live: 172800" size="4" pos="185" show="172800" value="0002a300"/>
        <field name="dns.resp.len" showname="Data length: 4" size="2" pos="189" show="4" value="0004"/>
        <field name="dns.ns" showname="Name Server: k.gtld-servers.net" size="4" pos="191" show="k.gtld-servers.net" value="016bc023"/>
      </field>
      <field name="" show="com: type NS, class IN, ns g.gtld-servers.net" size="16" pos="195" value="c00c000200010002a30000040167c023">
        <field name="dns.resp.name" showname="Name: com" size="2" pos="195" show="com" value="c00c"/>
        <field name="dns.resp.type" showname="Type: NS (authoritative Name Server) (2)" size="2" pos="197" show="2" value="0002"/>
        <field name="dns.resp.class" showname="Class: IN (0x0001)" size="2" pos="199" show="0x00000001" value="0001"/>
        <field name="dns.resp.ttl" showname="Time to live: 172800" size="4" pos="201" show="172800" value="0002a300"/>
        <field name="dns.resp.len" showname="Data length: 4" size="2" pos="205" show="4" value="0004"/>
        <field name="dns.ns" showname="Name Server: g.gtld-servers.net" size="4" pos="207" show="g.gtld-servers.net" value="0167c023"/>
      </field>
      <field name="" show="com: type NS, class IN, ns b.gtld-servers.net" size="16" pos="211" value="c00c000200010002a30000040162c023">
        <field name="dns.resp.name" showname="Name: com" size="2" pos="211" show="com" value="c00c"/>
        <field name="dns.resp.type" showname="Type: NS (authoritative Name Server) (2)" size="2" pos="213" show="2" value="0002"/>
        <field name="dns.resp.class" showname="Class: IN (0x0001)" size="2" pos="215" show="0x00000001" value="0001"/>
        <field name="dns.resp.ttl" showname="Time to live: 172800" size="4" pos="217" show="172800" value="0002a300"/>
        <field name="dns.resp.len" showname="Data length: 4" size="2" pos="221" show="4" value="0004"/>
        <field name="dns.ns" showname="Name Server: b.gtld-servers.net" size="4" pos="223" show="b.gtld-servers.net" value="0162c023"/>
      </field>
      <field name="" show="com: type NS, class IN, ns j.gtld-servers.net" size="16" pos="227" value="c00c000200010002a3000004016ac023">
        <field name="dns.resp.name" showname="Name: com" size="2" pos="227" show="com" value="c00c"/>
        <field name="dns.resp.type" showname="Type: NS (authoritative Name Server) (2)" size="2" pos="229" show="2" value="0002"/>
        <field name="dns.resp.class" showname="Class: IN (0x0001)" size="2" pos="231" show="0x00000001" value="0001"/>
        <field name="dns.resp.ttl" showname="Time to live: 172800" size="4" pos="233" show="172800" value="0002a300"/>
        <field name="dns.resp.len" showname="Data length: 4" size="2" pos="237" show="4" value="0004"/>
        <field name="dns.ns" showname="Name Server: j.gtld-servers.net" size="4" pos="239" show="j.gtld-servers.net" value="016ac023"/>
      </field>
      <field name="" show="com: type NS, class IN, ns f.gtld-servers.net" size="16" pos="243" value="c00c000200010002a30000040166c023">
        <field name="dns.resp.name" showname="Name: com" size="2" pos="243" show="com" value="c00c"/>
        <field name="dns.resp.type" showname="Type: NS (authoritative Name Server) (2)" size="2" pos="245" show="2" value="0002"/>
        <field name="dns.resp.class" showname="Class: IN (0x0001)" size="2" pos="247" show="0x00000001" value="0001"/>
        <field name="dns.resp.ttl" showname="Time to live: 172800" size="4" pos="249" show="172800" value="0002a300"/>
        <field name="dns.resp.len" showname="Data length: 4" size="2" pos="253" show="4" value="0004"/>
        <field name="dns.ns" showname="Name Server: f.gtld-servers.net" size="4" pos="255" show="f.gtld-servers.net" value="0166c023"/>
      </field>
      <field name="" show="com: type NS, class IN, ns l.gtld-servers.net" size="16" pos="259" value="c00c000200010002a3000004016cc023">
        <field name="dns.resp.name" showname="Name: com" size="2" pos="259" show="com" value="c00c"/>
        <field name="dns.resp.type" showname="Type: NS (authoritative Name Server) (2)" size="2" pos="261" show="2" value="0002"/>
        <field name="dns.resp.class" showname="Class: IN (0x0001)" size="2" pos="263" show="0x00000001" value="0001"/>
        <field name="dns.resp.ttl" showname="Time to live: 172800" size="4" pos="265" show="172800" value="0002a300"/>
        <field name="dns.resp.len" showname="Data length: 4" size="2" pos="269" show="4" value="0004"/>
        <field name="dns.ns" showname="Name Server: l.gtld-servers.net" size="4" pos="271" show="l.gtld-servers.net" value="016cc023"/>
      </field>
      <field name="" show="com: type NS, class IN, ns m.gtld-servers.net" size="16" pos="275" value="c00c000200010002a3000004016dc023">
        <field name="dns.resp.name" showname="Name: com" size="2" pos="275" show="com" value="c00c"/>
        <field name="dns.resp.type" showname="Type: NS (authoritative Name Server) (2)" size="2" pos="277" show="2" value="0002"/>
        <field name="dns.resp.class" showname="Class: IN (0x0001)" size="2" pos="279" show="0x00000001" value="0001"/>
        <field name="dns.resp.ttl" showname="Time to live: 172800" size="4" pos="281" show="172800" value="0002a300"/>
        <field name="dns.resp.len" showname="Data length: 4" size="2" pos="285" show="4" value="0004"/>
        <field name="dns.ns" showname="Name Server: m.gtld-servers.net" size="4" pos="287" show="m.gtld-servers.net" value="016dc023"/>
      </field>
      <field name="" show="com: type NS, class IN, ns h.gtld-servers.net" size="16" pos="291" value="c00c000200010002a30000040168c023">
        <field name="dns.resp.name" showname="Name: com" size="2" pos="291" show="com" value="c00c"/>
        <field name="dns.resp.type" showname="Type: NS (authoritative Name Server) (2)" size="2" pos="293" show="2" value="0002"/>
        <field name="dns.resp.class" showname="Class: IN (0x0001)" size="2" pos="295" show="0x00000001" value="0001"/>
        <field name="dns.resp.ttl" showname="Time to live: 172800" size="4" pos="297" show="172800" value="0002a300"/>
        <field name="dns.resp.len" showname="Data length: 4" size="2" pos="301" show="4" value="0004"/>
        <field name="dns.ns" showname="Name Server: h.gtld-servers.net" size="4" pos="303" show="h.gtld-servers.net" value="0168c023"/>
      </field>
    </field>
    <field name="" show="Additional records" size="252" pos="307" value="c0e1001c00010002a300001020010501b1f900000000000000000030c0d1001c00010002a300001020010500d93700000000000000000030c081001c00010002a3000010200105030d2d00000000000000000030c0b1001c00010002a300001020010502709400000000000000000030c071001c00010002a30000102001050339c100000000000000000030c0f1001c00010002a30000102001050208cc00000000000000000030c091001c00010002a300001020010503eea300000000000000000030c0c1001c00010002a300001020010503d41400000000000000000030c061001c00010002a3000010200105021ca100000000000000000030">
      <field name="" show="m.gtld-servers.net: type AAAA, class IN, addr 2001:501:b1f9::30" size="28" pos="307" value="c0e1001c00010002a300001020010501b1f900000000000000000030">
        <field name="dns.resp.name" showname="Name: m.gtld-servers.net" size="2" pos="307" show="m.gtld-servers.net" value="c0e1"/>
        <field name="dns.resp.type" showname="Type: AAAA (IPv6 Address) (28)" size="2" pos="309" show="28" value="001c"/>
        <field name="dns.resp.class" showname="Class: IN (0x0001)" size="2" pos="311" show="0x00000001" value="0001"/>
        <field name="dns.resp.ttl" showname="Time to live: 172800" size="4" pos="313" show="172800" value="0002a300"/>
        <field name="dns.resp.len" showname="Data length: 16" size="2" pos="317" show="16" value="0010"/>
        <field name="dns.aaaa" showname="AAAA Address: 2001:501:b1f9::30" size="16" pos="319" show="2001:501:b1f9::30" value="20010501b1f900000000000000000030"/>
      </field>
      <field name="" show="l.gtld-servers.net: type AAAA, class IN, addr 2001:500:d937::30" size="28" pos="335" value="c0d1001c00010002a300001020010500d93700000000000000000030">
        <field name="dns.resp.name" showname="Name: l.gtld-servers.net" size="2" pos="335" show="l.gtld-servers.net" value="c0d1"/>
        <field name="dns.resp.type" showname="Type: AAAA (IPv6 Address) (28)" size="2" pos="337" show="28" value="001c"/>
        <field name="dns.resp.class" showname="Class: IN (0x0001)" size="2" pos="339" show="0x00000001" value="0001"/>
        <field name="dns.resp.ttl" showname="Time to live: 172800" size="4" pos="341" show="172800" value="0002a300"/>
        <field name="dns.resp.len" showname="Data length: 16" size="2" pos="345" show="16" value="0010"/>
        <field name="dns.aaaa" showname="AAAA Address: 2001:500:d937::30" size="16" pos="347" show="2001:500:d937::30" value="20010500d93700000000000000000030"/>
      </field>
      <field name="" show="k.gtld-servers.net: type AAAA, class IN, addr 2001:503:d2d::30" size="28" pos="363" value="c081001c00010002a3000010200105030d2d00000000000000000030">
        <field name="dns.resp.name" showname="Name: k.gtld-servers.net" size="2" pos="363" show="k.gtld-servers.net" value="c081"/>
        <field name="dns.resp.type" showname="Type: AAAA (IPv6 Address) (28)" size="2" pos="365" show="28" value="001c"/>
        <field name="dns.resp.class" showname="Class: IN (0x0001)" size="2" pos="367" show="0x00000001" value="0001"/>
        <field name="dns.resp.ttl" showname="Time to live: 172800" size="4" pos="369" show="172800" value="0002a300"/>
        <field name="dns.resp.len" showname="Data length: 16" size="2" pos="373" show="16" value="0010"/>
        <field name="dns.aaaa" showname="AAAA Address: 2001:503:d2d::30" size="16" pos="375" show="2001:503:d2d::30" value="200105030d2d00000000000000000030"/>
      </field>
      <field name="" show="j.gtld-servers.net: type AAAA, class IN, addr 2001:502:7094::30" size="28" pos="391" value="c0b1001c00010002a300001020010502709400000000000000000030">
        <field name="dns.resp.name" showname="Name: j.gtld-servers.net" size="2" pos="391" show="j.gtld-servers.net" value="c0b1"/>
        <field name="dns.resp.type" showname="Type: AAAA (IPv6 Address) (28)" size="2" pos="393" show="28" value="001c"/>
        <field name="dns.resp.class" showname="Class: IN (0x0001)" size="2" pos="395" show="0x00000001" value="0001"/>
        <field name="dns.resp.ttl" showname="Time to live: 172800" size="4" pos="397" show="172800" value="0002a300"/>
        <field name="dns.resp.len" showname="Data length: 16" size="2" pos="401" show="16" value="0010"/>
        <field name="dns.aaaa" showname="AAAA Address: 2001:502:7094::30" size="16" pos="403" show="2001:502:7094::30" value="20010502709400000000000000000030"/>
      </field>
      <field name="" show="i.gtld-servers.net: type AAAA, class IN, addr 2001:503:39c1::30" size="28" pos="419" value="c071001c00010002a30000102001050339c100000000000000000030">
        <field name="dns.resp.name" showname="Name: i.gtld-servers.net" size="2" pos="419" show="i.gtld-servers.net" value="c071"/>
        <field name="dns.resp.type" showname="Type: AAAA (IPv6 Address) (28)" size="2" pos="421" show="28" value="001c"/>
        <field name="dns.resp.class" showname="Class: IN (0x0001)" size="2" pos="423" show="0x00000001" value="0001"/>
        <field name="dns.resp.ttl" showname="Time to live: 172800" size="4" pos="425" show="172800" value="0002a300"/>
        <field name="dns.resp.len" showname="Data length: 16" size="2" pos="429" show="16" value="0010"/>
        <field name="dns.aaaa" showname="AAAA Address: 2001:503:39c1::30" size="16" pos="431" show="2001:503:39c1::30" value="2001050339c100000000000000000030"/>
      </field>
      <field name="" show="h.gtld-servers.net: type AAAA, class IN, addr 2001:502:8cc::30" size="28" pos="447" value="c0f1001c00010002a30000102001050208cc00000000000000000030">
        <field name="dns.resp.name" showname="Name: h.gtld-servers.net" size="2" pos="447" show="h.gtld-servers.net" value="c0f1"/>
        <field name="dns.resp.type" showname="Type: AAAA (IPv6 Address) (28)" size="2" pos="449" show="28" value="001c"/>
        <field name="dns.resp.class" showname="Class: IN (0x0001)" size="2" pos="451" show="0x00000001" value="0001"/>
        <field name="dns.resp.ttl" showname="Time to live: 172800" size="4" pos="453" show="172800" value="0002a300"/>
        <field name="dns.resp.len" showname="Data length: 16" size="2" pos="457" show="16" value="0010"/>
        <field name="dns.aaaa" showname="AAAA Address: 2001:502:8cc::30" size="16" pos="459" show="2001:502:8cc::30" value="2001050208cc00000000000000000030"/>
      </field>
      <field name="" show="g.gtld-servers.net: type AAAA, class IN, addr 2001:503:eea3::30" size="28" pos="475" value="c091001c00010002a300001020010503eea300000000000000000030">
        <field name="dns.resp.name" showname="Name: g.gtld-servers.net" size="2" pos="475" show="g.gtld-servers.net" value="c091"/>
        <field name="dns.resp.type" showname="Type: AAAA (IPv6 Address) (28)" size="2" pos="477" show="28" value="001c"/>
        <field name="dns.resp.class" showname="Class: IN (0x0001)" size="2" pos="479" show="0x00000001" value="0001"/>
        <field name="dns.resp.ttl" showname="Time to live: 172800" size="4" pos="481" show="172800" value="0002a300"/>
        <field name="dns.resp.len" showname="Data length: 16" size="2" pos="485" show="16" value="0010"/>
        <field name="dns.aaaa" showname="AAAA Address: 2001:503:eea3::30" size="16" pos="487" show="2001:503:eea3::30" value="20010503eea300000000000000000030"/>
      </field>
      <field name="" show="f.gtld-servers.net: type AAAA, class IN, addr 2001:503:d414::30" size="28" pos="503" value="c0c1001c00010002a300001020010503d41400000000000000000030">
        <field name="dns.resp.name" showname="Name: f.gtld-servers.net" size="2" pos="503" show="f.gtld-servers.net" value="c0c1"/>
        <field name="dns.resp.type" showname="Type: AAAA (IPv6 Address) (28)" size="2" pos="505" show="28" value="001c"/>
        <field name="dns.resp.class" showname="Class: IN (0x0001)" size="2" pos="507" show="0x00000001" value="0001"/>
        <field name="dns.resp.ttl" showname="Time to live: 172800" size="4" pos="509" show="172800" value="0002a300"/>
        <field name="dns.resp.len" showname="Data length: 16" size="2" pos="513" show="16" value="0010"/>
        <field name="dns.aaaa" showname="AAAA Address: 2001:503:d414::30" size="16" pos="515" show="2001:503:d414::30" value="20010503d41400000000000000000030"/>
      </field>
      <field name="" show="e.gtld-servers.net: type AAAA, class IN, addr 2001:502:1ca1::30" size="28" pos="531" value="c061001c00010002a3000010200105021ca100000000000000000030">
        <field name="dns.resp.name" showname="Name: e.gtld-servers.net" size="2" pos="531" show="e.gtld-servers.net" value="c061"/>
        <field name="dns.resp.type" showname="Type: AAAA (IPv6 Address) (28)" size="2" pos="533" show="28" value="001c"/>
        <field name="dns.resp.class" showname="Class: IN (0x0001)" size="2" pos="535" show="0x00000001" value="0001"/>
        <field name="dns.resp.ttl" showname="Time to live: 172800" size="4" pos="537" show="172800" value="0002a300"/>
        <field name="dns.resp.len" showname="Data length: 16" size="2" pos="541" show="16" value="0010"/>
        <field name="dns.aaaa" showname="AAAA Address: 2001:502:1ca1::30" size="16" pos="543" show="2001:502:1ca1::30" value="200105021ca100000000000000000030"/>
      </field>
    </field>
    <field name="dns.response_to" showname="Request In: 3" size="0" pos="62" show="3"/>
    <field name="dns.time" showname="Time: 0.010843000 seconds" size="0" pos="62" show="0.010843000"/>
  </proto>
</packet>


<packet>
  <proto name="geninfo" pos="0" showname="General information" size="91">
    <field name="num" pos="0" show="5" showname="Number" value="5" size="91"/>
    <field name="len" pos="0" show="91" showname="Frame Length" value="5b" size="91"/>
    <field name="caplen" pos="0" show="91" showname="Captured Length" value="5b" size="91"/>
    <field name="timestamp" pos="0" show="Sep  5, 2019 18:48:34.954276000 CEST" showname="Captured Time" value="1567702114.954276000" size="91"/>
  </proto>
  <proto name="frame" showname="Frame 5: 91 bytes on wire (728 bits), 91 bytes captured (728 bits)" size="91" pos="0">
    <field name="filtered" value="frame" />
  </proto>
  <proto name="eth" showname="Ethernet II, Src: 68:5b:35:ad:aa:e1, Dst: 00:1b:21:38:e9:78" size="14" pos="0">
    <field name="filtered" value="eth" />
  </proto>
  <proto name="ipv6" showname="Internet Protocol Version 6, Src: 2001:6a8:308f:2:f1f3:2f2f:397c:1cb5, Dst: 2001:501:b1f9::30" size="40" pos="14">
    <field name="filtered" value="ipv6" />
  </proto>
  <proto name="udp" showname="User Datagram Protocol" size="8" pos="54">
    <field name="filtered" value="udp" />
  </proto>
  <proto name="dns" showname="Domain Name System (query)" size="29" pos="62">
    <field name="dns.id" showname="Transaction ID: 0x2486" size="2" pos="62" show="0x00002486" value="2486"/>
    <field name="dns.flags" showname="Flags: 0x0120 Standard query" size="2" pos="64" show="0x00000120" value="0120">
      <field name="dns.flags.response" showname="0... .... .... .... = Response: Message is a query" size="2" pos="64" show="0" value="0" unmaskedvalue="0120"/>
      <field name="dns.flags.opcode" showname=".000 0... .... .... = Opcode: Standard query (0)" size="2" pos="64" show="0" value="0" unmaskedvalue="0120"/>
      <field name="dns.flags.truncated" showname=".... ..0. .... .... = Truncated: Message is not truncated" size="2" pos="64" show="0" value="0" unmaskedvalue="0120"/>
      <field name="dns.flags.recdesired" showname=".... ...1 .... .... = Recursion desired: Do query recursively" size="2" pos="64" show="1" value="1" unmaskedvalue="0120"/>
      <field name="dns.flags.z" showname=".... .... .0.. .... = Z: reserved (0)" size="2" pos="64" show="0" value="0" unmaskedvalue="0120"/>
      <field name="dns.flags.authenticated" showname=".... .... ..1. .... = AD bit: Set" size="2" pos="64" show="1" value="1" unmaskedvalue="0120"/>
      <field name="dns.flags.checkdisable" showname=".... .... ...0 .... = Non-authenticated data: Unacceptable" size="2" pos="64" show="0" value="0" unmaskedvalue="0120"/>
    </field>
    <field name="dns.count.queries" showname="Questions: 1" size="2" pos="66" show="1" value="0001"/>
    <field name="dns.count.answers" showname="Answer RRs: 0" size="2" pos="68" show="0" value="0000"/>
    <field name="dns.count.auth_rr" showname="Authority RRs: 0" size="2" pos="70" show="0" value="0000"/>
    <field name="dns.count.add_rr" showname="Additional RRs: 0" size="2" pos="72" show="0" value="0000"/>
    <field name="" show="Queries" size="17" pos="74" value="076578616d706c6503636f6d0000020001">
      <field name="" show="example.com: type NS, class IN" size="17" pos="74" value="076578616d706c6503636f6d0000020001">
        <field name="dns.qry.name" showname="Name: example.com" size="13" pos="74" show="example.com" value="076578616d706c6503636f6d00"/>
        <field name="dns.qry.name.len" showname="Name Length: 11" size="13" pos="74" show="11" value="076578616d706c6503636f6d00"/>
        <field name="dns.count.labels" showname="Label Count: 2" size="13" pos="74" show="2" value="076578616d706c6503636f6d00"/>
        <field name="dns.qry.type" showname="Type: NS (authoritative Name Server) (2)" size="2" pos="87" show="2" value="0002"/>
        <field name="dns.qry.class" showname="Class: IN (0x0001)" size="2" pos="89" show="0x00000001" value="0001"/>
      </field>
    </field>
  </proto>
</packet>


<packet>
  <proto name="geninfo" pos="0" showname="General information" size="139">
    <field name="num" pos="0" show="6" showname="Number" value="6" size="139"/>
    <field name="len" pos="0" show="139" showname="Frame Length" value="8b" size="139"/>
    <field name="caplen" pos="0" show="139" showname="Captured Length" value="8b" size="139"/>
    <field name="timestamp" pos="0" show="Sep  5, 2019 18:48:34.971643000 CEST" showname="Captured Time" value="1567702114.971643000" size="139"/>
  </proto>
  <proto name="frame" showname="Frame 6: 139 bytes on wire (1112 bits), 139 bytes captured (1112 bits)" size="139" pos="0">
    <field name="filtered" value="frame" />
  </proto>
  <proto name="eth" showname="Ethernet II, Src: 00:1b:21:38:e9:78, Dst: 68:5b:35:ad:aa:e1" size="14" pos="0">
    <field name="filtered" value="eth" />
  </proto>
  <proto name="ipv6" showname="Internet Protocol Version 6, Src: 2001:501:b1f9::30, Dst: 2001:6a8:308f:2:f1f3:2f2f:397c:1cb5" size="40" pos="14">
    <field name="filtered" value="ipv6" />
  </proto>
  <proto name="udp" showname="User Datagram Protocol" size="8" pos="54">
    <field name="filtered" value="udp" />
  </proto>
  <proto name="dns" showname="Domain Name System (response)" size="77" pos="62">
    <field name="dns.id" showname="Transaction ID: 0x2486" size="2" pos="62" show="0x00002486" value="2486"/>
    <field name="dns.flags" showname="Flags: 0x8100 Standard query response, No error" size="2" pos="64" show="0x00008100" value="8100">
      <field name="dns.flags.response" showname="1... .... .... .... = Response: Message is a response" size="2" pos="64" show="1" value="1" unmaskedvalue="8100"/>
      <field name="dns.flags.opcode" showname=".000 0... .... .... = Opcode: Standard query (0)" size="2" pos="64" show="0" value="0" unmaskedvalue="8100"/>
      <field name="dns.flags.authoritative" showname=".... .0.. .... .... = Authoritative: Server is not an authority for domain" size="2" pos="64" show="0" value="0" unmaskedvalue="8100"/>
      <field name="dns.flags.truncated" showname=".... ..0. .... .... = Truncated: Message is not truncated" size="2" pos="64" show="0" value="0" unmaskedvalue="8100"/>
      <field name="dns.flags.recdesired" showname=".... ...1 .... .... = Recursion desired: Do query recursively" size="2" pos="64" show="1" value="1" unmaskedvalue="8100"/>
      <field name="dns.flags.recavail" showname=".... .... 0... .... = Recursion available: Server can&#x27;t do recursive queries" size="2" pos="64" show="0" value="0" unmaskedvalue="8100"/>
      <field name="dns.flags.z" showname=".... .... .0.. .... = Z: reserved (0)" size="2" pos="64" show="0" value="0" unmaskedvalue="8100"/>
      <field name="dns.flags.authenticated" showname=".... .... ..0. .... = Answer authenticated: Answer/authority portion was not authenticated by the server" size="2" pos="64" show="0" value="0" unmaskedvalue="8100"/>
      <field name="dns.flags.checkdisable" showname=".... .... ...0 .... = Non-authenticated data: Unacceptable" size="2" pos="64" show="0" value="0" unmaskedvalue="8100"/>
      <field name="dns.flags.rcode" showname=".... .... .... 0000 = Reply code: No error (0)" size="2" pos="64" show="0" value="0" unmaskedvalue="8100"/>
    </field>
    <field name="dns.count.queries" showname="Questions: 1" size="2" pos="66" show="1" value="0001"/>
    <field name="dns.count.answers" showname="Answer RRs: 0" size="2" pos="68" show="0" value="0000"/>
    <field name="dns.count.auth_rr" showname="Authority RRs: 2" size="2" pos="70" show="2" value="0002"/>
    <field name="dns.count.add_rr" showname="Additional RRs: 0" size="2" pos="72" show="0" value="0000"/>
    <field name="" show="Queries" size="17" pos="74" value="076578616d706c6503636f6d0000020001">
      <field name="" show="example.com: type NS, class IN" size="17" pos="74" value="076578616d706c6503636f6d0000020001">
        <field name="dns.qry.name" showname="Name: example.com" size="13" pos="74" show="example.com" value="076578616d706c6503636f6d00"/>
        <field name="dns.qry.name.len" showname="Name Length: 11" size="13" pos="74" show="11" value="076578616d706c6503636f6d00"/>
        <field name="dns.count.labels" showname="Label Count: 2" size="13" pos="74" show="2" value="076578616d706c6503636f6d00"/>
        <field name="dns.qry.type" showname="Type: NS (authoritative Name Server) (2)" size="2" pos="87" show="2" value="0002"/>
        <field name="dns.qry.class" showname="Class: IN (0x0001)" size="2" pos="89" show="0x00000001" value="0001"/>
      </field>
    </field>
    <field name="" show="Authoritative nameservers" size="48" pos="91" value="c00c000200010002a300001401610c69616e612d73657276657273036e657400c00c000200010002a30000040162c02b">
      <field name="" show="example.com: type NS, class IN, ns a.iana-servers.net" size="32" pos="91" value="c00c000200010002a300001401610c69616e612d73657276657273036e657400">
        <field name="dns.resp.name" showname="Name: example.com" size="2" pos="91" show="example.com" value="c00c"/>
        <field name="dns.resp.type" showname="Type: NS (authoritative Name Server) (2)" size="2" pos="93" show="2" value="0002"/>
        <field name="dns.resp.class" showname="Class: IN (0x0001)" size="2" pos="95" show="0x00000001" value="0001"/>
        <field name="dns.resp.ttl" showname="Time to live: 172800" size="4" pos="97" show="172800" value="0002a300"/>
        <field name="dns.resp.len" showname="Data length: 20" size="2" pos="101" show="20" value="0014"/>
        <field name="dns.ns" showname="Name Server: a.iana-servers.net" size="20" pos="103" show="a.iana-servers.net" value="01610c69616e612d73657276657273036e657400"/>
      </field>
      <field name="" show="example.com: type NS, class IN, ns b.iana-servers.net" size="16" pos="123" value="c00c000200010002a30000040162c02b">
        <field name="dns.resp.name" showname="Name: example.com" size="2" pos="123" show="example.com" value="c00c"/>
        <field name="dns.resp.type" showname="Type: NS (authoritative Name Server) (2)" size="2" pos="125" show="2" value="0002"/>
        <field name="dns.resp.class" showname="Class: IN (0x0001)" size="2" pos="127" show="0x00000001" value="0001"/>
        <field name="dns.resp.ttl" showname="Time to live: 172800" size="4" pos="129" show="172800" value="0002a300"/>
        <field name="dns.resp.len" showname="Data length: 4" size="2" pos="133" show="4" value="0004"/>
        <field name="dns.ns" showname="Name Server: b.iana-servers.net" size="4" pos="135" show="b.iana-servers.net" value="0162c02b"/>
      </field>
    </field>
    <field name="dns.response_to" showname="Request In: 5" size="0" pos="62" show="5"/>
    <field name="dns.time" showname="Time: 0.017367000 seconds" size="0" pos="62" show="0.017367000"/>
  </proto>
</packet>


<packet>
  <proto name="geninfo" pos="0" showname="General information" size="83">
    <field name="num" pos="0" show="7" showname="Number" value="7" size="83"/>
    <field name="len" pos="0" show="83" showname="Frame Length" value="53" size="83"/>
    <field name="caplen" pos="0" show="83" showname="Captured Length" value="53" size="83"/>
    <field name="timestamp" pos="0" show="Sep  5, 2019 18:48:35.017296000 CEST" showname="Captured Time" value="1567702115.017296000" size="83"/>
  </proto>
  <proto name="frame" showname="Frame 7: 83 bytes on wire (664 bits), 83 bytes captured (664 bits)" size="83" pos="0">
    <field name="filtered" value="frame" />
  </proto>
  <proto name="eth" showname="Ethernet II, Src: 68:5b:35:ad:aa:e1, Dst: 00:1b:21:38:e9:78" size="14" pos="0">
    <field name="filtered" value="eth" />
  </proto>
  <proto name="ipv6" showname="Internet Protocol Version 6, Src: 2001:6a8:308f:2:f1f3:2f2f:397c:1cb5, Dst: 2001:7fd::1" size="40" pos="14">
    <field name="filtered" value="ipv6" />
  </proto>
  <proto name="udp" showname="User Datagram Protocol" size="8" pos="54">
    <field name="filtered" value="udp" />
  </proto>
  <proto name="dns" showname="Domain Name System (query)" size="21" pos="62">
    <field name="dns.id" showname="Transaction ID: 0xbb4e" size="2" pos="62" show="0x0000bb4e" value="bb4e"/>
    <field name="dns.flags" showname="Flags: 0x0120 Standard query" size="2" pos="64" show="0x00000120" value="0120">
      <field name="dns.flags.response" showname="0... .... .... .... = Response: Message is a query" size="2" pos="64" show="0" value="0" unmaskedvalue="0120"/>
      <field name="dns.flags.opcode" showname=".000 0... .... .... = Opcode: Standard query (0)" size="2" pos="64" show="0" value="0" unmaskedvalue="0120"/>
      <field name="dns.flags.truncated" showname=".... ..0. .... .... = Truncated: Message is not truncated" size="2" pos="64" show="0" value="0" unmaskedvalue="0120"/>
      <field name="dns.flags.recdesired" showname=".... ...1 .... .... = Recursion desired: Do query recursively" size="2" pos="64" show="1" value="1" unmaskedvalue="0120"/>
      <field name="dns.flags.z" showname=".... .... .0.. .... = Z: reserved (0)" size="2" pos="64" show="0" value="0" unmaskedvalue="0120"/>
      <field name="dns.flags.authenticated" showname=".... .... ..1. .... = AD bit: Set" size="2" pos="64" show="1" value="1" unmaskedvalue="0120"/>
      <field name="dns.flags.checkdisable" showname=".... .... ...0 .... = Non-authenticated data: Unacceptable" size="2" pos="64" show="0" value="0" unmaskedvalue="0120"/>
    </field>
    <field name="dns.count.queries" showname="Questions: 1" size="2" pos="66" show="1" value="0001"/>
    <field name="dns.count.answers" showname="Answer RRs: 0" size="2" pos="68" show="0" value="0000"/>
    <field name="dns.count.auth_rr" showname="Authority RRs: 0" size="2" pos="70" show="0" value="0000"/>
    <field name="dns.count.add_rr" showname="Additional RRs: 0" size="2" pos="72" show="0" value="0000"/>
    <field name="" show="Queries" size="9" pos="74" value="036e65740000020001">
      <field name="" show="net: type NS, class IN" size="9" pos="74" value="036e65740000020001">
        <field name="dns.qry.name" showname="Name: net" size="5" pos="74" show="net" value="036e657400"/>
        <field name="dns.qry.name.len" showname="Name Length: 3" size="5" pos="74" show="3" value="036e657400"/>
        <field name="dns.count.labels" showname="Label Count: 1" size="5" pos="74" show="1" value="036e657400"/>
        <field name="dns.qry.type" showname="Type: NS (authoritative Name Server) (2)" size="2" pos="79" show="2" value="0002"/>
        <field name="dns.qry.class" showname="Class: IN (0x0001)" size="2" pos="81" show="0x00000001" value="0001"/>
      </field>
    </field>
  </proto>
</packet>


<packet>
  <proto name="geninfo" pos="0" showname="General information" size="568">
    <field name="num" pos="0" show="8" showname="Number" value="8" size="568"/>
    <field name="len" pos="0" show="568" showname="Frame Length" value="238" size="568"/>
    <field name="caplen" pos="0" show="568" showname="Captured Length" value="238" size="568"/>
    <field name="timestamp" pos="0" show="Sep  5, 2019 18:48:35.028096000 CEST" showname="Captured Time" value="1567702115.028096000" size="568"/>
  </proto>
  <proto name="frame" showname="Frame 8: 568 bytes on wire (4544 bits), 568 bytes captured (4544 bits)" size="568" pos="0">
    <field name="filtered" value="frame" />
  </proto>
  <proto name="eth" showname="Ethernet II, Src: 00:1b:21:38:e9:78, Dst: 68:5b:35:ad:aa:e1" size="14" pos="0">
    <field name="filtered" value="eth" />
  </proto>
  <proto name="ipv6" showname="Internet Protocol Version 6, Src: 2001:7fd::1, Dst: 2001:6a8:308f:2:f1f3:2f2f:397c:1cb5" size="40" pos="14">
    <field name="filtered" value="ipv6" />
  </proto>
  <proto name="udp" showname="User Datagram Protocol" size="8" pos="54">
    <field name="filtered" value="udp" />
  </proto>
  <proto name="dns" showname="Domain Name System (response)" size="506" pos="62">
    <field name="dns.id" showname="Transaction ID: 0xbb4e" size="2" pos="62" show="0x0000bb4e" value="bb4e"/>
    <field name="dns.flags" showname="Flags: 0x8300 Standard query response, No error" size="2" pos="64" show="0x00008300" value="8300">
      <field name="dns.flags.response" showname="1... .... .... .... = Response: Message is a response" size="2" pos="64" show="1" value="1" unmaskedvalue="8300"/>
      <field name="dns.flags.opcode" showname=".000 0... .... .... = Opcode: Standard query (0)" size="2" pos="64" show="0" value="0" unmaskedvalue="8300"/>
      <field name="dns.flags.authoritative" showname=".... .0.. .... .... = Authoritative: Server is not an authority for domain" size="2" pos="64" show="0" value="0" unmaskedvalue="8300"/>
      <field name="dns.flags.truncated" showname=".... ..1. .... .... = Truncated: Message is truncated" size="2" pos="64" show="1" value="1" unmaskedvalue="8300"/>
      <field name="dns.flags.recdesired" showname=".... ...1 .... .... = Recursion desired: Do query recursively" size="2" pos="64" show="1" value="1" unmaskedvalue="8300"/>
      <field name="dns.flags.recavail" showname=".... .... 0... .... = Recursion available: Server can&#x27;t do recursive queries" size="2" pos="64" show="0" value="0" unmaskedvalue="8300"/>
      <field name="dns.flags.z" showname=".... .... .0.. .... = Z: reserved (0)" size="2" pos="64" show="0" value="0" unmaskedvalue="8300"/>
      <field name="dns.flags.authenticated" showname=".... .... ..0. .... = Answer authenticated: Answer/authority portion was not authenticated by the server" size="2" pos="64" show="0" value="0" unmaskedvalue="8300"/>
      <field name="dns.flags.checkdisable" showname=".... .... ...0 .... = Non-authenticated data: Unacceptable" size="2" pos="64" show="0" value="0" unmaskedvalue="8300"/>
      <field name="dns.flags.rcode" showname=".... .... .... 0000 = Reply code: No error (0)" size="2" pos="64" show="0" value="0" unmaskedvalue="8300"/>
    </field>
    <field name="dns.count.queries" showname="Questions: 1" size="2" pos="66" show="1" value="0001"/>
    <field name="dns.count.answers" showname="Answer RRs: 0" size="2" pos="68" show="0" value="0000"/>
    <field name="dns.count.auth_rr" showname="Authority RRs: 13" size="2" pos="70" show="13" value="000d"/>
    <field name="dns.count.add_rr" showname="Additional RRs: 12" size="2" pos="72" show="12" value="000c"/>
    <field name="" show="Queries" size="9" pos="74" value="036e65740000020001">
      <field name="" show="net: type NS, class IN" size="9" pos="74" value="036e65740000020001">
        <field name="dns.qry.name" showname="Name: net" size="5" pos="74" show="net" value="036e657400"/>
        <field name="dns.qry.name.len" showname="Name Length: 3" size="5" pos="74" show="3" value="036e657400"/>
        <field name="dns.count.labels" showname="Label Count: 1" size="5" pos="74" show="1" value="036e657400"/>
        <field name="dns.qry.type" showname="Type: NS (authoritative Name Server) (2)" size="2" pos="79" show="2" value="0002"/>
        <field name="dns.qry.class" showname="Class: IN (0x0001)" size="2" pos="81" show="0x00000001" value="0001"/>
      </field>
    </field>
    <field name="" show="Authoritative nameservers" size="221" pos="83" value="c00c000200010002a300001101610c67746c642d73657276657273c00cc00c000200010002a30000040162c023c00c000200010002a30000040163c023c00c000200010002a30000040164c023c00c000200010002a30000040165c023c00c000200010002a30000040166c023c00c000200010002a30000040167c023c00c000200010002a30000040168c023c00c000200010002a30000040169c023c00c000200010002a3000004016ac023c00c000200010002a3000004016bc023c00c000200010002a3000004016cc023c00c000200010002a3000004016dc023">
      <field name="" show="net: type NS, class IN, ns a.gtld-servers.net" size="29" pos="83" value="c00c000200010002a300001101610c67746c642d73657276657273c00c">
        <field name="dns.resp.name" showname="Name: net" size="2" pos="83" show="net" value="c00c"/>
        <field name="dns.resp.type" showname="Type: NS (authoritative Name Server) (2)" size="2" pos="85" show="2" value="0002"/>
        <field name="dns.resp.class" showname="Class: IN (0x0001)" size="2" pos="87" show="0x00000001" value="0001"/>
        <field name="dns.resp.ttl" showname="Time to live: 172800" size="4" pos="89" show="172800" value="0002a300"/>
        <field name="dns.resp.len" showname="Data length: 17" size="2" pos="93" show="17" value="0011"/>
        <field name="dns.ns" showname="Name Server: a.gtld-servers.net" size="17" pos="95" show="a.gtld-servers.net" value="01610c67746c642d73657276657273c00c"/>
      </field>
      <field name="" show="net: type NS, class IN, ns b.gtld-servers.net" size="16" pos="112" value="c00c000200010002a30000040162c023">
        <field name="dns.resp.name" showname="Name: net" size="2" pos="112" show="net" value="c00c"/>
        <field name="dns.resp.type" showname="Type: NS (authoritative Name Server) (2)" size="2" pos="114" show="2" value="0002"/>
        <field name="dns.resp.class" showname="Class: IN (0x0001)" size="2" pos="116" show="0x00000001" value="0001"/>
        <field name="dns.resp.ttl" showname="Time to live: 172800" size="4" pos="118" show="172800" value="0002a300"/>
        <field name="dns.resp.len" showname="Data length: 4" size="2" pos="122" show="4" value="0004"/>
        <field name="dns.ns" showname="Name Server: b.gtld-servers.net" size="4" pos="124" show="b.gtld-servers.net" value="0162c023"/>
      </field>
      <field name="" show="net: type NS, class IN, ns c.gtld-servers.net" size="16" pos="128" value="c00c000200010002a30000040163c023">
        <field name="dns.resp.name" showname="Name: net" size="2" pos="128" show="net" value="c00c"/>
        <field name="dns.resp.type" showname="Type: NS (authoritative Name Server) (2)" size="2" pos="130" show="2" value="0002"/>
        <field name="dns.resp.class" showname="Class: IN (0x0001)" size="2" pos="132" show="0x00000001" value="0001"/>
        <field name="dns.resp.ttl" showname="Time to live: 172800" size="4" pos="134" show="172800" value="0002a300"/>
        <field name="dns.resp.len" showname="Data length: 4" size="2" pos="138" show="4" value="0004"/>
        <field name="dns.ns" showname="Name Server: c.gtld-servers.net" size="4" pos="140" show="c.gtld-servers.net" value="0163c023"/>
      </field>
      <field name="" show="net: type NS, class IN, ns d.gtld-servers.net" size="16" pos="144" value="c00c000200010002a30000040164c023">
        <field name="dns.resp.name" showname="Name: net" size="2" pos="144" show="net" value="c00c"/>
        <field name="dns.resp.type" showname="Type: NS (authoritative Name Server) (2)" size="2" pos="146" show="2" value="0002"/>
        <field name="dns.resp.class" showname="Class: IN (0x0001)" size="2" pos="148" show="0x00000001" value="0001"/>
        <field name="dns.resp.ttl" showname="Time to live: 172800" size="4" pos="150" show="172800" value="0002a300"/>
        <field name="dns.resp.len" showname="Data length: 4" size="2" pos="154" show="4" value="0004"/>
        <field name="dns.ns" showname="Name Server: d.gtld-servers.net" size="4" pos="156" show="d.gtld-servers.net" value="0164c023"/>
      </field>
      <field name="" show="net: type NS, class IN, ns e.gtld-servers.net" size="16" pos="160" value="c00c000200010002a30000040165c023">
        <field name="dns.resp.name" showname="Name: net" size="2" pos="160" show="net" value="c00c"/>
        <field name="dns.resp.type" showname="Type: NS (authoritative Name Server) (2)" size="2" pos="162" show="2" value="0002"/>
        <field name="dns.resp.class" showname="Class: IN (0x0001)" size="2" pos="164" show="0x00000001" value="0001"/>
        <field name="dns.resp.ttl" showname="Time to live: 172800" size="4" pos="166" show="172800" value="0002a300"/>
        <field name="dns.resp.len" showname="Data length: 4" size="2" pos="170" show="4" value="0004"/>
        <field name="dns.ns" showname="Name Server: e.gtld-servers.net" size="4" pos="172" show="e.gtld-servers.net" value="0165c023"/>
      </field>
      <field name="" show="net: type NS, class IN, ns f.gtld-servers.net" size="16" pos="176" value="c00c000200010002a30000040166c023">
        <field name="dns.resp.name" showname="Name: net" size="2" pos="176" show="net" value="c00c"/>
        <field name="dns.resp.type" showname="Type: NS (authoritative Name Server) (2)" size="2" pos="178" show="2" value="0002"/>
        <field name="dns.resp.class" showname="Class: IN (0x0001)" size="2" pos="180" show="0x00000001" value="0001"/>
        <field name="dns.resp.ttl" showname="Time to live: 172800" size="4" pos="182" show="172800" value="0002a300"/>
        <field name="dns.resp.len" showname="Data length: 4" size="2" pos="186" show="4" value="0004"/>
        <field name="dns.ns" showname="Name Server: f.gtld-servers.net" size="4" pos="188" show="f.gtld-servers.net" value="0166c023"/>
      </field>
      <field name="" show="net: type NS, class IN, ns g.gtld-servers.net" size="16" pos="192" value="c00c000200010002a30000040167c023">
        <field name="dns.resp.name" showname="Name: net" size="2" pos="192" show="net" value="c00c"/>
        <field name="dns.resp.type" showname="Type: NS (authoritative Name Server) (2)" size="2" pos="194" show="2" value="0002"/>
        <field name="dns.resp.class" showname="Class: IN (0x0001)" size="2" pos="196" show="0x00000001" value="0001"/>
        <field name="dns.resp.ttl" showname="Time to live: 172800" size="4" pos="198" show="172800" value="0002a300"/>
        <field name="dns.resp.len" showname="Data length: 4" size="2" pos="202" show="4" value="0004"/>
        <field name="dns.ns" showname="Name Server: g.gtld-servers.net" size="4" pos="204" show="g.gtld-servers.net" value="0167c023"/>
      </field>
      <field name="" show="net: type NS, class IN, ns h.gtld-servers.net" size="16" pos="208" value="c00c000200010002a30000040168c023">
        <field name="dns.resp.name" showname="Name: net" size="2" pos="208" show="net" value="c00c"/>
        <field name="dns.resp.type" showname="Type: NS (authoritative Name Server) (2)" size="2" pos="210" show="2" value="0002"/>
        <field name="dns.resp.class" showname="Class: IN (0x0001)" size="2" pos="212" show="0x00000001" value="0001"/>
        <field name="dns.resp.ttl" showname="Time to live: 172800" size="4" pos="214" show="172800" value="0002a300"/>
        <field name="dns.resp.len" showname="Data length: 4" size="2" pos="218" show="4" value="0004"/>
        <field name="dns.ns" showname="Name Server: h.gtld-servers.net" size="4" pos="220" show="h.gtld-servers.net" value="0168c023"/>
      </field>
      <field name="" show="net: type NS, class IN, ns i.gtld-servers.net" size="16" pos="224" value="c00c000200010002a30000040169c023">
        <field name="dns.resp.name" showname="Name: net" size="2" pos="224" show="net" value="c00c"/>
        <field name="dns.resp.type" showname="Type: NS (authoritative Name Server) (2)" size="2" pos="226" show="2" value="0002"/>
        <field name="dns.resp.class" showname="Class: IN (0x0001)" size="2" pos="228" show="0x00000001" value="0001"/>
        <field name="dns.resp.ttl" showname="Time to live: 172800" size="4" pos="230" show="172800" value="0002a300"/>
        <field name="dns.resp.len" showname="Data length: 4" size="2" pos="234" show="4" value="0004"/>
        <field name="dns.ns" showname="Name Server: i.gtld-servers.net" size="4" pos="236" show="i.gtld-servers.net" value="0169c023"/>
      </field>
      <field name="" show="net: type NS, class IN, ns j.gtld-servers.net" size="16" pos="240" value="c00c000200010002a3000004016ac023">
        <field name="dns.resp.name" showname="Name: net" size="2" pos="240" show="net" value="c00c"/>
        <field name="dns.resp.type" showname="Type: NS (authoritative Name Server) (2)" size="2" pos="242" show="2" value="0002"/>
        <field name="dns.resp.class" showname="Class: IN (0x0001)" size="2" pos="244" show="0x00000001" value="0001"/>
        <field name="dns.resp.ttl" showname="Time to live: 172800" size="4" pos="246" show="172800" value="0002a300"/>
        <field name="dns.resp.len" showname="Data length: 4" size="2" pos="250" show="4" value="0004"/>
        <field name="dns.ns" showname="Name Server: j.gtld-servers.net" size="4" pos="252" show="j.gtld-servers.net" value="016ac023"/>
      </field>
      <field name="" show="net: type NS, class IN, ns k.gtld-servers.net" size="16" pos="256" value="c00c000200010002a3000004016bc023">
        <field name="dns.resp.name" showname="Name: net" size="2" pos="256" show="net" value="c00c"/>
        <field name="dns.resp.type" showname="Type: NS (authoritative Name Server) (2)" size="2" pos="258" show="2" value="0002"/>
        <field name="dns.resp.class" showname="Class: IN (0x0001)" size="2" pos="260" show="0x00000001" value="0001"/>
        <field name="dns.resp.ttl" showname="Time to live: 172800" size="4" pos="262" show="172800" value="0002a300"/>
        <field name="dns.resp.len" showname="Data length: 4" size="2" pos="266" show="4" value="0004"/>
        <field name="dns.ns" showname="Name Server: k.gtld-servers.net" size="4" pos="268" show="k.gtld-servers.net" value="016bc023"/>
      </field>
      <field name="" show="net: type NS, class IN, ns l.gtld-servers.net" size="16" pos="272" value="c00c000200010002a3000004016cc023">
        <field name="dns.resp.name" showname="Name: net" size="2" pos="272" show="net" value="c00c"/>
        <field name="dns.resp.type" showname="Type: NS (authoritative Name Server) (2)" size="2" pos="274" show="2" value="0002"/>
        <field name="dns.resp.class" showname="Class: IN (0x0001)" size="2" pos="276" show="0x00000001" value="0001"/>
        <field name="dns.resp.ttl" showname="Time to live: 172800" size="4" pos="278" show="172800" value="0002a300"/>
        <field name="dns.resp.len" showname="Data length: 4" size="2" pos="282" show="4" value="0004"/>
        <field name="dns.ns" showname="Name Server: l.gtld-servers.net" size="4" pos="284" show="l.gtld-servers.net" value="016cc023"/>
      </field>
      <field name="" show="net: type NS, class IN, ns m.gtld-servers.net" size="16" pos="288" value="c00c000200010002a3000004016dc023">
        <field name="dns.resp.name" showname="Name: net" size="2" pos="288" show="net" value="c00c"/>
        <field name="dns.resp.type" showname="Type: NS (authoritative Name Server) (2)" size="2" pos="290" show="2" value="0002"/>
        <field name="dns.resp.class" showname="Class: IN (0x0001)" size="2" pos="292" show="0x00000001" value="0001"/>
        <field name="dns.resp.ttl" showname="Time to live: 172800" size="4" pos="294" show="172800" value="0002a300"/>
        <field name="dns.resp.len" showname="Data length: 4" size="2" pos="298" show="4" value="0004"/>
        <field name="dns.ns" showname="Name Server: m.gtld-servers.net" size="4" pos="300" show="m.gtld-servers.net" value="016dc023"/>
      </field>
    </field>
    <field name="" show="Additional records" size="264" pos="304" value="c021000100010002a3000004c005061ec021001c00010002a300001020010503a83e00000000000000020030c03e000100010002a3000004c0210e1ec03e001c00010002a300001020010503231d00000000000000020030c04e000100010002a3000004c01a5c1ec04e001c00010002a30000102001050383eb00000000000000000030c05e000100010002a3000004c01f501ec05e001c00010002a300001020010500856e00000000000000000030c06e000100010002a3000004c00c5e1ec06e001c00010002a3000010200105021ca100000000000000000030c07e000100010002a3000004c023331ec07e001c00010002a300001020010503d41400000000000000000030">
      <field name="" show="a.gtld-servers.net: type A, class IN, addr 192.5.6.30" size="16" pos="304" value="c021000100010002a3000004c005061e">
        <field name="dns.resp.name" showname="Name: a.gtld-servers.net" size="2" pos="304" show="a.gtld-servers.net" value="c021"/>
        <field name="dns.resp.type" showname="Type: A (Host Address) (1)" size="2" pos="306" show="1" value="0001"/>
        <field name="dns.resp.class" showname="Class: IN (0x0001)" size="2" pos="308" show="0x00000001" value="0001"/>
        <field name="dns.resp.ttl" showname="Time to live: 172800" size="4" pos="310" show="172800" value="0002a300"/>
        <field name="dns.resp.len" showname="Data length: 4" size="2" pos="314" show="4" value="0004"/>
        <field name="dns.a" showname="Address: 192.5.6.30" size="4" pos="316" show="192.5.6.30" value="c005061e"/>
      </field>
      <field name="" show="a.gtld-servers.net: type AAAA, class IN, addr 2001:503:a83e::2:30" size="28" pos="320" value="c021001c00010002a300001020010503a83e00000000000000020030">
        <field name="dns.resp.name" showname="Name: a.gtld-servers.net" size="2" pos="320" show="a.gtld-servers.net" value="c021"/>
        <field name="dns.resp.type" showname="Type: AAAA (IPv6 Address) (28)" size="2" pos="322" show="28" value="001c"/>
        <field name="dns.resp.class" showname="Class: IN (0x0001)" size="2" pos="324" show="0x00000001" value="0001"/>
        <field name="dns.resp.ttl" showname="Time to live: 172800" size="4" pos="326" show="172800" value="0002a300"/>
        <field name="dns.resp.len" showname="Data length: 16" size="2" pos="330" show="16" value="0010"/>
        <field name="dns.aaaa" showname="AAAA Address: 2001:503:a83e::2:30" size="16" pos="332" show="2001:503:a83e::2:30" value="20010503a83e00000000000000020030"/>
      </field>
      <field name="" show="b.gtld-servers.net: type A, class IN, addr 192.33.14.30" size="16" pos="348" value="c03e000100010002a3000004c0210e1e">
        <field name="dns.resp.name" showname="Name: b.gtld-servers.net" size="2" pos="348" show="b.gtld-servers.net" value="c03e"/>
        <field name="dns.resp.type" showname="Type: A (Host Address) (1)" size="2" pos="350" show="1" value="0001"/>
        <field name="dns.resp.class" showname="Class: IN (0x0001)" size="2" pos="352" show="0x00000001" value="0001"/>
        <field name="dns.resp.ttl" showname="Time to live: 172800" size="4" pos="354" show="172800" value="0002a300"/>
        <field name="dns.resp.len" showname="Data length: 4" size="2" pos="358" show="4" value="0004"/>
        <field name="dns.a" showname="Address: 192.33.14.30" size="4" pos="360" show="192.33.14.30" value="c0210e1e"/>
      </field>
      <field name="" show="b.gtld-servers.net: type AAAA, class IN, addr 2001:503:231d::2:30" size="28" pos="364" value="c03e001c00010002a300001020010503231d00000000000000020030">
        <field name="dns.resp.name" showname="Name: b.gtld-servers.net" size="2" pos="364" show="b.gtld-servers.net" value="c03e"/>
        <field name="dns.resp.type" showname="Type: AAAA (IPv6 Address) (28)" size="2" pos="366" show="28" value="001c"/>
        <field name="dns.resp.class" showname="Class: IN (0x0001)" size="2" pos="368" show="0x00000001" value="0001"/>
        <field name="dns.resp.ttl" showname="Time to live: 172800" size="4" pos="370" show="172800" value="0002a300"/>
        <field name="dns.resp.len" showname="Data length: 16" size="2" pos="374" show="16" value="0010"/>
        <field name="dns.aaaa" showname="AAAA Address: 2001:503:231d::2:30" size="16" pos="376" show="2001:503:231d::2:30" value="20010503231d00000000000000020030"/>
      </field>
      <field name="" show="c.gtld-servers.net: type A, class IN, addr 192.26.92.30" size="16" pos="392" value="c04e000100010002a3000004c01a5c1e">
        <field name="dns.resp.name" showname="Name: c.gtld-servers.net" size="2" pos="392" show="c.gtld-servers.net" value="c04e"/>
        <field name="dns.resp.type" showname="Type: A (Host Address) (1)" size="2" pos="394" show="1" value="0001"/>
        <field name="dns.resp.class" showname="Class: IN (0x0001)" size="2" pos="396" show="0x00000001" value="0001"/>
        <field name="dns.resp.ttl" showname="Time to live: 172800" size="4" pos="398" show="172800" value="0002a300"/>
        <field name="dns.resp.len" showname="Data length: 4" size="2" pos="402" show="4" value="0004"/>
        <field name="dns.a" showname="Address: 192.26.92.30" size="4" pos="404" show="192.26.92.30" value="c01a5c1e"/>
      </field>
      <field name="" show="c.gtld-servers.net: type AAAA, class IN, addr 2001:503:83eb::30" size="28" pos="408" value="c04e001c00010002a30000102001050383eb00000000000000000030">
        <field name="dns.resp.name" showname="Name: c.gtld-servers.net" size="2" pos="408" show="c.gtld-servers.net" value="c04e"/>
        <field name="dns.resp.type" showname="Type: AAAA (IPv6 Address) (28)" size="2" pos="410" show="28" value="001c"/>
        <field name="dns.resp.class" showname="Class: IN (0x0001)" size="2" pos="412" show="0x00000001" value="0001"/>
        <field name="dns.resp.ttl" showname="Time to live: 172800" size="4" pos="414" show="172800" value="0002a300"/>
        <field name="dns.resp.len" showname="Data length: 16" size="2" pos="418" show="16" value="0010"/>
        <field name="dns.aaaa" showname="AAAA Address: 2001:503:83eb::30" size="16" pos="420" show="2001:503:83eb::30" value="2001050383eb00000000000000000030"/>
      </field>
      <field name="" show="d.gtld-servers.net: type A, class IN, addr 192.31.80.30" size="16" pos="436" value="c05e000100010002a3000004c01f501e">
        <field name="dns.resp.name" showname="Name: d.gtld-servers.net" size="2" pos="436" show="d.gtld-servers.net" value="c05e"/>
        <field name="dns.resp.type" showname="Type: A (Host Address) (1)" size="2" pos="438" show="1" value="0001"/>
        <field name="dns.resp.class" showname="Class: IN (0x0001)" size="2" pos="440" show="0x00000001" value="0001"/>
        <field name="dns.resp.ttl" showname="Time to live: 172800" size="4" pos="442" show="172800" value="0002a300"/>
        <field name="dns.resp.len" showname="Data length: 4" size="2" pos="446" show="4" value="0004"/>
        <field name="dns.a" showname="Address: 192.31.80.30" size="4" pos="448" show="192.31.80.30" value="c01f501e"/>
      </field>
      <field name="" show="d.gtld-servers.net: type AAAA, class IN, addr 2001:500:856e::30" size="28" pos="452" value="c05e001c00010002a300001020010500856e00000000000000000030">
        <field name="dns.resp.name" showname="Name: d.gtld-servers.net" size="2" pos="452" show="d.gtld-servers.net" value="c05e"/>
        <field name="dns.resp.type" showname="Type: AAAA (IPv6 Address) (28)" size="2" pos="454" show="28" value="001c"/>
        <field name="dns.resp.class" showname="Class: IN (0x0001)" size="2" pos="456" show="0x00000001" value="0001"/>
        <field name="dns.resp.ttl" showname="Time to live: 172800" size="4" pos="458" show="172800" value="0002a300"/>
        <field name="dns.resp.len" showname="Data length: 16" size="2" pos="462" show="16" value="0010"/>
        <field name="dns.aaaa" showname="AAAA Address: 2001:500:856e::30" size="16" pos="464" show="2001:500:856e::30" value="20010500856e00000000000000000030"/>
      </field>
      <field name="" show="e.gtld-servers.net: type A, class IN, addr 192.12.94.30" size="16" pos="480" value="c06e000100010002a3000004c00c5e1e">
        <field name="dns.resp.name" showname="Name: e.gtld-servers.net" size="2" pos="480" show="e.gtld-servers.net" value="c06e"/>
        <field name="dns.resp.type" showname="Type: A (Host Address) (1)" size="2" pos="482" show="1" value="0001"/>
        <field name="dns.resp.class" showname="Class: IN (0x0001)" size="2" pos="484" show="0x00000001" value="0001"/>
        <field name="dns.resp.ttl" showname="Time to live: 172800" size="4" pos="486" show="172800" value="0002a300"/>
        <field name="dns.resp.len" showname="Data length: 4" size="2" pos="490" show="4" value="0004"/>
        <field name="dns.a" showname="Address: 192.12.94.30" size="4" pos="492" show="192.12.94.30" value="c00c5e1e"/>
      </field>
      <field name="" show="e.gtld-servers.net: type AAAA, class IN, addr 2001:502:1ca1::30" size="28" pos="496" value="c06e001c00010002a3000010200105021ca100000000000000000030">
        <field name="dns.resp.name" showname="Name: e.gtld-servers.net" size="2" pos="496" show="e.gtld-servers.net" value="c06e"/>
        <field name="dns.resp.type" showname="Type: AAAA (IPv6 Address) (28)" size="2" pos="498" show="28" value="001c"/>
        <field name="dns.resp.class" showname="Class: IN (0x0001)" size="2" pos="500" show="0x00000001" value="0001"/>
        <field name="dns.resp.ttl" showname="Time to live: 172800" size="4" pos="502" show="172800" value="0002a300"/>
        <field name="dns.resp.len" showname="Data length: 16" size="2" pos="506" show="16" value="0010"/>
        <field name="dns.aaaa" showname="AAAA Address: 2001:502:1ca1::30" size="16" pos="508" show="2001:502:1ca1::30" value="200105021ca100000000000000000030"/>
      </field>
      <field name="" show="f.gtld-servers.net: type A, class IN, addr 192.35.51.30" size="16" pos="524" value="c07e000100010002a3000004c023331e">
        <field name="dns.resp.name" showname="Name: f.gtld-servers.net" size="2" pos="524" show="f.gtld-servers.net" value="c07e"/>
        <field name="dns.resp.type" showname="Type: A (Host Address) (1)" size="2" pos="526" show="1" value="0001"/>
        <field name="dns.resp.class" showname="Class: IN (0x0001)" size="2" pos="528" show="0x00000001" value="0001"/>
        <field name="dns.resp.ttl" showname="Time to live: 172800" size="4" pos="530" show="172800" value="0002a300"/>
        <field name="dns.resp.len" showname="Data length: 4" size="2" pos="534" show="4" value="0004"/>
        <field name="dns.a" showname="Address: 192.35.51.30" size="4" pos="536" show="192.35.51.30" value="c023331e"/>
      </field>
      <field name="" show="f.gtld-servers.net: type AAAA, class IN, addr 2001:503:d414::30" size="28" pos="540" value="c07e001c00010002a300001020010503d41400000000000000000030">
        <field name="dns.resp.name" showname="Name: f.gtld-servers.net" size="2" pos="540" show="f.gtld-servers.net" value="c07e"/>
        <field name="dns.resp.type" showname="Type: AAAA (IPv6 Address) (28)" size="2" pos="542" show="28" value="001c"/>
        <field name="dns.resp.class" showname="Class: IN (0x0001)" size="2" pos="544" show="0x00000001" value="0001"/>
        <field name="dns.resp.ttl" showname="Time to live: 172800" size="4" pos="546" show="172800" value="0002a300"/>
        <field name="dns.resp.len" showname="Data length: 16" size="2" pos="550" show="16" value="0010"/>
        <field name="dns.aaaa" showname="AAAA Address: 2001:503:d414::30" size="16" pos="552" show="2001:503:d414::30" value="20010503d41400000000000000000030"/>
      </field>
    </field>
    <field name="dns.response_to" showname="Request In: 7" size="0" pos="62" show="7"/>
    <field name="dns.time" showname="Time: 0.010800000 seconds" size="0" pos="62" show="0.010800000"/>
  </proto>
</packet>


<packet>
  <proto name="geninfo" pos="0" showname="General information" size="96">
    <field name="num" pos="0" show="9" showname="Number" value="9" size="96"/>
    <field name="len" pos="0" show="96" showname="Frame Length" value="60" size="96"/>
    <field name="caplen" pos="0" show="96" showname="Captured Length" value="60" size="96"/>
    <field name="timestamp" pos="0" show="Sep  5, 2019 18:48:35.105290000 CEST" showname="Captured Time" value="1567702115.105290000" size="96"/>
  </proto>
  <proto name="frame" showname="Frame 9: 96 bytes on wire (768 bits), 96 bytes captured (768 bits)" size="96" pos="0">
    <field name="filtered" value="frame" />
  </proto>
  <proto name="eth" showname="Ethernet II, Src: 68:5b:35:ad:aa:e1, Dst: 00:1b:21:38:e9:78" size="14" pos="0">
    <field name="filtered" value="eth" />
  </proto>
  <proto name="ipv6" showname="Internet Protocol Version 6, Src: 2001:6a8:308f:2:f1f3:2f2f:397c:1cb5, Dst: 2001:501:b1f9::30" size="40" pos="14">
    <field name="filtered" value="ipv6" />
  </proto>
  <proto name="udp" showname="User Datagram Protocol" size="8" pos="54">
    <field name="filtered" value="udp" />
  </proto>
  <proto name="dns" showname="Domain Name System (query)" size="34" pos="62">
    <field name="dns.id" showname="Transaction ID: 0xf3de" size="2" pos="62" show="0x0000f3de" value="f3de"/>
    <field name="dns.flags" showname="Flags: 0x0120 Standard query" size="2" pos="64" show="0x00000120" value="0120">
      <field name="dns.flags.response" showname="0... .... .... .... = Response: Message is a query" size="2" pos="64" show="0" value="0" unmaskedvalue="0120"/>
      <field name="dns.flags.opcode" showname=".000 0... .... .... = Opcode: Standard query (0)" size="2" pos="64" show="0" value="0" unmaskedvalue="0120"/>
      <field name="dns.flags.truncated" showname=".... ..0. .... .... = Truncated: Message is not truncated" size="2" pos="64" show="0" value="0" unmaskedvalue="0120"/>
      <field name="dns.flags.recdesired" showname=".... ...1 .... .... = Recursion desired: Do query recursively" size="2" pos="64" show="1" value="1" unmaskedvalue="0120"/>
      <field name="dns.flags.z" showname=".... .... .0.. .... = Z: reserved (0)" size="2" pos="64" show="0" value="0" unmaskedvalue="0120"/>
      <field name="dns.flags.authenticated" showname=".... .... ..1. .... = AD bit: Set" size="2" pos="64" show="1" value="1" unmaskedvalue="0120"/>
      <field name="dns.flags.checkdisable" showname=".... .... ...0 .... = Non-authenticated data: Unacceptable" size="2" pos="64" show="0" value="0" unmaskedvalue="0120"/>
    </field>
    <field name="dns.count.queries" showname="Questions: 1" size="2" pos="66" show="1" value="0001"/>
    <field name="dns.count.answers" showname="Answer RRs: 0" size="2" pos="68" show="0" value="0000"/>
    <field name="dns.count.auth_rr" showname="Authority RRs: 0" size="2" pos="70" show="0" value="0000"/>
    <field name="dns.count.add_rr" showname="Additional RRs: 0" size="2" pos="72" show="0" value="0000"/>
    <field name="" show="Queries" size="22" pos="74" value="0c69616e612d73657276657273036e65740000020001">
      <field name="" show="iana-servers.net: type NS, class IN" size="22" pos="74" value="0c69616e612d73657276657273036e65740000020001">
        <field name="dns.qry.name" showname="Name: iana-servers.net" size="18" pos="74" show="iana-servers.net" value="0c69616e612d73657276657273036e657400"/>
        <field name="dns.qry.name.len" showname="Name Length: 16" size="18" pos="74" show="16" value="0c69616e612d73657276657273036e657400"/>
        <field name="dns.count.labels" showname="Label Count: 2" size="18" pos="74" show="2" value="0c69616e612d73657276657273036e657400"/>
        <field name="dns.qry.type" showname="Type: NS (authoritative Name Server) (2)" size="2" pos="92" show="2" value="0002"/>
        <field name="dns.qry.class" showname="Class: IN (0x0001)" size="2" pos="94" show="0x00000001" value="0001"/>
      </field>
    </field>
  </proto>
</packet>


<packet>
  <proto name="geninfo" pos="0" showname="General information" size="302">
    <field name="num" pos="0" show="10" showname="Number" value="a" size="302"/>
    <field name="len" pos="0" show="302" showname="Frame Length" value="12e" size="302"/>
    <field name="caplen" pos="0" show="302" showname="Captured Length" value="12e" size="302"/>
    <field name="timestamp" pos="0" show="Sep  5, 2019 18:48:35.122681000 CEST" showname="Captured Time" value="1567702115.122681000" size="302"/>
  </proto>
  <proto name="frame" showname="Frame 10: 302 bytes on wire (2416 bits), 302 bytes captured (2416 bits)" size="302" pos="0">
    <field name="filtered" value="frame" />
  </proto>
  <proto name="eth" showname="Ethernet II, Src: 00:1b:21:38:e9:78, Dst: 68:5b:35:ad:aa:e1" size="14" pos="0">
    <field name="filtered" value="eth" />
  </proto>
  <proto name="ipv6" showname="Internet Protocol Version 6, Src: 2001:501:b1f9::30, Dst: 2001:6a8:308f:2:f1f3:2f2f:397c:1cb5" size="40" pos="14">
    <field name="filtered" value="ipv6" />
  </proto>
  <proto name="udp" showname="User Datagram Protocol" size="8" pos="54">
    <field name="filtered" value="udp" />
  </proto>
  <proto name="dns" showname="Domain Name System (response)" size="240" pos="62">
    <field name="dns.id" showname="Transaction ID: 0xf3de" size="2" pos="62" show="0x0000f3de" value="f3de"/>
    <field name="dns.flags" showname="Flags: 0x8100 Standard query response, No error" size="2" pos="64" show="0x00008100" value="8100">
      <field name="dns.flags.response" showname="1... .... .... .... = Response: Message is a response" size="2" pos="64" show="1" value="1" unmaskedvalue="8100"/>
      <field name="dns.flags.opcode" showname=".000 0... .... .... = Opcode: Standard query (0)" size="2" pos="64" show="0" value="0" unmaskedvalue="8100"/>
      <field name="dns.flags.authoritative" showname=".... .0.. .... .... = Authoritative: Server is not an authority for domain" size="2" pos="64" show="0" value="0" unmaskedvalue="8100"/>
      <field name="dns.flags.truncated" showname=".... ..0. .... .... = Truncated: Message is not truncated" size="2" pos="64" show="0" value="0" unmaskedvalue="8100"/>
      <field name="dns.flags.recdesired" showname=".... ...1 .... .... = Recursion desired: Do query recursively" size="2" pos="64" show="1" value="1" unmaskedvalue="8100"/>
      <field name="dns.flags.recavail" showname=".... .... 0... .... = Recursion available: Server can&#x27;t do recursive queries" size="2" pos="64" show="0" value="0" unmaskedvalue="8100"/>
      <field name="dns.flags.z" showname=".... .... .0.. .... = Z: reserved (0)" size="2" pos="64" show="0" value="0" unmaskedvalue="8100"/>
      <field name="dns.flags.authenticated" showname=".... .... ..0. .... = Answer authenticated: Answer/authority portion was not authenticated by the server" size="2" pos="64" show="0" value="0" unmaskedvalue="8100"/>
      <field name="dns.flags.checkdisable" showname=".... .... ...0 .... = Non-authenticated data: Unacceptable" size="2" pos="64" show="0" value="0" unmaskedvalue="8100"/>
      <field name="dns.flags.rcode" showname=".... .... .... 0000 = Reply code: No error (0)" size="2" pos="64" show="0" value="0" unmaskedvalue="8100"/>
    </field>
    <field name="dns.count.queries" showname="Questions: 1" size="2" pos="66" show="1" value="0001"/>
    <field name="dns.count.answers" showname="Answer RRs: 0" size="2" pos="68" show="0" value="0000"/>
    <field name="dns.count.auth_rr" showname="Authority RRs: 4" size="2" pos="70" show="4" value="0004"/>
    <field name="dns.count.add_rr" showname="Additional RRs: 6" size="2" pos="72" show="6" value="0006"/>
    <field name="" show="Queries" size="22" pos="74" value="0c69616e612d73657276657273036e65740000020001">
      <field name="" show="iana-servers.net: type NS, class IN" size="22" pos="74" value="0c69616e612d73657276657273036e65740000020001">
        <field name="dns.qry.name" showname="Name: iana-servers.net" size="18" pos="74" show="iana-servers.net" value="0c69616e612d73657276657273036e657400"/>
        <field name="dns.qry.name.len" showname="Name Length: 16" size="18" pos="74" show="16" value="0c69616e612d73657276657273036e657400"/>
        <field name="dns.count.labels" showname="Label Count: 2" size="18" pos="74" show="2" value="0c69616e612d73657276657273036e657400"/>
        <field name="dns.qry.type" showname="Type: NS (authoritative Name Server) (2)" size="2" pos="92" show="2" value="0002"/>
        <field name="dns.qry.class" showname="Class: IN (0x0001)" size="2" pos="94" show="0x00000001" value="0001"/>
      </field>
    </field>
    <field name="" show="Authoritative nameservers" size="74" pos="96" value="c00c000200010002a300000e026e73056963616e6e036f726700c00c000200010002a30000040161c00cc00c000200010002a30000040162c00cc00c000200010002a30000040163c00c">
      <field name="" show="iana-servers.net: type NS, class IN, ns ns.icann.org" size="26" pos="96" value="c00c000200010002a300000e026e73056963616e6e036f726700">
        <field name="dns.resp.name" showname="Name: iana-servers.net" size="2" pos="96" show="iana-servers.net" value="c00c"/>
        <field name="dns.resp.type" showname="Type: NS (authoritative Name Server) (2)" size="2" pos="98" show="2" value="0002"/>
        <field name="dns.resp.class" showname="Class: IN (0x0001)" size="2" pos="100" show="0x00000001" value="0001"/>
        <field name="dns.resp.ttl" showname="Time to live: 172800" size="4" pos="102" show="172800" value="0002a300"/>
        <field name="dns.resp.len" showname="Data length: 14" size="2" pos="106" show="14" value="000e"/>
        <field name="dns.ns" showname="Name Server: ns.icann.org" size="14" pos="108" show="ns.icann.org" value="026e73056963616e6e036f726700"/>
      </field>
      <field name="" show="iana-servers.net: type NS, class IN, ns a.iana-servers.net" size="16" pos="122" value="c00c000200010002a30000040161c00c">
        <field name="dns.resp.name" showname="Name: iana-servers.net" size="2" pos="122" show="iana-servers.net" value="c00c"/>
        <field name="dns.resp.type" showname="Type: NS (authoritative Name Server) (2)" size="2" pos="124" show="2" value="0002"/>
        <field name="dns.resp.class" showname="Class: IN (0x0001)" size="2" pos="126" show="0x00000001" value="0001"/>
        <field name="dns.resp.ttl" showname="Time to live: 172800" size="4" pos="128" show="172800" value="0002a300"/>
        <field name="dns.resp.len" showname="Data length: 4" size="2" pos="132" show="4" value="0004"/>
        <field name="dns.ns" showname="Name Server: a.iana-servers.net" size="4" pos="134" show="a.iana-servers.net" value="0161c00c"/>
      </field>
      <field name="" show="iana-servers.net: type NS, class IN, ns b.iana-servers.net" size="16" pos="138" value="c00c000200010002a30000040162c00c">
        <field name="dns.resp.name" showname="Name: iana-servers.net" size="2" pos="138" show="iana-servers.net" value="c00c"/>
        <field name="dns.resp.type" showname="Type: NS (authoritative Name Server) (2)" size="2" pos="140" show="2" value="0002"/>
        <field name="dns.resp.class" showname="Class: IN (0x0001)" size="2" pos="142" show="0x00000001" value="0001"/>
        <field name="dns.resp.ttl" showname="Time to live: 172800" size="4" pos="144" show="172800" value="0002a300"/>
        <field name="dns.resp.len" showname="Data length: 4" size="2" pos="148" show="4" value="0004"/>
        <field name="dns.ns" showname="Name Server: b.iana-servers.net" size="4" pos="150" show="b.iana-servers.net" value="0162c00c"/>
      </field>
      <field name="" show="iana-servers.net: type NS, class IN, ns c.iana-servers.net" size="16" pos="154" value="c00c000200010002a30000040163c00c">
        <field name="dns.resp.name" showname="Name: iana-servers.net" size="2" pos="154" show="iana-servers.net" value="c00c"/>
        <field name="dns.resp.type" showname="Type: NS (authoritative Name Server) (2)" size="2" pos="156" show="2" value="0002"/>
        <field name="dns.resp.class" showname="Class: IN (0x0001)" size="2" pos="158" show="0x00000001" value="0001"/>
        <field name="dns.resp.ttl" showname="Time to live: 172800" size="4" pos="160" show="172800" value="0002a300"/>
        <field name="dns.resp.len" showname="Data length: 4" size="2" pos="164" show="4" value="0004"/>
        <field name="dns.ns" showname="Name Server: c.iana-servers.net" size="4" pos="166" show="c.iana-servers.net" value="0163c00c"/>
      </field>
    </field>
    <field name="" show="Additional records" size="132" pos="170" value="c048000100010002a3000004c72b8735c048001c00010002a300001020010500008f00000000000000000053c058000100010002a3000004c72b8535c058001c00010002a300001020010500008d00000000000000000053c068000100010002a3000004c72b8635c068001c00010002a300001020010500008e00000000000000000053">
      <field name="" show="a.iana-servers.net: type A, class IN, addr 199.43.135.53" size="16" pos="170" value="c048000100010002a3000004c72b8735">
        <field name="dns.resp.name" showname="Name: a.iana-servers.net" size="2" pos="170" show="a.iana-servers.net" value="c048"/>
        <field name="dns.resp.type" showname="Type: A (Host Address) (1)" size="2" pos="172" show="1" value="0001"/>
        <field name="dns.resp.class" showname="Class: IN (0x0001)" size="2" pos="174" show="0x00000001" value="0001"/>
        <field name="dns.resp.ttl" showname="Time to live: 172800" size="4" pos="176" show="172800" value="0002a300"/>
        <field name="dns.resp.len" showname="Data length: 4" size="2" pos="180" show="4" value="0004"/>
        <field name="dns.a" showname="Address: 199.43.135.53" size="4" pos="182" show="199.43.135.53" value="c72b8735"/>
      </field>
      <field name="" show="a.iana-servers.net: type AAAA, class IN, addr 2001:500:8f::53" size="28" pos="186" value="c048001c00010002a300001020010500008f00000000000000000053">
        <field name="dns.resp.name" showname="Name: a.iana-servers.net" size="2" pos="186" show="a.iana-servers.net" value="c048"/>
        <field name="dns.resp.type" showname="Type: AAAA (IPv6 Address) (28)" size="2" pos="188" show="28" value="001c"/>
        <field name="dns.resp.class" showname="Class: IN (0x0001)" size="2" pos="190" show="0x00000001" value="0001"/>
        <field name="dns.resp.ttl" showname="Time to live: 172800" size="4" pos="192" show="172800" value="0002a300"/>
        <field name="dns.resp.len" showname="Data length: 16" size="2" pos="196" show="16" value="0010"/>
        <field name="dns.aaaa" showname="AAAA Address: 2001:500:8f::53" size="16" pos="198" show="2001:500:8f::53" value="20010500008f00000000000000000053"/>
      </field>
      <field name="" show="b.iana-servers.net: type A, class IN, addr 199.43.133.53" size="16" pos="214" value="c058000100010002a3000004c72b8535">
        <field name="dns.resp.name" showname="Name: b.iana-servers.net" size="2" pos="214" show="b.iana-servers.net" value="c058"/>
        <field name="dns.resp.type" showname="Type: A (Host Address) (1)" size="2" pos="216" show="1" value="0001"/>
        <field name="dns.resp.class" showname="Class: IN (0x0001)" size="2" pos="218" show="0x00000001" value="0001"/>
        <field name="dns.resp.ttl" showname="Time to live: 172800" size="4" pos="220" show="172800" value="0002a300"/>
        <field name="dns.resp.len" showname="Data length: 4" size="2" pos="224" show="4" value="0004"/>
        <field name="dns.a" showname="Address: 199.43.133.53" size="4" pos="226" show="199.43.133.53" value="c72b8535"/>
      </field>
      <field name="" show="b.iana-servers.net: type AAAA, class IN, addr 2001:500:8d::53" size="28" pos="230" value="c058001c00010002a300001020010500008d00000000000000000053">
        <field name="dns.resp.name" showname="Name: b.iana-servers.net" size="2" pos="230" show="b.iana-servers.net" value="c058"/>
        <field name="dns.resp.type" showname="Type: AAAA (IPv6 Address) (28)" size="2" pos="232" show="28" value="001c"/>
        <field name="dns.resp.class" showname="Class: IN (0x0001)" size="2" pos="234" show="0x00000001" value="0001"/>
        <field name="dns.resp.ttl" showname="Time to live: 172800" size="4" pos="236" show="172800" value="0002a300"/>
        <field name="dns.resp.len" showname="Data length: 16" size="2" pos="240" show="16" value="0010"/>
        <field name="dns.aaaa" showname="AAAA Address: 2001:500:8d::53" size="16" pos="242" show="2001:500:8d::53" value="20010500008d00000000000000000053"/>
      </field>
      <field name="" show="c.iana-servers.net: type A, class IN, addr 199.43.134.53" size="16" pos="258" value="c068000100010002a3000004c72b8635">
        <field name="dns.resp.name" showname="Name: c.iana-servers.net" size="2" pos="258" show="c.iana-servers.net" value="c068"/>
        <field name="dns.resp.type" showname="Type: A (Host Address) (1)" size="2" pos="260" show="1" value="0001"/>
        <field name="dns.resp.class" showname="Class: IN (0x0001)" size="2" pos="262" show="0x00000001" value="0001"/>
        <field name="dns.resp.ttl" showname="Time to live: 172800" size="4" pos="264" show="172800" value="0002a300"/>
        <field name="dns.resp.len" showname="Data length: 4" size="2" pos="268" show="4" value="0004"/>
        <field name="dns.a" showname="Address: 199.43.134.53" size="4" pos="270" show="199.43.134.53" value="c72b8635"/>
      </field>
      <field name="" show="c.iana-servers.net: type AAAA, class IN, addr 2001:500:8e::53" size="28" pos="274" value="c068001c00010002a300001020010500008e00000000000000000053">
        <field name="dns.resp.name" showname="Name: c.iana-servers.net" size="2" pos="274" show="c.iana-servers.net" value="c068"/>
        <field name="dns.resp.type" showname="Type: AAAA (IPv6 Address) (28)" size="2" pos="276" show="28" value="001c"/>
        <field name="dns.resp.class" showname="Class: IN (0x0001)" size="2" pos="278" show="0x00000001" value="0001"/>
        <field name="dns.resp.ttl" showname="Time to live: 172800" size="4" pos="280" show="172800" value="0002a300"/>
        <field name="dns.resp.len" showname="Data length: 16" size="2" pos="284" show="16" value="0010"/>
        <field name="dns.aaaa" showname="AAAA Address: 2001:500:8e::53" size="16" pos="286" show="2001:500:8e::53" value="20010500008e00000000000000000053"/>
      </field>
    </field>
    <field name="dns.response_to" showname="Request In: 9" size="0" pos="62" show="9"/>
    <field name="dns.time" showname="Time: 0.017391000 seconds" size="0" pos="62" show="0.017391000"/>
  </proto>
</packet>


<packet>
  <proto name="geninfo" pos="0" showname="General information" size="95">
    <field name="num" pos="0" show="11" showname="Number" value="b" size="95"/>
    <field name="len" pos="0" show="95" showname="Frame Length" value="5f" size="95"/>
    <field name="caplen" pos="0" show="95" showname="Captured Length" value="5f" size="95"/>
    <field name="timestamp" pos="0" show="Sep  5, 2019 18:48:35.167816000 CEST" showname="Captured Time" value="1567702115.167816000" size="95"/>
  </proto>
  <proto name="frame" showname="Frame 11: 95 bytes on wire (760 bits), 95 bytes captured (760 bits)" size="95" pos="0">
    <field name="filtered" value="frame" />
  </proto>
  <proto name="eth" showname="Ethernet II, Src: 68:5b:35:ad:aa:e1, Dst: 00:1b:21:38:e9:78" size="14" pos="0">
    <field name="filtered" value="eth" />
  </proto>
  <proto name="ipv6" showname="Internet Protocol Version 6, Src: 2001:6a8:308f:2:f1f3:2f2f:397c:1cb5, Dst: 2001:500:8f::53" size="40" pos="14">
    <field name="filtered" value="ipv6" />
  </proto>
  <proto name="udp" showname="User Datagram Protocol" size="8" pos="54">
    <field name="filtered" value="udp" />
  </proto>
  <proto name="dns" showname="Domain Name System (query)" size="33" pos="62">
    <field name="dns.id" showname="Transaction ID: 0x6940" size="2" pos="62" show="0x00006940" value="6940"/>
    <field name="dns.flags" showname="Flags: 0x0120 Standard query" size="2" pos="64" show="0x00000120" value="0120">
      <field name="dns.flags.response" showname="0... .... .... .... = Response: Message is a query" size="2" pos="64" show="0" value="0" unmaskedvalue="0120"/>
      <field name="dns.flags.opcode" showname=".000 0... .... .... = Opcode: Standard query (0)" size="2" pos="64" show="0" value="0" unmaskedvalue="0120"/>
      <field name="dns.flags.truncated" showname=".... ..0. .... .... = Truncated: Message is not truncated" size="2" pos="64" show="0" value="0" unmaskedvalue="0120"/>
      <field name="dns.flags.recdesired" showname=".... ...1 .... .... = Recursion desired: Do query recursively" size="2" pos="64" show="1" value="1" unmaskedvalue="0120"/>
      <field name="dns.flags.z" showname=".... .... .0.. .... = Z: reserved (0)" size="2" pos="64" show="0" value="0" unmaskedvalue="0120"/>
      <field name="dns.flags.authenticated" showname=".... .... ..1. .... = AD bit: Set" size="2" pos="64" show="1" value="1" unmaskedvalue="0120"/>
      <field name="dns.flags.checkdisable" showname=".... .... ...0 .... = Non-authenticated data: Unacceptable" size="2" pos="64" show="0" value="0" unmaskedvalue="0120"/>
    </field>
    <field name="dns.count.queries" showname="Questions: 1" size="2" pos="66" show="1" value="0001"/>
    <field name="dns.count.answers" showname="Answer RRs: 0" size="2" pos="68" show="0" value="0000"/>
    <field name="dns.count.auth_rr" showname="Authority RRs: 0" size="2" pos="70" show="0" value="0000"/>
    <field name="dns.count.add_rr" showname="Additional RRs: 0" size="2" pos="72" show="0" value="0000"/>
    <field name="" show="Queries" size="21" pos="74" value="03777777076578616d706c6503636f6d00001c0001">
      <field name="" show="www.example.com: type AAAA, class IN" size="21" pos="74" value="03777777076578616d706c6503636f6d00001c0001">
        <field name="dns.qry.name" showname="Name: www.example.com" size="17" pos="74" show="www.example.com" value="03777777076578616d706c6503636f6d00"/>
        <field name="dns.qry.name.len" showname="Name Length: 15" size="17" pos="74" show="15" value="03777777076578616d706c6503636f6d00"/>
        <field name="dns.count.labels" showname="Label Count: 3" size="17" pos="74" show="3" value="03777777076578616d706c6503636f6d00"/>
        <field name="dns.qry.type" showname="Type: AAAA (IPv6 Address) (28)" size="2" pos="91" show="28" value="001c"/>
        <field name="dns.qry.class" showname="Class: IN (0x0001)" size="2" pos="93" show="0x00000001" value="0001"/>
      </field>
    </field>
  </proto>
</packet>


<packet>
  <proto name="geninfo" pos="0" showname="General information" size="123">
    <field name="num" pos="0" show="12" showname="Number" value="c" size="123"/>
    <field name="len" pos="0" show="123" showname="Frame Length" value="7b" size="123"/>
    <field name="caplen" pos="0" show="123" showname="Captured Length" value="7b" size="123"/>
    <field name="timestamp" pos="0" show="Sep  5, 2019 18:48:35.264648000 CEST" showname="Captured Time" value="1567702115.264648000" size="123"/>
  </proto>
  <proto name="frame" showname="Frame 12: 123 bytes on wire (984 bits), 123 bytes captured (984 bits)" size="123" pos="0">
    <field name="filtered" value="frame" />
  </proto>
  <proto name="eth" showname="Ethernet II, Src: 00:1b:21:38:e9:78, Dst: 68:5b:35:ad:aa:e1" size="14" pos="0">
    <field name="filtered" value="eth" />
  </proto>
  <proto name="ipv6" showname="Internet Protocol Version 6, Src: 2001:500:8f::53, Dst: 2001:6a8:308f:2:f1f3:2f2f:397c:1cb5" size="40" pos="14">
    <field name="filtered" value="ipv6" />
  </proto>
  <proto name="udp" showname="User Datagram Protocol" size="8" pos="54">
    <field name="filtered" value="udp" />
  </proto>
  <proto name="dns" showname="Domain Name System (response)" size="61" pos="62">
    <field name="dns.id" showname="Transaction ID: 0x6940" size="2" pos="62" show="0x00006940" value="6940"/>
    <field name="dns.flags" showname="Flags: 0x8500 Standard query response, No error" size="2" pos="64" show="0x00008500" value="8500">
      <field name="dns.flags.response" showname="1... .... .... .... = Response: Message is a response" size="2" pos="64" show="1" value="1" unmaskedvalue="8500"/>
      <field name="dns.flags.opcode" showname=".000 0... .... .... = Opcode: Standard query (0)" size="2" pos="64" show="0" value="0" unmaskedvalue="8500"/>
      <field name="dns.flags.authoritative" showname=".... .1.. .... .... = Authoritative: Server is an authority for domain" size="2" pos="64" show="1" value="1" unmaskedvalue="8500"/>
      <field name="dns.flags.truncated" showname=".... ..0. .... .... = Truncated: Message is not truncated" size="2" pos="64" show="0" value="0" unmaskedvalue="8500"/>
      <field name="dns.flags.recdesired" showname=".... ...1 .... .... = Recursion desired: Do query recursively" size="2" pos="64" show="1" value="1" unmaskedvalue="8500"/>
      <field name="dns.flags.recavail" showname=".... .... 0... .... = Recursion available: Server can&#x27;t do recursive queries" size="2" pos="64" show="0" value="0" unmaskedvalue="8500"/>
      <field name="dns.flags.z" showname=".... .... .0.. .... = Z: reserved (0)" size="2" pos="64" show="0" value="0" unmaskedvalue="8500"/>
      <field name="dns.flags.authenticated" showname=".... .... ..0. .... = Answer authenticated: Answer/authority portion was not authenticated by the server" size="2" pos="64" show="0" value="0" unmaskedvalue="8500"/>
      <field name="dns.flags.checkdisable" showname=".... .... ...0 .... = Non-authenticated data: Unacceptable" size="2" pos="64" show="0" value="0" unmaskedvalue="8500"/>
      <field name="dns.flags.rcode" showname=".... .... .... 0000 = Reply code: No error (0)" size="2" pos="64" show="0" value="0" unmaskedvalue="8500"/>
    </field>
    <field name="dns.count.queries" showname="Questions: 1" size="2" pos="66" show="1" value="0001"/>
    <field name="dns.count.answers" showname="Answer RRs: 1" size="2" pos="68" show="1" value="0001"/>
    <field name="dns.count.auth_rr" showname="Authority RRs: 0" size="2" pos="70" show="0" value="0000"/>
    <field name="dns.count.add_rr" showname="Additional RRs: 0" size="2" pos="72" show="0" value="0000"/>
    <field name="" show="Queries" size="21" pos="74" value="03777777076578616d706c6503636f6d00001c0001">
      <field name="" show="www.example.com: type AAAA, class IN" size="21" pos="74" value="03777777076578616d706c6503636f6d00001c0001">
        <field name="dns.qry.name" showname="Name: www.example.com" size="17" pos="74" show="www.example.com" value="03777777076578616d706c6503636f6d00"/>
        <field name="dns.qry.name.len" showname="Name Length: 15" size="17" pos="74" show="15" value="03777777076578616d706c6503636f6d00"/>
        <field name="dns.count.labels" showname="Label Count: 3" size="17" pos="74" show="3" value="03777777076578616d706c6503636f6d00"/>
        <field name="dns.qry.type" showname="Type: AAAA (IPv6 Address) (28)" size="2" pos="91" show="28" value="001c"/>
        <field name="dns.qry.class" showname="Class: IN (0x0001)" size="2" pos="93" show="0x00000001" value="0001"/>
      </field>
    </field>
    <field name="" show="Answers" size="28" pos="95" value="c00c001c000100015180001026062800022000010248189325c81946">
      <field name="" show="www.example.com: type AAAA, class IN, addr 2606:2800:220:1:248:1893:25c8:1946" size="28" pos="95" value="c00c001c000100015180001026062800022000010248189325c81946">
        <field name="dns.resp.name" showname="Name: www.example.com" size="2" pos="95" show="www.example.com" value="c00c"/>
        <field name="dns.resp.type" showname="Type: AAAA (IPv6 Address) (28)" size="2" pos="97" show="28" value="001c"/>
        <field name="dns.resp.class" showname="Class: IN (0x0001)" size="2" pos="99" show="0x00000001" value="0001"/>
        <field name="dns.resp.ttl" showname="Time to live: 86400" size="4" pos="101" show="86400" value="00015180"/>
        <field name="dns.resp.len" showname="Data length: 16" size="2" pos="105" show="16" value="0010"/>
        <field name="dns.aaaa" showname="AAAA Address: 2606:2800:220:1:248:1893:25c8:1946" size="16" pos="107" show="2606:2800:220:1:248:1893:25c8:1946" value="26062800022000010248189325c81946"/>
      </field>
    </field>
    <field name="dns.response_to" showname="Request In: 11" size="0" pos="62" show="11"/>
    <field name="dns.time" showname="Time: 0.096832000 seconds" size="0" pos="62" show="0.096832000"/>
  </proto>
</packet>


</pdml>
