<?xml version="1.0" encoding="utf-8"?>
<?xml-stylesheet type="text/xsl" href="pdml2html.xsl"?>
<!-- You can find pdml2html.xsl in /Applications/Wireshark.app/Contents/Resources/share/wireshark or at https://code.wireshark.org/review/gitweb?p=wireshark.git;a=blob_plain;f=pdml2html.xsl. -->
<pdml version="0" creator="wireshark/3.0.1" time="Thu May 16 16:04:33 2019" capture_file="tcp-timstamp-1-2.pcap">
<packet>
  <proto name="geninfo" pos="0" showname="General information" size="90">
    <field name="num" pos="0" show="1" showname="Number" value="1" size="90"/>
    <field name="len" pos="0" show="90" showname="Frame Length" value="5a" size="90"/>
    <field name="caplen" pos="0" show="90" showname="Captured Length" value="5a" size="90"/>
    <field name="timestamp" pos="0" show="Oct 25, 2018 17:41:16.887066000 CEST" showname="Captured Time" value="1540482076.887066000" size="90"/>
  </proto>
  <proto name="frame" showname="Frame 1: 90 bytes on wire (720 bits), 90 bytes captured (720 bits)" size="90" pos="0">
    <field name="filtered" value="frame" />
  </proto>
  <proto name="eth" showname="Ethernet II, Src: a2:27:11:b7:26:e2, Dst: f6:c7:ae:9a:55:92" size="14" pos="0">
    <field name="filtered" value="eth" />
  </proto>
  <proto name="ipv6" showname="Internet Protocol Version 6, Src: 2001:7ab:1::a, Dst: 2001:7ab:3::c" size="40" pos="14">
    <field name="filtered" value="ipv6" />
  </proto>
  <proto name="tcp" showname="Transmission Control Protocol, Src Port: 53760, Dst Port: 1234, Seq: 2810389303, Len: 0" size="36" pos="54">
    <field name="tcp.srcport" showname="Source Port: 53760" size="2" pos="54" show="53760" value="d200"/>
    <field name="tcp.dstport" showname="Destination Port: 1234" size="2" pos="56" show="1234" value="04d2"/>
    <field name="tcp.port" showname="Source or Destination Port: 53760" hide="yes" size="2" pos="54" show="53760" value="d200"/>
    <field name="tcp.port" showname="Source or Destination Port: 1234" hide="yes" size="2" pos="56" show="1234" value="04d2"/>
    <field name="tcp.stream" showname="Stream index: 0" size="0" pos="54" show="0"/>
    <field name="tcp.len" showname="TCP Segment Len: 0" size="1" pos="66" show="0" value="90"/>
    <field name="tcp.seq" showname="Sequence number: 2810389303" size="4" pos="58" show="2810389303" value="a7832337"/>
    <field name="tcp.nxtseq" showname="Next sequence number: 2810389303" size="0" pos="54" show="2810389303"/>
    <field name="tcp.ack" showname="Acknowledgment number: 0" size="4" pos="62" show="0" value="00000000"/>
    <field name="tcp.hdr_len" showname="1001 .... = Header Length: 36 bytes (9)" size="1" pos="66" show="36" value="90"/>
    <field name="tcp.flags" showname="Flags: 0x002 (SYN)" size="2" pos="66" show="0x00000002" value="2" unmaskedvalue="9002">
      <field name="tcp.flags.res" showname="000. .... .... = Reserved: Not set" size="1" pos="66" show="0" value="0" unmaskedvalue="90"/>
      <field name="tcp.flags.ns" showname="...0 .... .... = Nonce: Not set" size="1" pos="66" show="0" value="0" unmaskedvalue="90"/>
      <field name="tcp.flags.cwr" showname=".... 0... .... = Congestion Window Reduced (CWR): Not set" size="1" pos="67" show="0" value="0" unmaskedvalue="02"/>
      <field name="tcp.flags.ecn" showname=".... .0.. .... = ECN-Echo: Not set" size="1" pos="67" show="0" value="0" unmaskedvalue="02"/>
      <field name="tcp.flags.urg" showname=".... ..0. .... = Urgent: Not set" size="1" pos="67" show="0" value="0" unmaskedvalue="02"/>
      <field name="tcp.flags.ack" showname=".... ...0 .... = Acknowledgment: Not set" size="1" pos="67" show="0" value="0" unmaskedvalue="02"/>
      <field name="tcp.flags.push" showname=".... .... 0... = Push: Not set" size="1" pos="67" show="0" value="0" unmaskedvalue="02"/>
      <field name="tcp.flags.reset" showname=".... .... .0.. = Reset: Not set" size="1" pos="67" show="0" value="0" unmaskedvalue="02"/>
      <field name="tcp.flags.syn" showname=".... .... ..1. = Syn: Set" size="1" pos="67" show="1" value="1" unmaskedvalue="02">
        <field name="_ws.expert" showname="Expert Info (Chat/Sequence): Connection establish request (SYN): server port 1234" size="0" pos="67">
          <field name="tcp.connection.syn" showname="Connection establish request (SYN): server port 1234" size="0" pos="0" show="" value=""/>
          <field name="_ws.expert.message" showname="Message: Connection establish request (SYN): server port 1234" hide="yes" size="0" pos="0" show="Connection establish request (SYN): server port 1234"/>
          <field name="_ws.expert.severity" showname="Severity level: Chat" size="0" pos="0" show="2097152"/>
          <field name="_ws.expert.group" showname="Group: Sequence" size="0" pos="0" show="33554432"/>
        </field>
      </field>
      <field name="tcp.flags.fin" showname=".... .... ...0 = Fin: Not set" size="1" pos="67" show="0" value="0" unmaskedvalue="02"/>
      <field name="tcp.flags.str" showname="TCP Flags: \xc2\xb7\xc2\xb7\xc2\xb7\xc2\xb7\xc2\xb7\xc2\xb7\xc2\xb7\xc2\xb7\xc2\xb7\xc2\xb7S\xc2\xb7" size="2" pos="66" show="\xc2\xb7\xc2\xb7\xc2\xb7\xc2\xb7\xc2\xb7\xc2\xb7\xc2\xb7\xc2\xb7\xc2\xb7\xc2\xb7S\xc2\xb7" value="9002"/>
    </field>
    <field name="tcp.window_size_value" showname="Window size value: 28800" size="2" pos="68" show="28800" value="7080"/>
    <field name="tcp.window_size" showname="Calculated window size: 28800" size="2" pos="68" show="28800" value="7080"/>
    <field name="tcp.checksum" showname="Checksum: 0x4f9c [unverified]" size="2" pos="70" show="0x00004f9c" value="4f9c"/>
    <field name="tcp.checksum.status" showname="Checksum Status: Unverified" size="0" pos="70" show="2"/>
    <field name="tcp.urgent_pointer" showname="Urgent pointer: 0" size="2" pos="72" show="0" value="0000"/>
    <field name="tcp.options" showname="Options: (16 bytes), Maximum segment size, No-Operation (NOP), No-Operation (NOP), Timestamps" size="16" pos="74" show="02:04:05:a0:01:01:08:0a:00:04:75:9c:00:00:00:00" value="020405a00101080a0004759c00000000">
      <field name="tcp.options.mss" showname="TCP Option - Maximum segment size: 1440 bytes" size="4" pos="74" show="02:04:05:a0" value="020405a0">
        <field name="tcp.option_kind" showname="Kind: Maximum Segment Size (2)" size="1" pos="74" show="2" value="02"/>
        <field name="tcp.option_len" showname="Length: 4" size="1" pos="75" show="4" value="04"/>
        <field name="tcp.options.mss_val" showname="MSS Value: 1440" size="2" pos="76" show="1440" value="05a0"/>
      </field>
      <field name="tcp.options.nop" showname="TCP Option - No-Operation (NOP)" size="1" pos="78" show="01" value="01">
        <field name="tcp.option_kind" showname="Kind: No-Operation (1)" size="1" pos="78" show="1" value="01"/>
      </field>
      <field name="tcp.options.nop" showname="TCP Option - No-Operation (NOP)" size="1" pos="79" show="01" value="01">
        <field name="tcp.option_kind" showname="Kind: No-Operation (1)" size="1" pos="79" show="1" value="01"/>
      </field>
      <field name="tcp.options.timestamp" showname="TCP Option - Timestamps: TSval 292252, TSecr ????" size="10" pos="80" show="08:0a:00:04:75:9c:00:00:00:00" value="080a0004759c00000000">
        <field name="tcp.option_kind" showname="Kind: Time Stamp Option (8)" size="1" pos="80" show="8" value="08"/>
        <field name="tcp.option_len" showname="Length: 10" size="1" pos="81" show="10" value="0a"/>
        <field name="tcp.options.timestamp.tsval" showname="Timestamp value: 292252" size="4" pos="82" show="292252" value="0004759c"/>
        <field name="tcp.options.timestamp.tsecr" showname="Timestamp echo reply: 0" size="4" pos="86" show="0" value="00000000"/>
      </field>
    </field>
    <field name="" show="Timestamps" size="0" pos="54">
      <field name="tcp.time_relative" showname="Time since first frame in this TCP stream: 0.000000000 seconds" size="0" pos="54" show="0.000000000"/>
      <field name="tcp.time_delta" showname="Time since previous frame in this TCP stream: 0.000000000 seconds" size="0" pos="54" show="0.000000000"/>
    </field>
  </proto>
</packet>


<packet>
  <proto name="geninfo" pos="0" showname="General information" size="90">
    <field name="num" pos="0" show="2" showname="Number" value="2" size="90"/>
    <field name="len" pos="0" show="90" showname="Frame Length" value="5a" size="90"/>
    <field name="caplen" pos="0" show="90" showname="Captured Length" value="5a" size="90"/>
    <field name="timestamp" pos="0" show="Oct 25, 2018 17:41:16.887096000 CEST" showname="Captured Time" value="1540482076.887096000" size="90"/>
  </proto>
  <proto name="frame" showname="Frame 2: 90 bytes on wire (720 bits), 90 bytes captured (720 bits)" size="90" pos="0">
    <field name="filtered" value="frame" />
  </proto>
  <proto name="eth" showname="Ethernet II, Src: f6:c7:ae:9a:55:92, Dst: a2:27:11:b7:26:e2" size="14" pos="0">
    <field name="filtered" value="eth" />
  </proto>
  <proto name="ipv6" showname="Internet Protocol Version 6, Src: 2001:7ab:3::c, Dst: 2001:7ab:1::a" size="40" pos="14">
    <field name="filtered" value="ipv6" />
  </proto>
  <proto name="tcp" showname="Transmission Control Protocol, Src Port: 1234, Dst Port: 53760, Seq: 2100570798, Ack: 2810389304, Len: 0" size="36" pos="54">
    <field name="tcp.srcport" showname="Source Port: 1234" size="2" pos="54" show="1234" value="04d2"/>
    <field name="tcp.dstport" showname="Destination Port: 53760" size="2" pos="56" show="53760" value="d200"/>
    <field name="tcp.port" showname="Source or Destination Port: 1234" hide="yes" size="2" pos="54" show="1234" value="04d2"/>
    <field name="tcp.port" showname="Source or Destination Port: 53760" hide="yes" size="2" pos="56" show="53760" value="d200"/>
    <field name="tcp.stream" showname="Stream index: 0" size="0" pos="54" show="0"/>
    <field name="tcp.len" showname="TCP Segment Len: 0" size="1" pos="66" show="0" value="90"/>
    <field name="tcp.seq" showname="Sequence number: 2100570798" size="4" pos="58" show="2100570798" value="7d342aae"/>
    <field name="tcp.nxtseq" showname="Next sequence number: 2100570798" size="0" pos="54" show="2100570798"/>
    <field name="tcp.ack" showname="Acknowledgment number: 2810389304" size="4" pos="62" show="2810389304" value="a7832338"/>
    <field name="tcp.hdr_len" showname="1001 .... = Header Length: 36 bytes (9)" size="1" pos="66" show="36" value="90"/>
    <field name="tcp.flags" showname="Flags: 0x012 (SYN, ACK)" size="2" pos="66" show="0x00000012" value="12" unmaskedvalue="9012">
      <field name="tcp.flags.res" showname="000. .... .... = Reserved: Not set" size="1" pos="66" show="0" value="0" unmaskedvalue="90"/>
      <field name="tcp.flags.ns" showname="...0 .... .... = Nonce: Not set" size="1" pos="66" show="0" value="0" unmaskedvalue="90"/>
      <field name="tcp.flags.cwr" showname=".... 0... .... = Congestion Window Reduced (CWR): Not set" size="1" pos="67" show="0" value="0" unmaskedvalue="12"/>
      <field name="tcp.flags.ecn" showname=".... .0.. .... = ECN-Echo: Not set" size="1" pos="67" show="0" value="0" unmaskedvalue="12"/>
      <field name="tcp.flags.urg" showname=".... ..0. .... = Urgent: Not set" size="1" pos="67" show="0" value="0" unmaskedvalue="12"/>
      <field name="tcp.flags.ack" showname=".... ...1 .... = Acknowledgment: Set" size="1" pos="67" show="1" value="1" unmaskedvalue="12"/>
      <field name="tcp.flags.push" showname=".... .... 0... = Push: Not set" size="1" pos="67" show="0" value="0" unmaskedvalue="12"/>
      <field name="tcp.flags.reset" showname=".... .... .0.. = Reset: Not set" size="1" pos="67" show="0" value="0" unmaskedvalue="12"/>
      <field name="tcp.flags.syn" showname=".... .... ..1. = Syn: Set" size="1" pos="67" show="1" value="1" unmaskedvalue="12">
        <field name="_ws.expert" showname="Expert Info (Chat/Sequence): Connection establish acknowledge (SYN+ACK): server port 1234" size="0" pos="67">
          <field name="tcp.connection.sack" showname="Connection establish acknowledge (SYN+ACK): server port 1234" size="0" pos="0" show="" value=""/>
          <field name="_ws.expert.message" showname="Message: Connection establish acknowledge (SYN+ACK): server port 1234" hide="yes" size="0" pos="0" show="Connection establish acknowledge (SYN+ACK): server port 1234"/>
          <field name="_ws.expert.severity" showname="Severity level: Chat" size="0" pos="0" show="2097152"/>
          <field name="_ws.expert.group" showname="Group: Sequence" size="0" pos="0" show="33554432"/>
        </field>
      </field>
      <field name="tcp.flags.fin" showname=".... .... ...0 = Fin: Not set" size="1" pos="67" show="0" value="0" unmaskedvalue="12"/>
      <field name="tcp.flags.str" showname="TCP Flags: \xc2\xb7\xc2\xb7\xc2\xb7\xc2\xb7\xc2\xb7\xc2\xb7\xc2\xb7A\xc2\xb7\xc2\xb7S\xc2\xb7" size="2" pos="66" show="\xc2\xb7\xc2\xb7\xc2\xb7\xc2\xb7\xc2\xb7\xc2\xb7\xc2\xb7A\xc2\xb7\xc2\xb7S\xc2\xb7" value="9012"/>
    </field>
    <field name="tcp.window_size_value" showname="Window size value: 28560" size="2" pos="68" show="28560" value="6f90"/>
    <field name="tcp.window_size" showname="Calculated window size: 28560" size="2" pos="68" show="28560" value="6f90"/>
    <field name="tcp.checksum" showname="Checksum: 0x4f9c [unverified]" size="2" pos="70" show="0x00004f9c" value="4f9c"/>
    <field name="tcp.checksum.status" showname="Checksum Status: Unverified" size="0" pos="70" show="2"/>
    <field name="tcp.urgent_pointer" showname="Urgent pointer: 0" size="2" pos="72" show="0" value="0000"/>
    <field name="tcp.options" showname="Options: (16 bytes), Maximum segment size, No-Operation (NOP), No-Operation (NOP), Timestamps" size="16" pos="74" show="02:04:05:a0:01:01:08:0a:00:04:75:9d:00:04:75:9c" value="020405a00101080a0004759d0004759c">
      <field name="tcp.options.mss" showname="TCP Option - Maximum segment size: 1440 bytes" size="4" pos="74" show="02:04:05:a0" value="020405a0">
        <field name="tcp.option_kind" showname="Kind: Maximum Segment Size (2)" size="1" pos="74" show="2" value="02"/>
        <field name="tcp.option_len" showname="Length: 4" size="1" pos="75" show="4" value="04"/>
        <field name="tcp.options.mss_val" showname="MSS Value: 1440" size="2" pos="76" show="1440" value="05a0"/>
      </field>
      <field name="tcp.options.nop" showname="TCP Option - No-Operation (NOP)" size="1" pos="78" show="01" value="01">
        <field name="tcp.option_kind" showname="Kind: No-Operation (1)" size="1" pos="78" show="1" value="01"/>
      </field>
      <field name="tcp.options.nop" showname="TCP Option - No-Operation (NOP)" size="1" pos="79" show="01" value="01">
        <field name="tcp.option_kind" showname="Kind: No-Operation (1)" size="1" pos="79" show="1" value="01"/>
      </field>
      <field name="tcp.options.timestamp" showname="TCP Option - Timestamps: TSval 292253, TSecr ????" size="10" pos="80" show="08:0a:00:04:75:9d:00:04:75:9c" value="080a0004759d0004759c">
        <field name="tcp.option_kind" showname="Kind: Time Stamp Option (8)" size="1" pos="80" show="8" value="08"/>
        <field name="tcp.option_len" showname="Length: 10" size="1" pos="81" show="10" value="0a"/>
        <field name="tcp.options.timestamp.tsval" showname="Timestamp value: 292253" size="4" pos="82" show="292253" value="0004759d"/>
        <field name="tcp.options.timestamp.tsecr" showname="Timestamp echo reply: 292252" size="4" pos="86" show="292252" value="0004759c"/>
      </field>
    </field>
    <field name="tcp.analysis" showname="SEQ/ACK analysis" size="0" pos="54" show="" value="">
      <field name="tcp.analysis.acks_frame" showname="This is an ACK to the segment in frame: 1" size="0" pos="54" show="1"/>
      <field name="tcp.analysis.ack_rtt" showname="The RTT to ACK the segment was: 0.000030000 seconds" size="0" pos="54" show="0.000030000"/>
    </field>
    <field name="" show="Timestamps" size="0" pos="54">
      <field name="tcp.time_relative" showname="Time since first frame in this TCP stream: 0.000030000 seconds" size="0" pos="54" show="0.000030000"/>
      <field name="tcp.time_delta" showname="Time since previous frame in this TCP stream: 0.000030000 seconds" size="0" pos="54" show="0.000030000"/>
    </field>
  </proto>
</packet>


</pdml>
