<?xml version="1.0" encoding="utf-8"?>
<?xml-stylesheet type="text/xsl" href="pdml2html.xsl"?>
<!-- You can find pdml2html.xsl in /Applications/Wireshark.app/Contents/Resources/share/wireshark or at https://code.wireshark.org/review/gitweb?p=wireshark.git;a=blob_plain;f=pdml2html.xsl. -->
<pdml version="0" creator="wireshark/3.0.1" time="Thu May 16 16:32:10 2019" capture_file="ip6-packet11.pcap">
<packet>
  <proto name="geninfo" pos="0" showname="General information" size="70">
    <field name="num" pos="0" show="1" showname="Number" value="1" size="70"/>
    <field name="len" pos="0" show="70" showname="Frame Length" value="46" size="70"/>
    <field name="caplen" pos="0" show="70" showname="Captured Length" value="46" size="70"/>
    <field name="timestamp" pos="0" show="Nov 20, 2018 16:59:30.784742000 CET" showname="Captured Time" value="1542729570.784742000" size="70"/>
  </proto>
  <proto name="frame" showname="Frame 1: 70 bytes on wire (560 bits), 70 bytes captured (560 bits)" size="70" pos="0">
    <field name="filtered" value="frame" />
  </proto>
  <proto name="eth" showname="Ethernet II, Src: 00:1b:21:38:e9:78, Dst: 68:5b:35:ad:aa:e1" size="14" pos="0">
    <field name="filtered" value="eth" />
  </proto>
  <proto name="ipv6" showname="Internet Protocol Version 6, Src: 2001:6a8:3081:1::2, Dst: 2001:6a8:308f:2:48e9:95ae:3a92:922d" size="40" pos="14">
    <field name="ipv6.version" showname="0110 .... = Version: 6" size="1" pos="14" show="6" value="6" unmaskedvalue="60"/>
    <field name="ip.version" showname="0110 .... = Version: 6 [This field makes the filter match on &quot;ip.version == 6&quot; possible]" hide="yes" size="1" pos="14" show="6" value="6" unmaskedvalue="60"/>
    <field name="ipv6.tclass" showname=".... 0000 0000 .... .... .... .... .... = Traffic Class: 0x00 (DSCP: CS0, ECN: Not-ECT)" size="4" pos="14" show="0x00000000" value="0" unmaskedvalue="6006f536">
      <field name="ipv6.tclass.dscp" showname=".... 0000 00.. .... .... .... .... .... = Differentiated Services Codepoint: Default (0)" size="4" pos="14" show="0" value="0" unmaskedvalue="6006f536"/>
      <field name="ipv6.tclass.ecn" showname=".... .... ..00 .... .... .... .... .... = Explicit Congestion Notification: Not ECN-Capable Transport (0)" size="4" pos="14" show="0" value="0" unmaskedvalue="6006f536"/>
    </field>
    <field name="ipv6.flow" showname=".... .... .... 0110 1111 0101 0011 0110 = Flow Label: 0x6f536" size="4" pos="14" show="0x0006f536" value="6F536" unmaskedvalue="6006f536"/>
    <field name="ipv6.plen" showname="Payload Length: 16" size="2" pos="18" show="16" value="0010"/>
    <field name="ipv6.nxt" showname="Next Header: ICMPv6 (58)" size="1" pos="20" show="58" value="3a"/>
    <field name="ipv6.hlim" showname="Hop Limit: 61" size="1" pos="21" show="61" value="3d"/>
    <field name="ipv6.src" showname="Source: 2001:6a8:3081:1::2" size="16" pos="22" show="2001:6a8:3081:1::2" value="200106a8308100010000000000000002"/>
    <field name="ipv6.addr" showname="Source or Destination Address: 2001:6a8:3081:1::2" hide="yes" size="16" pos="22" show="2001:6a8:3081:1::2" value="200106a8308100010000000000000002"/>
    <field name="ipv6.src_host" showname="Source Host: 2001:6a8:3081:1::2" hide="yes" size="16" pos="22" show="2001:6a8:3081:1::2" value="200106a8308100010000000000000002"/>
    <field name="ipv6.host" showname="Source or Destination Host: 2001:6a8:3081:1::2" hide="yes" size="16" pos="22" show="2001:6a8:3081:1::2" value="200106a8308100010000000000000002"/>
    <field name="ipv6.dst" showname="Destination: 2001:6a8:308f:2:48e9:95ae:3a92:922d" size="16" pos="38" show="2001:6a8:308f:2:48e9:95ae:3a92:922d" value="200106a8308f000248e995ae3a92922d"/>
    <field name="ipv6.addr" showname="Source or Destination Address: 2001:6a8:308f:2:48e9:95ae:3a92:922d" hide="yes" size="16" pos="38" show="2001:6a8:308f:2:48e9:95ae:3a92:922d" value="200106a8308f000248e995ae3a92922d"/>
    <field name="ipv6.dst_host" showname="Destination Host: 2001:6a8:308f:2:48e9:95ae:3a92:922d" hide="yes" size="16" pos="38" show="2001:6a8:308f:2:48e9:95ae:3a92:922d" value="200106a8308f000248e995ae3a92922d"/>
    <field name="ipv6.host" showname="Source or Destination Host: 2001:6a8:308f:2:48e9:95ae:3a92:922d" hide="yes" size="16" pos="38" show="2001:6a8:308f:2:48e9:95ae:3a92:922d" value="200106a8308f000248e995ae3a92922d"/>
  </proto>
  <proto name="icmpv6" showname="Internet Control Message Protocol v6" size="16" pos="54">
    <field name="icmpv6.type" showname="Type: Echo (ping) reply (129)" size="1" pos="54" show="129" value="81"/>
    <field name="icmpv6.code" showname="Code: 0" size="1" pos="55" show="0" value="00"/>
    <field name="icmpv6.checksum" showname="Checksum: 0x7b5d [correct]" size="2" pos="56" show="0x00007b5d" value="7b5d"/>
    <field name="icmpv6.checksum.status" showname="Checksum Status: Good" size="0" pos="56" show="1"/>
    <field name="icmpv6.echo.identifier" showname="Identifier: 0x3a83" size="2" pos="58" show="0x00003a83" value="3a83"/>
    <field name="icmpv6.echo.sequence_number" showname="Sequence: 1" size="2" pos="60" show="1" value="0001"/>
    <field name="data" value="5bf42f62000be3b2">
      <field name="data.data" showname="Data: 5bf42f62000be3b2" size="8" pos="62" show="5b:f4:2f:62:00:0b:e3:b2" value="5bf42f62000be3b2"/>
      <field name="data.len" showname="Length: 8" size="0" pos="62" show="8"/>
    </field>
  </proto>
</packet>


</pdml>
