<?xml version="1.0" encoding="utf-8"?>
<?xml-stylesheet type="text/xsl" href="pdml2html.xsl"?>
<!-- You can find pdml2html.xsl in /Applications/Wireshark.app/Contents/Resources/share/wireshark or at https://code.wireshark.org/review/gitweb?p=wireshark.git;a=blob_plain;f=pdml2html.xsl. -->
<pdml version="0" creator="wireshark/3.0.1" time="Thu Oct 10 17:33:32 2019" capture_file="dns-computernetworking.pcap">
<packet>
  <proto name="geninfo" pos="0" showname="General information" size="79">
    <field name="num" pos="0" show="1" showname="Number" value="1" size="79"/>
    <field name="len" pos="0" show="79" showname="Frame Length" value="4f" size="79"/>
    <field name="caplen" pos="0" show="79" showname="Captured Length" value="4f" size="79"/>
    <field name="timestamp" pos="0" show="Sep  5, 2019 18:08:10.255541000 CEST" showname="Captured Time" value="1567699690.255541000" size="79"/>
  </proto>
  <proto name="frame" showname="Frame 1: 79 bytes on wire (632 bits), 79 bytes captured (632 bits)" size="79" pos="0">
    <field name="filtered" value="frame" />
  </proto>
  <proto name="eth" showname="Ethernet II, Src: 68:5b:35:ad:aa:e1, Dst: 00:1b:21:38:e9:78" size="14" pos="0">
    <field name="filtered" value="eth" />
  </proto>
  <proto name="ipv6" showname="Internet Protocol Version 6, Src: 2001:6a8:308f:2:f1f3:2f2f:397c:1cb5, Dst: 2001:4860:4860::8888" size="40" pos="14">
    <field name="filtered" value="ipv6" />
  </proto>
  <proto name="udp" showname="User Datagram Protocol, Src Port: 64091, Dst Port: 53" size="8" pos="54">
    <field name="filtered" value="udp" />
  </proto>
  <proto name="dns" showname="Domain Name System (query)" size="17" pos="62">
    <field name="dns.id" showname="Transaction ID: 0xd351" size="2" pos="62" show="0x0000d351" value="d351"/>
    <field name="dns.flags" showname="Flags: 0x0120 Standard query" size="2" pos="64" show="0x00000120" value="0120">
      <field name="dns.flags.response" showname="0... .... .... .... = Response: Message is a query" size="2" pos="64" show="0" value="0" unmaskedvalue="0120"/>
      <field name="dns.flags.opcode" showname=".000 0... .... .... = Opcode: Standard query (0)" size="2" pos="64" show="0" value="0" unmaskedvalue="0120"/>
      <field name="dns.flags.truncated" showname=".... ..0. .... .... = Truncated: Message is not truncated" size="2" pos="64" show="0" value="0" unmaskedvalue="0120"/>
      <field name="dns.flags.recdesired" showname=".... ...1 .... .... = Recursion desired: Do query recursively" size="2" pos="64" show="1" value="1" unmaskedvalue="0120"/>
      <field name="dns.flags.z" showname=".... .... .0.. .... = Z: reserved (0)" size="2" pos="64" show="0" value="0" unmaskedvalue="0120"/>
      <field name="dns.flags.authenticated" showname=".... .... ..1. .... = AD bit: Set" size="2" pos="64" show="1" value="1" unmaskedvalue="0120"/>
      <field name="dns.flags.checkdisable" showname=".... .... ...0 .... = Non-authenticated data: Unacceptable" size="2" pos="64" show="0" value="0" unmaskedvalue="0120"/>
    </field>
    <field name="dns.count.queries" showname="Questions: 1" size="2" pos="66" show="1" value="0001"/>
    <field name="dns.count.answers" showname="Answer RRs: 0" size="2" pos="68" show="0" value="0000"/>
    <field name="dns.count.auth_rr" showname="Authority RRs: 0" size="2" pos="70" show="0" value="0000"/>
    <field name="dns.count.add_rr" showname="Additional RRs: 0" size="2" pos="72" show="0" value="0000"/>
    <field name="" show="Queries" size="5" pos="74" value="0000020001">
      <field name="" show="&lt;Root&gt;: type NS, class IN" size="5" pos="74" value="0000020001">
        <field name="dns.qry.name" showname="Name: &lt;Root&gt;" size="1" pos="74" show="&lt;Root&gt;" value="00"/>
        <field name="dns.qry.name.len" showname="Name Length: 6" size="6" pos="74" show="6" value="field length invalid!"/>
        <field name="dns.count.labels" showname="Label Count: 1" size="6" pos="74" show="1" value="field length invalid!"/>
        <field name="dns.qry.type" showname="Type: NS (authoritative Name Server) (2)" size="2" pos="75" show="2" value="0002"/>
        <field name="dns.qry.class" showname="Class: IN (0x0001)" size="2" pos="77" show="0x00000001" value="0001"/>
      </field>
    </field>
  </proto>
</packet>


<packet>
  <proto name="geninfo" pos="0" showname="General information" size="290">
    <field name="num" pos="0" show="2" showname="Number" value="2" size="290"/>
    <field name="len" pos="0" show="290" showname="Frame Length" value="122" size="290"/>
    <field name="caplen" pos="0" show="290" showname="Captured Length" value="122" size="290"/>
    <field name="timestamp" pos="0" show="Sep  5, 2019 18:08:10.261468000 CEST" showname="Captured Time" value="1567699690.261468000" size="290"/>
  </proto>
  <proto name="frame" showname="Frame 2: 290 bytes on wire (2320 bits), 290 bytes captured (2320 bits)" size="290" pos="0">
    <field name="filtered" value="frame" />
  </proto>
  <proto name="eth" showname="Ethernet II, Src: 00:1b:21:38:e9:78, Dst: 68:5b:35:ad:aa:e1" size="14" pos="0">
    <field name="filtered" value="eth" />
  </proto>
  <proto name="ipv6" showname="Internet Protocol Version 6, Src: 2001:4860:4860::8888, Dst: 2001:6a8:308f:2:f1f3:2f2f:397c:1cb5" size="40" pos="14">
    <field name="filtered" value="ipv6" />
  </proto>
  <proto name="udp" showname="User Datagram Protocol, Src Port: 53, Dst Port: 64091" size="8" pos="54">
    <field name="filtered" value="udp" />
  </proto>
  <proto name="dns" showname="Domain Name System (response)" size="228" pos="62">
    <field name="dns.id" showname="Transaction ID: 0xd351" size="2" pos="62" show="0x0000d351" value="d351"/>
    <field name="dns.flags" showname="Flags: 0x81a0 Standard query response, No error" size="2" pos="64" show="0x000081a0" value="81a0">
      <field name="dns.flags.response" showname="1... .... .... .... = Response: Message is a response" size="2" pos="64" show="1" value="1" unmaskedvalue="81a0"/>
      <field name="dns.flags.opcode" showname=".000 0... .... .... = Opcode: Standard query (0)" size="2" pos="64" show="0" value="0" unmaskedvalue="81a0"/>
      <field name="dns.flags.authoritative" showname=".... .0.. .... .... = Authoritative: Server is not an authority for domain" size="2" pos="64" show="0" value="0" unmaskedvalue="81a0"/>
      <field name="dns.flags.truncated" showname=".... ..0. .... .... = Truncated: Message is not truncated" size="2" pos="64" show="0" value="0" unmaskedvalue="81a0"/>
      <field name="dns.flags.recdesired" showname=".... ...1 .... .... = Recursion desired: Do query recursively" size="2" pos="64" show="1" value="1" unmaskedvalue="81a0"/>
      <field name="dns.flags.recavail" showname=".... .... 1... .... = Recursion available: Server can do recursive queries" size="2" pos="64" show="1" value="1" unmaskedvalue="81a0"/>
      <field name="dns.flags.z" showname=".... .... .0.. .... = Z: reserved (0)" size="2" pos="64" show="0" value="0" unmaskedvalue="81a0"/>
      <field name="dns.flags.authenticated" showname=".... .... ..1. .... = Answer authenticated: Answer/authority portion was authenticated by the server" size="2" pos="64" show="1" value="1" unmaskedvalue="81a0"/>
      <field name="dns.flags.checkdisable" showname=".... .... ...0 .... = Non-authenticated data: Unacceptable" size="2" pos="64" show="0" value="0" unmaskedvalue="81a0"/>
      <field name="dns.flags.rcode" showname=".... .... .... 0000 = Reply code: No error (0)" size="2" pos="64" show="0" value="0" unmaskedvalue="81a0"/>
    </field>
    <field name="dns.count.queries" showname="Questions: 1" size="2" pos="66" show="1" value="0001"/>
    <field name="dns.count.answers" showname="Answer RRs: 13" size="2" pos="68" show="13" value="000d"/>
    <field name="dns.count.auth_rr" showname="Authority RRs: 0" size="2" pos="70" show="0" value="0000"/>
    <field name="dns.count.add_rr" showname="Additional RRs: 0" size="2" pos="72" show="0" value="0000"/>
    <field name="" show="Queries" size="5" pos="74" value="0000020001">
      <field name="" show="&lt;Root&gt;: type NS, class IN" size="5" pos="74" value="0000020001">
        <field name="dns.qry.name" showname="Name: &lt;Root&gt;" size="1" pos="74" show="&lt;Root&gt;" value="00"/>
        <field name="dns.qry.name.len" showname="Name Length: 6" size="6" pos="74" show="6" value="000002000100"/>
        <field name="dns.count.labels" showname="Label Count: 1" size="6" pos="74" show="1" value="000002000100"/>
        <field name="dns.qry.type" showname="Type: NS (authoritative Name Server) (2)" size="2" pos="75" show="2" value="0002"/>
        <field name="dns.qry.class" showname="Class: IN (0x0001)" size="2" pos="77" show="0x00000001" value="0001"/>
      </field>
    </field>
    <field name="" show="Answers" size="211" pos="79" value="00000200010000b50e001401650c726f6f742d73657276657273036e65740000000200010000b50e00040168c01e00000200010000b50e0004016cc01e00000200010000b50e00040169c01e00000200010000b50e00040161c01e00000200010000b50e00040164c01e00000200010000b50e00040163c01e00000200010000b50e00040162c01e00000200010000b50e0004016ac01e00000200010000b50e0004016bc01e00000200010000b50e00040167c01e00000200010000b50e0004016dc01e00000200010000b50e00040166c01e">
      <field name="" show="&lt;Root&gt;: type NS, class IN, ns e.root-servers.net" size="31" pos="79" value="00000200010000b50e001401650c726f6f742d73657276657273036e657400">
        <field name="dns.resp.name" showname="Name: &lt;Root&gt;" size="1" pos="79" show="&lt;Root&gt;" value="00"/>
        <field name="dns.resp.type" showname="Type: NS (authoritative Name Server) (2)" size="2" pos="80" show="2" value="0002"/>
        <field name="dns.resp.class" showname="Class: IN (0x0001)" size="2" pos="82" show="0x00000001" value="0001"/>
        <field name="dns.resp.ttl" showname="Time to live: 46350" size="4" pos="84" show="46350" value="0000b50e"/>
        <field name="dns.resp.len" showname="Data length: 20" size="2" pos="88" show="20" value="0014"/>
        <field name="dns.ns" showname="Name Server: e.root-servers.net" size="20" pos="90" show="e.root-servers.net" value="01650c726f6f742d73657276657273036e657400"/>
      </field>
      <field name="" show="&lt;Root&gt;: type NS, class IN, ns h.root-servers.net" size="15" pos="110" value="00000200010000b50e00040168c01e">
        <field name="dns.resp.name" showname="Name: &lt;Root&gt;" size="1" pos="110" show="&lt;Root&gt;" value="00"/>
        <field name="dns.resp.type" showname="Type: NS (authoritative Name Server) (2)" size="2" pos="111" show="2" value="0002"/>
        <field name="dns.resp.class" showname="Class: IN (0x0001)" size="2" pos="113" show="0x00000001" value="0001"/>
        <field name="dns.resp.ttl" showname="Time to live: 46350" size="4" pos="115" show="46350" value="0000b50e"/>
        <field name="dns.resp.len" showname="Data length: 4" size="2" pos="119" show="4" value="0004"/>
        <field name="dns.ns" showname="Name Server: h.root-servers.net" size="4" pos="121" show="h.root-servers.net" value="0168c01e"/>
      </field>
      <field name="" show="&lt;Root&gt;: type NS, class IN, ns l.root-servers.net" size="15" pos="125" value="00000200010000b50e0004016cc01e">
        <field name="dns.resp.name" showname="Name: &lt;Root&gt;" size="1" pos="125" show="&lt;Root&gt;" value="00"/>
        <field name="dns.resp.type" showname="Type: NS (authoritative Name Server) (2)" size="2" pos="126" show="2" value="0002"/>
        <field name="dns.resp.class" showname="Class: IN (0x0001)" size="2" pos="128" show="0x00000001" value="0001"/>
        <field name="dns.resp.ttl" showname="Time to live: 46350" size="4" pos="130" show="46350" value="0000b50e"/>
        <field name="dns.resp.len" showname="Data length: 4" size="2" pos="134" show="4" value="0004"/>
        <field name="dns.ns" showname="Name Server: l.root-servers.net" size="4" pos="136" show="l.root-servers.net" value="016cc01e"/>
      </field>
      <field name="" show="&lt;Root&gt;: type NS, class IN, ns i.root-servers.net" size="15" pos="140" value="00000200010000b50e00040169c01e">
        <field name="dns.resp.name" showname="Name: &lt;Root&gt;" size="1" pos="140" show="&lt;Root&gt;" value="00"/>
        <field name="dns.resp.type" showname="Type: NS (authoritative Name Server) (2)" size="2" pos="141" show="2" value="0002"/>
        <field name="dns.resp.class" showname="Class: IN (0x0001)" size="2" pos="143" show="0x00000001" value="0001"/>
        <field name="dns.resp.ttl" showname="Time to live: 46350" size="4" pos="145" show="46350" value="0000b50e"/>
        <field name="dns.resp.len" showname="Data length: 4" size="2" pos="149" show="4" value="0004"/>
        <field name="dns.ns" showname="Name Server: i.root-servers.net" size="4" pos="151" show="i.root-servers.net" value="0169c01e"/>
      </field>
      <field name="" show="&lt;Root&gt;: type NS, class IN, ns a.root-servers.net" size="15" pos="155" value="00000200010000b50e00040161c01e">
        <field name="dns.resp.name" showname="Name: &lt;Root&gt;" size="1" pos="155" show="&lt;Root&gt;" value="00"/>
        <field name="dns.resp.type" showname="Type: NS (authoritative Name Server) (2)" size="2" pos="156" show="2" value="0002"/>
        <field name="dns.resp.class" showname="Class: IN (0x0001)" size="2" pos="158" show="0x00000001" value="0001"/>
        <field name="dns.resp.ttl" showname="Time to live: 46350" size="4" pos="160" show="46350" value="0000b50e"/>
        <field name="dns.resp.len" showname="Data length: 4" size="2" pos="164" show="4" value="0004"/>
        <field name="dns.ns" showname="Name Server: a.root-servers.net" size="4" pos="166" show="a.root-servers.net" value="0161c01e"/>
      </field>
      <field name="" show="&lt;Root&gt;: type NS, class IN, ns d.root-servers.net" size="15" pos="170" value="00000200010000b50e00040164c01e">
        <field name="dns.resp.name" showname="Name: &lt;Root&gt;" size="1" pos="170" show="&lt;Root&gt;" value="00"/>
        <field name="dns.resp.type" showname="Type: NS (authoritative Name Server) (2)" size="2" pos="171" show="2" value="0002"/>
        <field name="dns.resp.class" showname="Class: IN (0x0001)" size="2" pos="173" show="0x00000001" value="0001"/>
        <field name="dns.resp.ttl" showname="Time to live: 46350" size="4" pos="175" show="46350" value="0000b50e"/>
        <field name="dns.resp.len" showname="Data length: 4" size="2" pos="179" show="4" value="0004"/>
        <field name="dns.ns" showname="Name Server: d.root-servers.net" size="4" pos="181" show="d.root-servers.net" value="0164c01e"/>
      </field>
      <field name="" show="&lt;Root&gt;: type NS, class IN, ns c.root-servers.net" size="15" pos="185" value="00000200010000b50e00040163c01e">
        <field name="dns.resp.name" showname="Name: &lt;Root&gt;" size="1" pos="185" show="&lt;Root&gt;" value="00"/>
        <field name="dns.resp.type" showname="Type: NS (authoritative Name Server) (2)" size="2" pos="186" show="2" value="0002"/>
        <field name="dns.resp.class" showname="Class: IN (0x0001)" size="2" pos="188" show="0x00000001" value="0001"/>
        <field name="dns.resp.ttl" showname="Time to live: 46350" size="4" pos="190" show="46350" value="0000b50e"/>
        <field name="dns.resp.len" showname="Data length: 4" size="2" pos="194" show="4" value="0004"/>
        <field name="dns.ns" showname="Name Server: c.root-servers.net" size="4" pos="196" show="c.root-servers.net" value="0163c01e"/>
      </field>
      <field name="" show="&lt;Root&gt;: type NS, class IN, ns b.root-servers.net" size="15" pos="200" value="00000200010000b50e00040162c01e">
        <field name="dns.resp.name" showname="Name: &lt;Root&gt;" size="1" pos="200" show="&lt;Root&gt;" value="00"/>
        <field name="dns.resp.type" showname="Type: NS (authoritative Name Server) (2)" size="2" pos="201" show="2" value="0002"/>
        <field name="dns.resp.class" showname="Class: IN (0x0001)" size="2" pos="203" show="0x00000001" value="0001"/>
        <field name="dns.resp.ttl" showname="Time to live: 46350" size="4" pos="205" show="46350" value="0000b50e"/>
        <field name="dns.resp.len" showname="Data length: 4" size="2" pos="209" show="4" value="0004"/>
        <field name="dns.ns" showname="Name Server: b.root-servers.net" size="4" pos="211" show="b.root-servers.net" value="0162c01e"/>
      </field>
      <field name="" show="&lt;Root&gt;: type NS, class IN, ns j.root-servers.net" size="15" pos="215" value="00000200010000b50e0004016ac01e">
        <field name="dns.resp.name" showname="Name: &lt;Root&gt;" size="1" pos="215" show="&lt;Root&gt;" value="00"/>
        <field name="dns.resp.type" showname="Type: NS (authoritative Name Server) (2)" size="2" pos="216" show="2" value="0002"/>
        <field name="dns.resp.class" showname="Class: IN (0x0001)" size="2" pos="218" show="0x00000001" value="0001"/>
        <field name="dns.resp.ttl" showname="Time to live: 46350" size="4" pos="220" show="46350" value="0000b50e"/>
        <field name="dns.resp.len" showname="Data length: 4" size="2" pos="224" show="4" value="0004"/>
        <field name="dns.ns" showname="Name Server: j.root-servers.net" size="4" pos="226" show="j.root-servers.net" value="016ac01e"/>
      </field>
      <field name="" show="&lt;Root&gt;: type NS, class IN, ns k.root-servers.net" size="15" pos="230" value="00000200010000b50e0004016bc01e">
        <field name="dns.resp.name" showname="Name: &lt;Root&gt;" size="1" pos="230" show="&lt;Root&gt;" value="00"/>
        <field name="dns.resp.type" showname="Type: NS (authoritative Name Server) (2)" size="2" pos="231" show="2" value="0002"/>
        <field name="dns.resp.class" showname="Class: IN (0x0001)" size="2" pos="233" show="0x00000001" value="0001"/>
        <field name="dns.resp.ttl" showname="Time to live: 46350" size="4" pos="235" show="46350" value="0000b50e"/>
        <field name="dns.resp.len" showname="Data length: 4" size="2" pos="239" show="4" value="0004"/>
        <field name="dns.ns" showname="Name Server: k.root-servers.net" size="4" pos="241" show="k.root-servers.net" value="016bc01e"/>
      </field>
      <field name="" show="&lt;Root&gt;: type NS, class IN, ns g.root-servers.net" size="15" pos="245" value="00000200010000b50e00040167c01e">
        <field name="dns.resp.name" showname="Name: &lt;Root&gt;" size="1" pos="245" show="&lt;Root&gt;" value="00"/>
        <field name="dns.resp.type" showname="Type: NS (authoritative Name Server) (2)" size="2" pos="246" show="2" value="0002"/>
        <field name="dns.resp.class" showname="Class: IN (0x0001)" size="2" pos="248" show="0x00000001" value="0001"/>
        <field name="dns.resp.ttl" showname="Time to live: 46350" size="4" pos="250" show="46350" value="0000b50e"/>
        <field name="dns.resp.len" showname="Data length: 4" size="2" pos="254" show="4" value="0004"/>
        <field name="dns.ns" showname="Name Server: g.root-servers.net" size="4" pos="256" show="g.root-servers.net" value="0167c01e"/>
      </field>
      <field name="" show="&lt;Root&gt;: type NS, class IN, ns m.root-servers.net" size="15" pos="260" value="00000200010000b50e0004016dc01e">
        <field name="dns.resp.name" showname="Name: &lt;Root&gt;" size="1" pos="260" show="&lt;Root&gt;" value="00"/>
        <field name="dns.resp.type" showname="Type: NS (authoritative Name Server) (2)" size="2" pos="261" show="2" value="0002"/>
        <field name="dns.resp.class" showname="Class: IN (0x0001)" size="2" pos="263" show="0x00000001" value="0001"/>
        <field name="dns.resp.ttl" showname="Time to live: 46350" size="4" pos="265" show="46350" value="0000b50e"/>
        <field name="dns.resp.len" showname="Data length: 4" size="2" pos="269" show="4" value="0004"/>
        <field name="dns.ns" showname="Name Server: m.root-servers.net" size="4" pos="271" show="m.root-servers.net" value="016dc01e"/>
      </field>
      <field name="" show="&lt;Root&gt;: type NS, class IN, ns f.root-servers.net" size="15" pos="275" value="00000200010000b50e00040166c01e">
        <field name="dns.resp.name" showname="Name: &lt;Root&gt;" size="1" pos="275" show="&lt;Root&gt;" value="00"/>
        <field name="dns.resp.type" showname="Type: NS (authoritative Name Server) (2)" size="2" pos="276" show="2" value="0002"/>
        <field name="dns.resp.class" showname="Class: IN (0x0001)" size="2" pos="278" show="0x00000001" value="0001"/>
        <field name="dns.resp.ttl" showname="Time to live: 46350" size="4" pos="280" show="46350" value="0000b50e"/>
        <field name="dns.resp.len" showname="Data length: 4" size="2" pos="284" show="4" value="0004"/>
        <field name="dns.ns" showname="Name Server: f.root-servers.net" size="4" pos="286" show="f.root-servers.net" value="0166c01e"/>
      </field>
    </field>
    <field name="dns.response_to" showname="Request In: 1" size="0" pos="62" show="1"/>
    <field name="dns.time" showname="Time: 0.005927000 seconds" size="0" pos="62" show="0.005927000"/>
  </proto>
</packet>


<packet>
  <proto name="geninfo" pos="0" showname="General information" size="84">
    <field name="num" pos="0" show="3" showname="Number" value="3" size="84"/>
    <field name="len" pos="0" show="84" showname="Frame Length" value="54" size="84"/>
    <field name="caplen" pos="0" show="84" showname="Captured Length" value="54" size="84"/>
    <field name="timestamp" pos="0" show="Sep  5, 2019 18:08:10.327050000 CEST" showname="Captured Time" value="1567699690.327050000" size="84"/>
  </proto>
  <proto name="frame" showname="Frame 3: 84 bytes on wire (672 bits), 84 bytes captured (672 bits)" size="84" pos="0">
    <field name="filtered" value="frame" />
  </proto>
  <proto name="eth" showname="Ethernet II, Src: 68:5b:35:ad:aa:e1, Dst: 00:1b:21:38:e9:78" size="14" pos="0">
    <field name="filtered" value="eth" />
  </proto>
  <proto name="ipv6" showname="Internet Protocol Version 6, Src: 2001:6a8:308f:2:f1f3:2f2f:397c:1cb5, Dst: 2001:7fd::1" size="40" pos="14">
    <field name="filtered" value="ipv6" />
  </proto>
  <proto name="udp" showname="User Datagram Protocol, Src Port: 64093, Dst Port: 53" size="8" pos="54">
    <field name="filtered" value="udp" />
  </proto>
  <proto name="dns" showname="Domain Name System (query)" size="22" pos="62">
    <field name="dns.id" showname="Transaction ID: 0xa560" size="2" pos="62" show="0x0000a560" value="a560"/>
    <field name="dns.flags" showname="Flags: 0x0120 Standard query" size="2" pos="64" show="0x00000120" value="0120">
      <field name="dns.flags.response" showname="0... .... .... .... = Response: Message is a query" size="2" pos="64" show="0" value="0" unmaskedvalue="0120"/>
      <field name="dns.flags.opcode" showname=".000 0... .... .... = Opcode: Standard query (0)" size="2" pos="64" show="0" value="0" unmaskedvalue="0120"/>
      <field name="dns.flags.truncated" showname=".... ..0. .... .... = Truncated: Message is not truncated" size="2" pos="64" show="0" value="0" unmaskedvalue="0120"/>
      <field name="dns.flags.recdesired" showname=".... ...1 .... .... = Recursion desired: Do query recursively" size="2" pos="64" show="1" value="1" unmaskedvalue="0120"/>
      <field name="dns.flags.z" showname=".... .... .0.. .... = Z: reserved (0)" size="2" pos="64" show="0" value="0" unmaskedvalue="0120"/>
      <field name="dns.flags.authenticated" showname=".... .... ..1. .... = AD bit: Set" size="2" pos="64" show="1" value="1" unmaskedvalue="0120"/>
      <field name="dns.flags.checkdisable" showname=".... .... ...0 .... = Non-authenticated data: Unacceptable" size="2" pos="64" show="0" value="0" unmaskedvalue="0120"/>
    </field>
    <field name="dns.count.queries" showname="Questions: 1" size="2" pos="66" show="1" value="0001"/>
    <field name="dns.count.answers" showname="Answer RRs: 0" size="2" pos="68" show="0" value="0000"/>
    <field name="dns.count.auth_rr" showname="Authority RRs: 0" size="2" pos="70" show="0" value="0000"/>
    <field name="dns.count.add_rr" showname="Additional RRs: 0" size="2" pos="72" show="0" value="0000"/>
    <field name="" show="Queries" size="10" pos="74" value="04696e666f0000020001">
      <field name="" show="info: type NS, class IN" size="10" pos="74" value="04696e666f0000020001">
        <field name="dns.qry.name" showname="Name: info" size="6" pos="74" show="info" value="04696e666f00"/>
        <field name="dns.qry.name.len" showname="Name Length: 4" size="4" pos="74" show="4" value="04696e66"/>
        <field name="dns.count.labels" showname="Label Count: 1" size="4" pos="74" show="1" value="04696e66"/>
        <field name="dns.qry.type" showname="Type: NS (authoritative Name Server) (2)" size="2" pos="80" show="2" value="0002"/>
        <field name="dns.qry.class" showname="Class: IN (0x0001)" size="2" pos="82" show="0x00000001" value="0001"/>
      </field>
    </field>
  </proto>
</packet>


<packet>
  <proto name="geninfo" pos="0" showname="General information" size="487">
    <field name="num" pos="0" show="4" showname="Number" value="4" size="487"/>
    <field name="len" pos="0" show="487" showname="Frame Length" value="1e7" size="487"/>
    <field name="caplen" pos="0" show="487" showname="Captured Length" value="1e7" size="487"/>
    <field name="timestamp" pos="0" show="Sep  5, 2019 18:08:10.337515000 CEST" showname="Captured Time" value="1567699690.337515000" size="487"/>
  </proto>
  <proto name="frame" showname="Frame 4: 487 bytes on wire (3896 bits), 487 bytes captured (3896 bits)" size="487" pos="0">
    <field name="filtered" value="frame" />
  </proto>
  <proto name="eth" showname="Ethernet II, Src: 00:1b:21:38:e9:78, Dst: 68:5b:35:ad:aa:e1" size="14" pos="0">
    <field name="filtered" value="eth" />
  </proto>
  <proto name="ipv6" showname="Internet Protocol Version 6, Src: 2001:7fd::1, Dst: 2001:6a8:308f:2:f1f3:2f2f:397c:1cb5" size="40" pos="14">
    <field name="filtered" value="ipv6" />
  </proto>
  <proto name="udp" showname="User Datagram Protocol, Src Port: 53, Dst Port: 64093" size="8" pos="54">
    <field name="filtered" value="udp" />
  </proto>
  <proto name="dns" showname="Domain Name System (response)" size="425" pos="62">
    <field name="dns.id" showname="Transaction ID: 0xa560" size="2" pos="62" show="0x0000a560" value="a560"/>
    <field name="dns.flags" showname="Flags: 0x8100 Standard query response, No error" size="2" pos="64" show="0x00008100" value="8100">
      <field name="dns.flags.response" showname="1... .... .... .... = Response: Message is a response" size="2" pos="64" show="1" value="1" unmaskedvalue="8100"/>
      <field name="dns.flags.opcode" showname=".000 0... .... .... = Opcode: Standard query (0)" size="2" pos="64" show="0" value="0" unmaskedvalue="8100"/>
      <field name="dns.flags.authoritative" showname=".... .0.. .... .... = Authoritative: Server is not an authority for domain" size="2" pos="64" show="0" value="0" unmaskedvalue="8100"/>
      <field name="dns.flags.truncated" showname=".... ..0. .... .... = Truncated: Message is not truncated" size="2" pos="64" show="0" value="0" unmaskedvalue="8100"/>
      <field name="dns.flags.recdesired" showname=".... ...1 .... .... = Recursion desired: Do query recursively" size="2" pos="64" show="1" value="1" unmaskedvalue="8100"/>
      <field name="dns.flags.recavail" showname=".... .... 0... .... = Recursion available: Server can&#x27;t do recursive queries" size="2" pos="64" show="0" value="0" unmaskedvalue="8100"/>
      <field name="dns.flags.z" showname=".... .... .0.. .... = Z: reserved (0)" size="2" pos="64" show="0" value="0" unmaskedvalue="8100"/>
      <field name="dns.flags.authenticated" showname=".... .... ..0. .... = Answer authenticated: Answer/authority portion was not authenticated by the server" size="2" pos="64" show="0" value="0" unmaskedvalue="8100"/>
      <field name="dns.flags.checkdisable" showname=".... .... ...0 .... = Non-authenticated data: Unacceptable" size="2" pos="64" show="0" value="0" unmaskedvalue="8100"/>
      <field name="dns.flags.rcode" showname=".... .... .... 0000 = Reply code: No error (0)" size="2" pos="64" show="0" value="0" unmaskedvalue="8100"/>
    </field>
    <field name="dns.count.queries" showname="Questions: 1" size="2" pos="66" show="1" value="0001"/>
    <field name="dns.count.answers" showname="Answer RRs: 0" size="2" pos="68" show="0" value="0000"/>
    <field name="dns.count.auth_rr" showname="Authority RRs: 6" size="2" pos="70" show="6" value="0006"/>
    <field name="dns.count.add_rr" showname="Additional RRs: 12" size="2" pos="72" show="12" value="000c"/>
    <field name="" show="Queries" size="10" pos="74" value="04696e666f0000020001">
      <field name="" show="info: type NS, class IN" size="10" pos="74" value="04696e666f0000020001">
        <field name="dns.qry.name" showname="Name: info" size="6" pos="74" show="info" value="04696e666f00"/>
        <field name="dns.qry.name.len" showname="Name Length: 4" size="4" pos="74" show="4" value="04696e66"/>
        <field name="dns.count.labels" showname="Label Count: 1" size="4" pos="74" show="1" value="04696e66"/>
        <field name="dns.qry.type" showname="Type: NS (authoritative Name Server) (2)" size="2" pos="80" show="2" value="0002"/>
        <field name="dns.qry.class" showname="Class: IN (0x0001)" size="2" pos="82" show="0x00000001" value="0001"/>
      </field>
    </field>
    <field name="" show="Authoritative nameservers" size="139" pos="84" value="c00c000200010002a300001602613004696e666f0b6166696c6961732d6e7374c00cc00c000200010002a3000005026132c025c00c000200010002a300001902623004696e666f0b6166696c6961732d6e7374036f726700c00c000200010002a3000005026232c058c00c000200010002a3000005026330c025c00c000200010002a3000005026430c058">
      <field name="" show="info: type NS, class IN, ns a0.info.afilias-nst.info" size="34" pos="84" value="c00c000200010002a300001602613004696e666f0b6166696c6961732d6e7374c00c">
        <field name="dns.resp.name" showname="Name: info" size="2" pos="84" show="info" value="c00c"/>
        <field name="dns.resp.type" showname="Type: NS (authoritative Name Server) (2)" size="2" pos="86" show="2" value="0002"/>
        <field name="dns.resp.class" showname="Class: IN (0x0001)" size="2" pos="88" show="0x00000001" value="0001"/>
        <field name="dns.resp.ttl" showname="Time to live: 172800" size="4" pos="90" show="172800" value="0002a300"/>
        <field name="dns.resp.len" showname="Data length: 22" size="2" pos="94" show="22" value="0016"/>
        <field name="dns.ns" showname="Name Server: a0.info.afilias-nst.info" size="22" pos="96" show="a0.info.afilias-nst.info" value="02613004696e666f0b6166696c6961732d6e7374c00c"/>
      </field>
      <field name="" show="info: type NS, class IN, ns a2.info.afilias-nst.info" size="17" pos="118" value="c00c000200010002a3000005026132c025">
        <field name="dns.resp.name" showname="Name: info" size="2" pos="118" show="info" value="c00c"/>
        <field name="dns.resp.type" showname="Type: NS (authoritative Name Server) (2)" size="2" pos="120" show="2" value="0002"/>
        <field name="dns.resp.class" showname="Class: IN (0x0001)" size="2" pos="122" show="0x00000001" value="0001"/>
        <field name="dns.resp.ttl" showname="Time to live: 172800" size="4" pos="124" show="172800" value="0002a300"/>
        <field name="dns.resp.len" showname="Data length: 5" size="2" pos="128" show="5" value="0005"/>
        <field name="dns.ns" showname="Name Server: a2.info.afilias-nst.info" size="5" pos="130" show="a2.info.afilias-nst.info" value="026132c025"/>
      </field>
      <field name="" show="info: type NS, class IN, ns b0.info.afilias-nst.org" size="37" pos="135" value="c00c000200010002a300001902623004696e666f0b6166696c6961732d6e7374036f726700">
        <field name="dns.resp.name" showname="Name: info" size="2" pos="135" show="info" value="c00c"/>
        <field name="dns.resp.type" showname="Type: NS (authoritative Name Server) (2)" size="2" pos="137" show="2" value="0002"/>
        <field name="dns.resp.class" showname="Class: IN (0x0001)" size="2" pos="139" show="0x00000001" value="0001"/>
        <field name="dns.resp.ttl" showname="Time to live: 172800" size="4" pos="141" show="172800" value="0002a300"/>
        <field name="dns.resp.len" showname="Data length: 25" size="2" pos="145" show="25" value="0019"/>
        <field name="dns.ns" showname="Name Server: b0.info.afilias-nst.org" size="25" pos="147" show="b0.info.afilias-nst.org" value="02623004696e666f0b6166696c6961732d6e7374036f726700"/>
      </field>
      <field name="" show="info: type NS, class IN, ns b2.info.afilias-nst.org" size="17" pos="172" value="c00c000200010002a3000005026232c058">
        <field name="dns.resp.name" showname="Name: info" size="2" pos="172" show="info" value="c00c"/>
        <field name="dns.resp.type" showname="Type: NS (authoritative Name Server) (2)" size="2" pos="174" show="2" value="0002"/>
        <field name="dns.resp.class" showname="Class: IN (0x0001)" size="2" pos="176" show="0x00000001" value="0001"/>
        <field name="dns.resp.ttl" showname="Time to live: 172800" size="4" pos="178" show="172800" value="0002a300"/>
        <field name="dns.resp.len" showname="Data length: 5" size="2" pos="182" show="5" value="0005"/>
        <field name="dns.ns" showname="Name Server: b2.info.afilias-nst.org" size="5" pos="184" show="b2.info.afilias-nst.org" value="026232c058"/>
      </field>
      <field name="" show="info: type NS, class IN, ns c0.info.afilias-nst.info" size="17" pos="189" value="c00c000200010002a3000005026330c025">
        <field name="dns.resp.name" showname="Name: info" size="2" pos="189" show="info" value="c00c"/>
        <field name="dns.resp.type" showname="Type: NS (authoritative Name Server) (2)" size="2" pos="191" show="2" value="0002"/>
        <field name="dns.resp.class" showname="Class: IN (0x0001)" size="2" pos="193" show="0x00000001" value="0001"/>
        <field name="dns.resp.ttl" showname="Time to live: 172800" size="4" pos="195" show="172800" value="0002a300"/>
        <field name="dns.resp.len" showname="Data length: 5" size="2" pos="199" show="5" value="0005"/>
        <field name="dns.ns" showname="Name Server: c0.info.afilias-nst.info" size="5" pos="201" show="c0.info.afilias-nst.info" value="026330c025"/>
      </field>
      <field name="" show="info: type NS, class IN, ns d0.info.afilias-nst.org" size="17" pos="206" value="c00c000200010002a3000005026430c058">
        <field name="dns.resp.name" showname="Name: info" size="2" pos="206" show="info" value="c00c"/>
        <field name="dns.resp.type" showname="Type: NS (authoritative Name Server) (2)" size="2" pos="208" show="2" value="0002"/>
        <field name="dns.resp.class" showname="Class: IN (0x0001)" size="2" pos="210" show="0x00000001" value="0001"/>
        <field name="dns.resp.ttl" showname="Time to live: 172800" size="4" pos="212" show="172800" value="0002a300"/>
        <field name="dns.resp.len" showname="Data length: 5" size="2" pos="216" show="5" value="0005"/>
        <field name="dns.ns" showname="Name Server: d0.info.afilias-nst.org" size="5" pos="218" show="d0.info.afilias-nst.org" value="026430c058"/>
      </field>
    </field>
    <field name="" show="Additional records" size="264" pos="223" value="c022001c00010002a300001020010500001900000000000000000001c044001c00010002a300001020010500004100000000000000000001c055001c00010002a300001020010500001a00000000000000000001c07a001c00010002a300001020010500004900000000000000000001c08b001c00010002a300001020010500001b00000000000000000001c09c001c00010002a300001020010500001c00000000000000000001c022000100010002a3000004c7fe1f01c044000100010002a3000004c7f97101c055000100010002a3000004c7fe3001c07a000100010002a3000004c7f97901c08b000100010002a3000004c7fe3101c09c000100010002a3000004c7fe3201">
      <field name="" show="a0.info.afilias-nst.info: type AAAA, class IN, addr 2001:500:19::1" size="28" pos="223" value="c022001c00010002a300001020010500001900000000000000000001">
        <field name="dns.resp.name" showname="Name: a0.info.afilias-nst.info" size="2" pos="223" show="a0.info.afilias-nst.info" value="c022"/>
        <field name="dns.resp.type" showname="Type: AAAA (IPv6 Address) (28)" size="2" pos="225" show="28" value="001c"/>
        <field name="dns.resp.class" showname="Class: IN (0x0001)" size="2" pos="227" show="0x00000001" value="0001"/>
        <field name="dns.resp.ttl" showname="Time to live: 172800" size="4" pos="229" show="172800" value="0002a300"/>
        <field name="dns.resp.len" showname="Data length: 16" size="2" pos="233" show="16" value="0010"/>
        <field name="dns.aaaa" showname="AAAA Address: 2001:500:19::1" size="16" pos="235" show="2001:500:19::1" value="20010500001900000000000000000001"/>
      </field>
      <field name="" show="a2.info.afilias-nst.info: type AAAA, class IN, addr 2001:500:41::1" size="28" pos="251" value="c044001c00010002a300001020010500004100000000000000000001">
        <field name="dns.resp.name" showname="Name: a2.info.afilias-nst.info" size="2" pos="251" show="a2.info.afilias-nst.info" value="c044"/>
        <field name="dns.resp.type" showname="Type: AAAA (IPv6 Address) (28)" size="2" pos="253" show="28" value="001c"/>
        <field name="dns.resp.class" showname="Class: IN (0x0001)" size="2" pos="255" show="0x00000001" value="0001"/>
        <field name="dns.resp.ttl" showname="Time to live: 172800" size="4" pos="257" show="172800" value="0002a300"/>
        <field name="dns.resp.len" showname="Data length: 16" size="2" pos="261" show="16" value="0010"/>
        <field name="dns.aaaa" showname="AAAA Address: 2001:500:41::1" size="16" pos="263" show="2001:500:41::1" value="20010500004100000000000000000001"/>
      </field>
      <field name="" show="b0.info.afilias-nst.org: type AAAA, class IN, addr 2001:500:1a::1" size="28" pos="279" value="c055001c00010002a300001020010500001a00000000000000000001">
        <field name="dns.resp.name" showname="Name: b0.info.afilias-nst.org" size="2" pos="279" show="b0.info.afilias-nst.org" value="c055"/>
        <field name="dns.resp.type" showname="Type: AAAA (IPv6 Address) (28)" size="2" pos="281" show="28" value="001c"/>
        <field name="dns.resp.class" showname="Class: IN (0x0001)" size="2" pos="283" show="0x00000001" value="0001"/>
        <field name="dns.resp.ttl" showname="Time to live: 172800" size="4" pos="285" show="172800" value="0002a300"/>
        <field name="dns.resp.len" showname="Data length: 16" size="2" pos="289" show="16" value="0010"/>
        <field name="dns.aaaa" showname="AAAA Address: 2001:500:1a::1" size="16" pos="291" show="2001:500:1a::1" value="20010500001a00000000000000000001"/>
      </field>
      <field name="" show="b2.info.afilias-nst.org: type AAAA, class IN, addr 2001:500:49::1" size="28" pos="307" value="c07a001c00010002a300001020010500004900000000000000000001">
        <field name="dns.resp.name" showname="Name: b2.info.afilias-nst.org" size="2" pos="307" show="b2.info.afilias-nst.org" value="c07a"/>
        <field name="dns.resp.type" showname="Type: AAAA (IPv6 Address) (28)" size="2" pos="309" show="28" value="001c"/>
        <field name="dns.resp.class" showname="Class: IN (0x0001)" size="2" pos="311" show="0x00000001" value="0001"/>
        <field name="dns.resp.ttl" showname="Time to live: 172800" size="4" pos="313" show="172800" value="0002a300"/>
        <field name="dns.resp.len" showname="Data length: 16" size="2" pos="317" show="16" value="0010"/>
        <field name="dns.aaaa" showname="AAAA Address: 2001:500:49::1" size="16" pos="319" show="2001:500:49::1" value="20010500004900000000000000000001"/>
      </field>
      <field name="" show="c0.info.afilias-nst.info: type AAAA, class IN, addr 2001:500:1b::1" size="28" pos="335" value="c08b001c00010002a300001020010500001b00000000000000000001">
        <field name="dns.resp.name" showname="Name: c0.info.afilias-nst.info" size="2" pos="335" show="c0.info.afilias-nst.info" value="c08b"/>
        <field name="dns.resp.type" showname="Type: AAAA (IPv6 Address) (28)" size="2" pos="337" show="28" value="001c"/>
        <field name="dns.resp.class" showname="Class: IN (0x0001)" size="2" pos="339" show="0x00000001" value="0001"/>
        <field name="dns.resp.ttl" showname="Time to live: 172800" size="4" pos="341" show="172800" value="0002a300"/>
        <field name="dns.resp.len" showname="Data length: 16" size="2" pos="345" show="16" value="0010"/>
        <field name="dns.aaaa" showname="AAAA Address: 2001:500:1b::1" size="16" pos="347" show="2001:500:1b::1" value="20010500001b00000000000000000001"/>
      </field>
      <field name="" show="d0.info.afilias-nst.org: type AAAA, class IN, addr 2001:500:1c::1" size="28" pos="363" value="c09c001c00010002a300001020010500001c00000000000000000001">
        <field name="dns.resp.name" showname="Name: d0.info.afilias-nst.org" size="2" pos="363" show="d0.info.afilias-nst.org" value="c09c"/>
        <field name="dns.resp.type" showname="Type: AAAA (IPv6 Address) (28)" size="2" pos="365" show="28" value="001c"/>
        <field name="dns.resp.class" showname="Class: IN (0x0001)" size="2" pos="367" show="0x00000001" value="0001"/>
        <field name="dns.resp.ttl" showname="Time to live: 172800" size="4" pos="369" show="172800" value="0002a300"/>
        <field name="dns.resp.len" showname="Data length: 16" size="2" pos="373" show="16" value="0010"/>
        <field name="dns.aaaa" showname="AAAA Address: 2001:500:1c::1" size="16" pos="375" show="2001:500:1c::1" value="20010500001c00000000000000000001"/>
      </field>
      <field name="" show="a0.info.afilias-nst.info: type A, class IN, addr 199.254.31.1" size="16" pos="391" value="c022000100010002a3000004c7fe1f01">
        <field name="dns.resp.name" showname="Name: a0.info.afilias-nst.info" size="2" pos="391" show="a0.info.afilias-nst.info" value="c022"/>
        <field name="dns.resp.type" showname="Type: A (Host Address) (1)" size="2" pos="393" show="1" value="0001"/>
        <field name="dns.resp.class" showname="Class: IN (0x0001)" size="2" pos="395" show="0x00000001" value="0001"/>
        <field name="dns.resp.ttl" showname="Time to live: 172800" size="4" pos="397" show="172800" value="0002a300"/>
        <field name="dns.resp.len" showname="Data length: 4" size="2" pos="401" show="4" value="0004"/>
        <field name="dns.a" showname="Address: 199.254.31.1" size="4" pos="403" show="199.254.31.1" value="c7fe1f01"/>
      </field>
      <field name="" show="a2.info.afilias-nst.info: type A, class IN, addr 199.249.113.1" size="16" pos="407" value="c044000100010002a3000004c7f97101">
        <field name="dns.resp.name" showname="Name: a2.info.afilias-nst.info" size="2" pos="407" show="a2.info.afilias-nst.info" value="c044"/>
        <field name="dns.resp.type" showname="Type: A (Host Address) (1)" size="2" pos="409" show="1" value="0001"/>
        <field name="dns.resp.class" showname="Class: IN (0x0001)" size="2" pos="411" show="0x00000001" value="0001"/>
        <field name="dns.resp.ttl" showname="Time to live: 172800" size="4" pos="413" show="172800" value="0002a300"/>
        <field name="dns.resp.len" showname="Data length: 4" size="2" pos="417" show="4" value="0004"/>
        <field name="dns.a" showname="Address: 199.249.113.1" size="4" pos="419" show="199.249.113.1" value="c7f97101"/>
      </field>
      <field name="" show="b0.info.afilias-nst.org: type A, class IN, addr 199.254.48.1" size="16" pos="423" value="c055000100010002a3000004c7fe3001">
        <field name="dns.resp.name" showname="Name: b0.info.afilias-nst.org" size="2" pos="423" show="b0.info.afilias-nst.org" value="c055"/>
        <field name="dns.resp.type" showname="Type: A (Host Address) (1)" size="2" pos="425" show="1" value="0001"/>
        <field name="dns.resp.class" showname="Class: IN (0x0001)" size="2" pos="427" show="0x00000001" value="0001"/>
        <field name="dns.resp.ttl" showname="Time to live: 172800" size="4" pos="429" show="172800" value="0002a300"/>
        <field name="dns.resp.len" showname="Data length: 4" size="2" pos="433" show="4" value="0004"/>
        <field name="dns.a" showname="Address: 199.254.48.1" size="4" pos="435" show="199.254.48.1" value="c7fe3001"/>
      </field>
      <field name="" show="b2.info.afilias-nst.org: type A, class IN, addr 199.249.121.1" size="16" pos="439" value="c07a000100010002a3000004c7f97901">
        <field name="dns.resp.name" showname="Name: b2.info.afilias-nst.org" size="2" pos="439" show="b2.info.afilias-nst.org" value="c07a"/>
        <field name="dns.resp.type" showname="Type: A (Host Address) (1)" size="2" pos="441" show="1" value="0001"/>
        <field name="dns.resp.class" showname="Class: IN (0x0001)" size="2" pos="443" show="0x00000001" value="0001"/>
        <field name="dns.resp.ttl" showname="Time to live: 172800" size="4" pos="445" show="172800" value="0002a300"/>
        <field name="dns.resp.len" showname="Data length: 4" size="2" pos="449" show="4" value="0004"/>
        <field name="dns.a" showname="Address: 199.249.121.1" size="4" pos="451" show="199.249.121.1" value="c7f97901"/>
      </field>
      <field name="" show="c0.info.afilias-nst.info: type A, class IN, addr 199.254.49.1" size="16" pos="455" value="c08b000100010002a3000004c7fe3101">
        <field name="dns.resp.name" showname="Name: c0.info.afilias-nst.info" size="2" pos="455" show="c0.info.afilias-nst.info" value="c08b"/>
        <field name="dns.resp.type" showname="Type: A (Host Address) (1)" size="2" pos="457" show="1" value="0001"/>
        <field name="dns.resp.class" showname="Class: IN (0x0001)" size="2" pos="459" show="0x00000001" value="0001"/>
        <field name="dns.resp.ttl" showname="Time to live: 172800" size="4" pos="461" show="172800" value="0002a300"/>
        <field name="dns.resp.len" showname="Data length: 4" size="2" pos="465" show="4" value="0004"/>
        <field name="dns.a" showname="Address: 199.254.49.1" size="4" pos="467" show="199.254.49.1" value="c7fe3101"/>
      </field>
      <field name="" show="d0.info.afilias-nst.org: type A, class IN, addr 199.254.50.1" size="16" pos="471" value="c09c000100010002a3000004c7fe3201">
        <field name="dns.resp.name" showname="Name: d0.info.afilias-nst.org" size="2" pos="471" show="d0.info.afilias-nst.org" value="c09c"/>
        <field name="dns.resp.type" showname="Type: A (Host Address) (1)" size="2" pos="473" show="1" value="0001"/>
        <field name="dns.resp.class" showname="Class: IN (0x0001)" size="2" pos="475" show="0x00000001" value="0001"/>
        <field name="dns.resp.ttl" showname="Time to live: 172800" size="4" pos="477" show="172800" value="0002a300"/>
        <field name="dns.resp.len" showname="Data length: 4" size="2" pos="481" show="4" value="0004"/>
        <field name="dns.a" showname="Address: 199.254.50.1" size="4" pos="483" show="199.254.50.1" value="c7fe3201"/>
      </field>
    </field>
    <field name="dns.response_to" showname="Request In: 3" size="0" pos="62" show="3"/>
    <field name="dns.time" showname="Time: 0.010465000 seconds" size="0" pos="62" show="0.010465000"/>
  </proto>
</packet>


<packet>
  <proto name="geninfo" pos="0" showname="General information" size="104">
    <field name="num" pos="0" show="5" showname="Number" value="5" size="104"/>
    <field name="len" pos="0" show="104" showname="Frame Length" value="68" size="104"/>
    <field name="caplen" pos="0" show="104" showname="Captured Length" value="68" size="104"/>
    <field name="timestamp" pos="0" show="Sep  5, 2019 18:08:10.399563000 CEST" showname="Captured Time" value="1567699690.399563000" size="104"/>
  </proto>
  <proto name="frame" showname="Frame 5: 104 bytes on wire (832 bits), 104 bytes captured (832 bits)" size="104" pos="0">
    <field name="filtered" value="frame" />
  </proto>
  <proto name="eth" showname="Ethernet II, Src: 68:5b:35:ad:aa:e1, Dst: 00:1b:21:38:e9:78" size="14" pos="0">
    <field name="filtered" value="eth" />
  </proto>
  <proto name="ipv6" showname="Internet Protocol Version 6, Src: 2001:6a8:308f:2:f1f3:2f2f:397c:1cb5, Dst: 2001:500:19::1" size="40" pos="14">
    <field name="filtered" value="ipv6" />
  </proto>
  <proto name="udp" showname="User Datagram Protocol, Src Port: 64095, Dst Port: 53" size="8" pos="54">
    <field name="filtered" value="udp" />
  </proto>
  <proto name="dns" showname="Domain Name System (query)" size="42" pos="62">
    <field name="dns.id" showname="Transaction ID: 0x2d56" size="2" pos="62" show="0x00002d56" value="2d56"/>
    <field name="dns.flags" showname="Flags: 0x0120 Standard query" size="2" pos="64" show="0x00000120" value="0120">
      <field name="dns.flags.response" showname="0... .... .... .... = Response: Message is a query" size="2" pos="64" show="0" value="0" unmaskedvalue="0120"/>
      <field name="dns.flags.opcode" showname=".000 0... .... .... = Opcode: Standard query (0)" size="2" pos="64" show="0" value="0" unmaskedvalue="0120"/>
      <field name="dns.flags.truncated" showname=".... ..0. .... .... = Truncated: Message is not truncated" size="2" pos="64" show="0" value="0" unmaskedvalue="0120"/>
      <field name="dns.flags.recdesired" showname=".... ...1 .... .... = Recursion desired: Do query recursively" size="2" pos="64" show="1" value="1" unmaskedvalue="0120"/>
      <field name="dns.flags.z" showname=".... .... .0.. .... = Z: reserved (0)" size="2" pos="64" show="0" value="0" unmaskedvalue="0120"/>
      <field name="dns.flags.authenticated" showname=".... .... ..1. .... = AD bit: Set" size="2" pos="64" show="1" value="1" unmaskedvalue="0120"/>
      <field name="dns.flags.checkdisable" showname=".... .... ...0 .... = Non-authenticated data: Unacceptable" size="2" pos="64" show="0" value="0" unmaskedvalue="0120"/>
    </field>
    <field name="dns.count.queries" showname="Questions: 1" size="2" pos="66" show="1" value="0001"/>
    <field name="dns.count.answers" showname="Answer RRs: 0" size="2" pos="68" show="0" value="0000"/>
    <field name="dns.count.auth_rr" showname="Authority RRs: 0" size="2" pos="70" show="0" value="0000"/>
    <field name="dns.count.add_rr" showname="Additional RRs: 0" size="2" pos="72" show="0" value="0000"/>
    <field name="" show="Queries" size="30" pos="74" value="13636f6d70757465722d6e6574776f726b696e6704696e666f0000020001">
      <field name="" show="computer-networking.info: type NS, class IN" size="30" pos="74" value="13636f6d70757465722d6e6574776f726b696e6704696e666f0000020001">
        <field name="dns.qry.name" showname="Name: computer-networking.info" size="26" pos="74" show="computer-networking.info" value="13636f6d70757465722d6e6574776f726b696e6704696e666f00"/>
        <field name="dns.qry.name.len" showname="Name Length: 24" size="24" pos="74" show="24" value="13636f6d70757465722d6e6574776f726b696e6704696e66"/>
        <field name="dns.count.labels" showname="Label Count: 2" size="24" pos="74" show="2" value="13636f6d70757465722d6e6574776f726b696e6704696e66"/>
        <field name="dns.qry.type" showname="Type: NS (authoritative Name Server) (2)" size="2" pos="100" show="2" value="0002"/>
        <field name="dns.qry.class" showname="Class: IN (0x0001)" size="2" pos="102" show="0x00000001" value="0001"/>
      </field>
    </field>
  </proto>
</packet>


<packet>
  <proto name="geninfo" pos="0" showname="General information" size="150">
    <field name="num" pos="0" show="6" showname="Number" value="6" size="150"/>
    <field name="len" pos="0" show="150" showname="Frame Length" value="96" size="150"/>
    <field name="caplen" pos="0" show="150" showname="Captured Length" value="96" size="150"/>
    <field name="timestamp" pos="0" show="Sep  5, 2019 18:08:10.637998000 CEST" showname="Captured Time" value="1567699690.637998000" size="150"/>
  </proto>
  <proto name="frame" showname="Frame 6: 150 bytes on wire (1200 bits), 150 bytes captured (1200 bits)" size="150" pos="0">
    <field name="filtered" value="frame" />
  </proto>
  <proto name="eth" showname="Ethernet II, Src: 00:1b:21:38:e9:78, Dst: 68:5b:35:ad:aa:e1" size="14" pos="0">
    <field name="filtered" value="eth" />
  </proto>
  <proto name="ipv6" showname="Internet Protocol Version 6, Src: 2001:500:19::1, Dst: 2001:6a8:308f:2:f1f3:2f2f:397c:1cb5" size="40" pos="14">
    <field name="filtered" value="ipv6" />
  </proto>
  <proto name="udp" showname="User Datagram Protocol, Src Port: 53, Dst Port: 64095" size="8" pos="54">
    <field name="filtered" value="udp" />
  </proto>
  <proto name="dns" showname="Domain Name System (response)" size="88" pos="62">
    <field name="dns.id" showname="Transaction ID: 0x2d56" size="2" pos="62" show="0x00002d56" value="2d56"/>
    <field name="dns.flags" showname="Flags: 0x8100 Standard query response, No error" size="2" pos="64" show="0x00008100" value="8100">
      <field name="dns.flags.response" showname="1... .... .... .... = Response: Message is a response" size="2" pos="64" show="1" value="1" unmaskedvalue="8100"/>
      <field name="dns.flags.opcode" showname=".000 0... .... .... = Opcode: Standard query (0)" size="2" pos="64" show="0" value="0" unmaskedvalue="8100"/>
      <field name="dns.flags.authoritative" showname=".... .0.. .... .... = Authoritative: Server is not an authority for domain" size="2" pos="64" show="0" value="0" unmaskedvalue="8100"/>
      <field name="dns.flags.truncated" showname=".... ..0. .... .... = Truncated: Message is not truncated" size="2" pos="64" show="0" value="0" unmaskedvalue="8100"/>
      <field name="dns.flags.recdesired" showname=".... ...1 .... .... = Recursion desired: Do query recursively" size="2" pos="64" show="1" value="1" unmaskedvalue="8100"/>
      <field name="dns.flags.recavail" showname=".... .... 0... .... = Recursion available: Server can&#x27;t do recursive queries" size="2" pos="64" show="0" value="0" unmaskedvalue="8100"/>
      <field name="dns.flags.z" showname=".... .... .0.. .... = Z: reserved (0)" size="2" pos="64" show="0" value="0" unmaskedvalue="8100"/>
      <field name="dns.flags.authenticated" showname=".... .... ..0. .... = Answer authenticated: Answer/authority portion was not authenticated by the server" size="2" pos="64" show="0" value="0" unmaskedvalue="8100"/>
      <field name="dns.flags.checkdisable" showname=".... .... ...0 .... = Non-authenticated data: Unacceptable" size="2" pos="64" show="0" value="0" unmaskedvalue="8100"/>
      <field name="dns.flags.rcode" showname=".... .... .... 0000 = Reply code: No error (0)" size="2" pos="64" show="0" value="0" unmaskedvalue="8100"/>
    </field>
    <field name="dns.count.queries" showname="Questions: 1" size="2" pos="66" show="1" value="0001"/>
    <field name="dns.count.answers" showname="Answer RRs: 0" size="2" pos="68" show="0" value="0000"/>
    <field name="dns.count.auth_rr" showname="Authority RRs: 2" size="2" pos="70" show="2" value="0002"/>
    <field name="dns.count.add_rr" showname="Additional RRs: 0" size="2" pos="72" show="0" value="0000"/>
    <field name="" show="Queries" size="30" pos="74" value="13636f6d70757465722d6e6574776f726b696e6704696e666f0000020001">
      <field name="" show="computer-networking.info: type NS, class IN" size="30" pos="74" value="13636f6d70757465722d6e6574776f726b696e6704696e666f0000020001">
        <field name="dns.qry.name" showname="Name: computer-networking.info" size="26" pos="74" show="computer-networking.info" value="13636f6d70757465722d6e6574776f726b696e6704696e666f00"/>
        <field name="dns.qry.name.len" showname="Name Length: 24" size="24" pos="74" show="24" value="13636f6d70757465722d6e6574776f726b696e6704696e66"/>
        <field name="dns.count.labels" showname="Label Count: 2" size="24" pos="74" show="2" value="13636f6d70757465722d6e6574776f726b696e6704696e66"/>
        <field name="dns.qry.type" showname="Type: NS (authoritative Name Server) (2)" size="2" pos="100" show="2" value="0002"/>
        <field name="dns.qry.class" showname="Class: IN (0x0001)" size="2" pos="102" show="0x00000001" value="0001"/>
      </field>
    </field>
    <field name="" show="Authoritative nameservers" size="46" pos="104" value="c00c0002000100015180000f05646e733230036f7668036e657400c00c00020001000151800007046e733230c03c">
      <field name="" show="computer-networking.info: type NS, class IN, ns dns20.ovh.net" size="27" pos="104" value="c00c0002000100015180000f05646e733230036f7668036e657400">
        <field name="dns.resp.name" showname="Name: computer-networking.info" size="2" pos="104" show="computer-networking.info" value="c00c"/>
        <field name="dns.resp.type" showname="Type: NS (authoritative Name Server) (2)" size="2" pos="106" show="2" value="0002"/>
        <field name="dns.resp.class" showname="Class: IN (0x0001)" size="2" pos="108" show="0x00000001" value="0001"/>
        <field name="dns.resp.ttl" showname="Time to live: 86400" size="4" pos="110" show="86400" value="00015180"/>
        <field name="dns.resp.len" showname="Data length: 15" size="2" pos="114" show="15" value="000f"/>
        <field name="dns.ns" showname="Name Server: dns20.ovh.net" size="15" pos="116" show="dns20.ovh.net" value="05646e733230036f7668036e657400"/>
      </field>
      <field name="" show="computer-networking.info: type NS, class IN, ns ns20.ovh.net" size="19" pos="131" value="c00c00020001000151800007046e733230c03c">
        <field name="dns.resp.name" showname="Name: computer-networking.info" size="2" pos="131" show="computer-networking.info" value="c00c"/>
        <field name="dns.resp.type" showname="Type: NS (authoritative Name Server) (2)" size="2" pos="133" show="2" value="0002"/>
        <field name="dns.resp.class" showname="Class: IN (0x0001)" size="2" pos="135" show="0x00000001" value="0001"/>
        <field name="dns.resp.ttl" showname="Time to live: 86400" size="4" pos="137" show="86400" value="00015180"/>
        <field name="dns.resp.len" showname="Data length: 7" size="2" pos="141" show="7" value="0007"/>
        <field name="dns.ns" showname="Name Server: ns20.ovh.net" size="7" pos="143" show="ns20.ovh.net" value="046e733230c03c"/>
      </field>
    </field>
    <field name="dns.response_to" showname="Request In: 5" size="0" pos="62" show="5"/>
    <field name="dns.time" showname="Time: 0.238435000 seconds" size="0" pos="62" show="0.238435000"/>
  </proto>
</packet>


<packet>
  <proto name="geninfo" pos="0" showname="General information" size="83">
    <field name="num" pos="0" show="7" showname="Number" value="7" size="83"/>
    <field name="len" pos="0" show="83" showname="Frame Length" value="53" size="83"/>
    <field name="caplen" pos="0" show="83" showname="Captured Length" value="53" size="83"/>
    <field name="timestamp" pos="0" show="Sep  5, 2019 18:08:10.657105000 CEST" showname="Captured Time" value="1567699690.657105000" size="83"/>
  </proto>
  <proto name="frame" showname="Frame 7: 83 bytes on wire (664 bits), 83 bytes captured (664 bits)" size="83" pos="0">
    <field name="filtered" value="frame" />
  </proto>
  <proto name="eth" showname="Ethernet II, Src: 68:5b:35:ad:aa:e1, Dst: 00:1b:21:38:e9:78" size="14" pos="0">
    <field name="filtered" value="eth" />
  </proto>
  <proto name="ipv6" showname="Internet Protocol Version 6, Src: 2001:6a8:308f:2:f1f3:2f2f:397c:1cb5, Dst: 2001:7fd::1" size="40" pos="14">
    <field name="filtered" value="ipv6" />
  </proto>
  <proto name="udp" showname="User Datagram Protocol, Src Port: 64097, Dst Port: 53" size="8" pos="54">
    <field name="filtered" value="udp" />
  </proto>
  <proto name="dns" showname="Domain Name System (query)" size="21" pos="62">
    <field name="dns.id" showname="Transaction ID: 0xc173" size="2" pos="62" show="0x0000c173" value="c173"/>
    <field name="dns.flags" showname="Flags: 0x0120 Standard query" size="2" pos="64" show="0x00000120" value="0120">
      <field name="dns.flags.response" showname="0... .... .... .... = Response: Message is a query" size="2" pos="64" show="0" value="0" unmaskedvalue="0120"/>
      <field name="dns.flags.opcode" showname=".000 0... .... .... = Opcode: Standard query (0)" size="2" pos="64" show="0" value="0" unmaskedvalue="0120"/>
      <field name="dns.flags.truncated" showname=".... ..0. .... .... = Truncated: Message is not truncated" size="2" pos="64" show="0" value="0" unmaskedvalue="0120"/>
      <field name="dns.flags.recdesired" showname=".... ...1 .... .... = Recursion desired: Do query recursively" size="2" pos="64" show="1" value="1" unmaskedvalue="0120"/>
      <field name="dns.flags.z" showname=".... .... .0.. .... = Z: reserved (0)" size="2" pos="64" show="0" value="0" unmaskedvalue="0120"/>
      <field name="dns.flags.authenticated" showname=".... .... ..1. .... = AD bit: Set" size="2" pos="64" show="1" value="1" unmaskedvalue="0120"/>
      <field name="dns.flags.checkdisable" showname=".... .... ...0 .... = Non-authenticated data: Unacceptable" size="2" pos="64" show="0" value="0" unmaskedvalue="0120"/>
    </field>
    <field name="dns.count.queries" showname="Questions: 1" size="2" pos="66" show="1" value="0001"/>
    <field name="dns.count.answers" showname="Answer RRs: 0" size="2" pos="68" show="0" value="0000"/>
    <field name="dns.count.auth_rr" showname="Authority RRs: 0" size="2" pos="70" show="0" value="0000"/>
    <field name="dns.count.add_rr" showname="Additional RRs: 0" size="2" pos="72" show="0" value="0000"/>
    <field name="" show="Queries" size="9" pos="74" value="036e65740000020001">
      <field name="" show="net: type NS, class IN" size="9" pos="74" value="036e65740000020001">
        <field name="dns.qry.name" showname="Name: net" size="5" pos="74" show="net" value="036e657400"/>
        <field name="dns.qry.name.len" showname="Name Length: 3" size="3" pos="74" show="3" value="036e65"/>
        <field name="dns.count.labels" showname="Label Count: 1" size="3" pos="74" show="1" value="036e65"/>
        <field name="dns.qry.type" showname="Type: NS (authoritative Name Server) (2)" size="2" pos="79" show="2" value="0002"/>
        <field name="dns.qry.class" showname="Class: IN (0x0001)" size="2" pos="81" show="0x00000001" value="0001"/>
      </field>
    </field>
  </proto>
</packet>


<packet>
  <proto name="geninfo" pos="0" showname="General information" size="568">
    <field name="num" pos="0" show="8" showname="Number" value="8" size="568"/>
    <field name="len" pos="0" show="568" showname="Frame Length" value="238" size="568"/>
    <field name="caplen" pos="0" show="568" showname="Captured Length" value="238" size="568"/>
    <field name="timestamp" pos="0" show="Sep  5, 2019 18:08:10.667967000 CEST" showname="Captured Time" value="1567699690.667967000" size="568"/>
  </proto>
  <proto name="frame" showname="Frame 8: 568 bytes on wire (4544 bits), 568 bytes captured (4544 bits)" size="568" pos="0">
    <field name="filtered" value="frame" />
  </proto>
  <proto name="eth" showname="Ethernet II, Src: 00:1b:21:38:e9:78, Dst: 68:5b:35:ad:aa:e1" size="14" pos="0">
    <field name="filtered" value="eth" />
  </proto>
  <proto name="ipv6" showname="Internet Protocol Version 6, Src: 2001:7fd::1, Dst: 2001:6a8:308f:2:f1f3:2f2f:397c:1cb5" size="40" pos="14">
    <field name="filtered" value="ipv6" />
  </proto>
  <proto name="udp" showname="User Datagram Protocol, Src Port: 53, Dst Port: 64097" size="8" pos="54">
    <field name="filtered" value="udp" />
  </proto>
  <proto name="dns" showname="Domain Name System (response)" size="506" pos="62">
    <field name="dns.id" showname="Transaction ID: 0xc173" size="2" pos="62" show="0x0000c173" value="c173"/>
    <field name="dns.flags" showname="Flags: 0x8300 Standard query response, No error" size="2" pos="64" show="0x00008300" value="8300">
      <field name="dns.flags.response" showname="1... .... .... .... = Response: Message is a response" size="2" pos="64" show="1" value="1" unmaskedvalue="8300"/>
      <field name="dns.flags.opcode" showname=".000 0... .... .... = Opcode: Standard query (0)" size="2" pos="64" show="0" value="0" unmaskedvalue="8300"/>
      <field name="dns.flags.authoritative" showname=".... .0.. .... .... = Authoritative: Server is not an authority for domain" size="2" pos="64" show="0" value="0" unmaskedvalue="8300"/>
      <field name="dns.flags.truncated" showname=".... ..1. .... .... = Truncated: Message is truncated" size="2" pos="64" show="1" value="1" unmaskedvalue="8300"/>
      <field name="dns.flags.recdesired" showname=".... ...1 .... .... = Recursion desired: Do query recursively" size="2" pos="64" show="1" value="1" unmaskedvalue="8300"/>
      <field name="dns.flags.recavail" showname=".... .... 0... .... = Recursion available: Server can&#x27;t do recursive queries" size="2" pos="64" show="0" value="0" unmaskedvalue="8300"/>
      <field name="dns.flags.z" showname=".... .... .0.. .... = Z: reserved (0)" size="2" pos="64" show="0" value="0" unmaskedvalue="8300"/>
      <field name="dns.flags.authenticated" showname=".... .... ..0. .... = Answer authenticated: Answer/authority portion was not authenticated by the server" size="2" pos="64" show="0" value="0" unmaskedvalue="8300"/>
      <field name="dns.flags.checkdisable" showname=".... .... ...0 .... = Non-authenticated data: Unacceptable" size="2" pos="64" show="0" value="0" unmaskedvalue="8300"/>
      <field name="dns.flags.rcode" showname=".... .... .... 0000 = Reply code: No error (0)" size="2" pos="64" show="0" value="0" unmaskedvalue="8300"/>
    </field>
    <field name="dns.count.queries" showname="Questions: 1" size="2" pos="66" show="1" value="0001"/>
    <field name="dns.count.answers" showname="Answer RRs: 0" size="2" pos="68" show="0" value="0000"/>
    <field name="dns.count.auth_rr" showname="Authority RRs: 13" size="2" pos="70" show="13" value="000d"/>
    <field name="dns.count.add_rr" showname="Additional RRs: 12" size="2" pos="72" show="12" value="000c"/>
    <field name="" show="Queries" size="9" pos="74" value="036e65740000020001">
      <field name="" show="net: type NS, class IN" size="9" pos="74" value="036e65740000020001">
        <field name="dns.qry.name" showname="Name: net" size="5" pos="74" show="net" value="036e657400"/>
        <field name="dns.qry.name.len" showname="Name Length: 3" size="3" pos="74" show="3" value="036e65"/>
        <field name="dns.count.labels" showname="Label Count: 1" size="3" pos="74" show="1" value="036e65"/>
        <field name="dns.qry.type" showname="Type: NS (authoritative Name Server) (2)" size="2" pos="79" show="2" value="0002"/>
        <field name="dns.qry.class" showname="Class: IN (0x0001)" size="2" pos="81" show="0x00000001" value="0001"/>
      </field>
    </field>
    <field name="" show="Authoritative nameservers" size="221" pos="83" value="c00c000200010002a300001101610c67746c642d73657276657273c00cc00c000200010002a30000040162c023c00c000200010002a30000040163c023c00c000200010002a30000040164c023c00c000200010002a30000040165c023c00c000200010002a30000040166c023c00c000200010002a30000040167c023c00c000200010002a30000040168c023c00c000200010002a30000040169c023c00c000200010002a3000004016ac023c00c000200010002a3000004016bc023c00c000200010002a3000004016cc023c00c000200010002a3000004016dc023">
      <field name="" show="net: type NS, class IN, ns a.gtld-servers.net" size="29" pos="83" value="c00c000200010002a300001101610c67746c642d73657276657273c00c">
        <field name="dns.resp.name" showname="Name: net" size="2" pos="83" show="net" value="c00c"/>
        <field name="dns.resp.type" showname="Type: NS (authoritative Name Server) (2)" size="2" pos="85" show="2" value="0002"/>
        <field name="dns.resp.class" showname="Class: IN (0x0001)" size="2" pos="87" show="0x00000001" value="0001"/>
        <field name="dns.resp.ttl" showname="Time to live: 172800" size="4" pos="89" show="172800" value="0002a300"/>
        <field name="dns.resp.len" showname="Data length: 17" size="2" pos="93" show="17" value="0011"/>
        <field name="dns.ns" showname="Name Server: a.gtld-servers.net" size="17" pos="95" show="a.gtld-servers.net" value="01610c67746c642d73657276657273c00c"/>
      </field>
      <field name="" show="net: type NS, class IN, ns b.gtld-servers.net" size="16" pos="112" value="c00c000200010002a30000040162c023">
        <field name="dns.resp.name" showname="Name: net" size="2" pos="112" show="net" value="c00c"/>
        <field name="dns.resp.type" showname="Type: NS (authoritative Name Server) (2)" size="2" pos="114" show="2" value="0002"/>
        <field name="dns.resp.class" showname="Class: IN (0x0001)" size="2" pos="116" show="0x00000001" value="0001"/>
        <field name="dns.resp.ttl" showname="Time to live: 172800" size="4" pos="118" show="172800" value="0002a300"/>
        <field name="dns.resp.len" showname="Data length: 4" size="2" pos="122" show="4" value="0004"/>
        <field name="dns.ns" showname="Name Server: b.gtld-servers.net" size="4" pos="124" show="b.gtld-servers.net" value="0162c023"/>
      </field>
      <field name="" show="net: type NS, class IN, ns c.gtld-servers.net" size="16" pos="128" value="c00c000200010002a30000040163c023">
        <field name="dns.resp.name" showname="Name: net" size="2" pos="128" show="net" value="c00c"/>
        <field name="dns.resp.type" showname="Type: NS (authoritative Name Server) (2)" size="2" pos="130" show="2" value="0002"/>
        <field name="dns.resp.class" showname="Class: IN (0x0001)" size="2" pos="132" show="0x00000001" value="0001"/>
        <field name="dns.resp.ttl" showname="Time to live: 172800" size="4" pos="134" show="172800" value="0002a300"/>
        <field name="dns.resp.len" showname="Data length: 4" size="2" pos="138" show="4" value="0004"/>
        <field name="dns.ns" showname="Name Server: c.gtld-servers.net" size="4" pos="140" show="c.gtld-servers.net" value="0163c023"/>
      </field>
      <field name="" show="net: type NS, class IN, ns d.gtld-servers.net" size="16" pos="144" value="c00c000200010002a30000040164c023">
        <field name="dns.resp.name" showname="Name: net" size="2" pos="144" show="net" value="c00c"/>
        <field name="dns.resp.type" showname="Type: NS (authoritative Name Server) (2)" size="2" pos="146" show="2" value="0002"/>
        <field name="dns.resp.class" showname="Class: IN (0x0001)" size="2" pos="148" show="0x00000001" value="0001"/>
        <field name="dns.resp.ttl" showname="Time to live: 172800" size="4" pos="150" show="172800" value="0002a300"/>
        <field name="dns.resp.len" showname="Data length: 4" size="2" pos="154" show="4" value="0004"/>
        <field name="dns.ns" showname="Name Server: d.gtld-servers.net" size="4" pos="156" show="d.gtld-servers.net" value="0164c023"/>
      </field>
      <field name="" show="net: type NS, class IN, ns e.gtld-servers.net" size="16" pos="160" value="c00c000200010002a30000040165c023">
        <field name="dns.resp.name" showname="Name: net" size="2" pos="160" show="net" value="c00c"/>
        <field name="dns.resp.type" showname="Type: NS (authoritative Name Server) (2)" size="2" pos="162" show="2" value="0002"/>
        <field name="dns.resp.class" showname="Class: IN (0x0001)" size="2" pos="164" show="0x00000001" value="0001"/>
        <field name="dns.resp.ttl" showname="Time to live: 172800" size="4" pos="166" show="172800" value="0002a300"/>
        <field name="dns.resp.len" showname="Data length: 4" size="2" pos="170" show="4" value="0004"/>
        <field name="dns.ns" showname="Name Server: e.gtld-servers.net" size="4" pos="172" show="e.gtld-servers.net" value="0165c023"/>
      </field>
      <field name="" show="net: type NS, class IN, ns f.gtld-servers.net" size="16" pos="176" value="c00c000200010002a30000040166c023">
        <field name="dns.resp.name" showname="Name: net" size="2" pos="176" show="net" value="c00c"/>
        <field name="dns.resp.type" showname="Type: NS (authoritative Name Server) (2)" size="2" pos="178" show="2" value="0002"/>
        <field name="dns.resp.class" showname="Class: IN (0x0001)" size="2" pos="180" show="0x00000001" value="0001"/>
        <field name="dns.resp.ttl" showname="Time to live: 172800" size="4" pos="182" show="172800" value="0002a300"/>
        <field name="dns.resp.len" showname="Data length: 4" size="2" pos="186" show="4" value="0004"/>
        <field name="dns.ns" showname="Name Server: f.gtld-servers.net" size="4" pos="188" show="f.gtld-servers.net" value="0166c023"/>
      </field>
      <field name="" show="net: type NS, class IN, ns g.gtld-servers.net" size="16" pos="192" value="c00c000200010002a30000040167c023">
        <field name="dns.resp.name" showname="Name: net" size="2" pos="192" show="net" value="c00c"/>
        <field name="dns.resp.type" showname="Type: NS (authoritative Name Server) (2)" size="2" pos="194" show="2" value="0002"/>
        <field name="dns.resp.class" showname="Class: IN (0x0001)" size="2" pos="196" show="0x00000001" value="0001"/>
        <field name="dns.resp.ttl" showname="Time to live: 172800" size="4" pos="198" show="172800" value="0002a300"/>
        <field name="dns.resp.len" showname="Data length: 4" size="2" pos="202" show="4" value="0004"/>
        <field name="dns.ns" showname="Name Server: g.gtld-servers.net" size="4" pos="204" show="g.gtld-servers.net" value="0167c023"/>
      </field>
      <field name="" show="net: type NS, class IN, ns h.gtld-servers.net" size="16" pos="208" value="c00c000200010002a30000040168c023">
        <field name="dns.resp.name" showname="Name: net" size="2" pos="208" show="net" value="c00c"/>
        <field name="dns.resp.type" showname="Type: NS (authoritative Name Server) (2)" size="2" pos="210" show="2" value="0002"/>
        <field name="dns.resp.class" showname="Class: IN (0x0001)" size="2" pos="212" show="0x00000001" value="0001"/>
        <field name="dns.resp.ttl" showname="Time to live: 172800" size="4" pos="214" show="172800" value="0002a300"/>
        <field name="dns.resp.len" showname="Data length: 4" size="2" pos="218" show="4" value="0004"/>
        <field name="dns.ns" showname="Name Server: h.gtld-servers.net" size="4" pos="220" show="h.gtld-servers.net" value="0168c023"/>
      </field>
      <field name="" show="net: type NS, class IN, ns i.gtld-servers.net" size="16" pos="224" value="c00c000200010002a30000040169c023">
        <field name="dns.resp.name" showname="Name: net" size="2" pos="224" show="net" value="c00c"/>
        <field name="dns.resp.type" showname="Type: NS (authoritative Name Server) (2)" size="2" pos="226" show="2" value="0002"/>
        <field name="dns.resp.class" showname="Class: IN (0x0001)" size="2" pos="228" show="0x00000001" value="0001"/>
        <field name="dns.resp.ttl" showname="Time to live: 172800" size="4" pos="230" show="172800" value="0002a300"/>
        <field name="dns.resp.len" showname="Data length: 4" size="2" pos="234" show="4" value="0004"/>
        <field name="dns.ns" showname="Name Server: i.gtld-servers.net" size="4" pos="236" show="i.gtld-servers.net" value="0169c023"/>
      </field>
      <field name="" show="net: type NS, class IN, ns j.gtld-servers.net" size="16" pos="240" value="c00c000200010002a3000004016ac023">
        <field name="dns.resp.name" showname="Name: net" size="2" pos="240" show="net" value="c00c"/>
        <field name="dns.resp.type" showname="Type: NS (authoritative Name Server) (2)" size="2" pos="242" show="2" value="0002"/>
        <field name="dns.resp.class" showname="Class: IN (0x0001)" size="2" pos="244" show="0x00000001" value="0001"/>
        <field name="dns.resp.ttl" showname="Time to live: 172800" size="4" pos="246" show="172800" value="0002a300"/>
        <field name="dns.resp.len" showname="Data length: 4" size="2" pos="250" show="4" value="0004"/>
        <field name="dns.ns" showname="Name Server: j.gtld-servers.net" size="4" pos="252" show="j.gtld-servers.net" value="016ac023"/>
      </field>
      <field name="" show="net: type NS, class IN, ns k.gtld-servers.net" size="16" pos="256" value="c00c000200010002a3000004016bc023">
        <field name="dns.resp.name" showname="Name: net" size="2" pos="256" show="net" value="c00c"/>
        <field name="dns.resp.type" showname="Type: NS (authoritative Name Server) (2)" size="2" pos="258" show="2" value="0002"/>
        <field name="dns.resp.class" showname="Class: IN (0x0001)" size="2" pos="260" show="0x00000001" value="0001"/>
        <field name="dns.resp.ttl" showname="Time to live: 172800" size="4" pos="262" show="172800" value="0002a300"/>
        <field name="dns.resp.len" showname="Data length: 4" size="2" pos="266" show="4" value="0004"/>
        <field name="dns.ns" showname="Name Server: k.gtld-servers.net" size="4" pos="268" show="k.gtld-servers.net" value="016bc023"/>
      </field>
      <field name="" show="net: type NS, class IN, ns l.gtld-servers.net" size="16" pos="272" value="c00c000200010002a3000004016cc023">
        <field name="dns.resp.name" showname="Name: net" size="2" pos="272" show="net" value="c00c"/>
        <field name="dns.resp.type" showname="Type: NS (authoritative Name Server) (2)" size="2" pos="274" show="2" value="0002"/>
        <field name="dns.resp.class" showname="Class: IN (0x0001)" size="2" pos="276" show="0x00000001" value="0001"/>
        <field name="dns.resp.ttl" showname="Time to live: 172800" size="4" pos="278" show="172800" value="0002a300"/>
        <field name="dns.resp.len" showname="Data length: 4" size="2" pos="282" show="4" value="0004"/>
        <field name="dns.ns" showname="Name Server: l.gtld-servers.net" size="4" pos="284" show="l.gtld-servers.net" value="016cc023"/>
      </field>
      <field name="" show="net: type NS, class IN, ns m.gtld-servers.net" size="16" pos="288" value="c00c000200010002a3000004016dc023">
        <field name="dns.resp.name" showname="Name: net" size="2" pos="288" show="net" value="c00c"/>
        <field name="dns.resp.type" showname="Type: NS (authoritative Name Server) (2)" size="2" pos="290" show="2" value="0002"/>
        <field name="dns.resp.class" showname="Class: IN (0x0001)" size="2" pos="292" show="0x00000001" value="0001"/>
        <field name="dns.resp.ttl" showname="Time to live: 172800" size="4" pos="294" show="172800" value="0002a300"/>
        <field name="dns.resp.len" showname="Data length: 4" size="2" pos="298" show="4" value="0004"/>
        <field name="dns.ns" showname="Name Server: m.gtld-servers.net" size="4" pos="300" show="m.gtld-servers.net" value="016dc023"/>
      </field>
    </field>
    <field name="" show="Additional records" size="264" pos="304" value="c021000100010002a3000004c005061ec021001c00010002a300001020010503a83e00000000000000020030c03e000100010002a3000004c0210e1ec03e001c00010002a300001020010503231d00000000000000020030c04e000100010002a3000004c01a5c1ec04e001c00010002a30000102001050383eb00000000000000000030c05e000100010002a3000004c01f501ec05e001c00010002a300001020010500856e00000000000000000030c06e000100010002a3000004c00c5e1ec06e001c00010002a3000010200105021ca100000000000000000030c07e000100010002a3000004c023331ec07e001c00010002a300001020010503d41400000000000000000030">
      <field name="" show="a.gtld-servers.net: type A, class IN, addr 192.5.6.30" size="16" pos="304" value="c021000100010002a3000004c005061e">
        <field name="dns.resp.name" showname="Name: a.gtld-servers.net" size="2" pos="304" show="a.gtld-servers.net" value="c021"/>
        <field name="dns.resp.type" showname="Type: A (Host Address) (1)" size="2" pos="306" show="1" value="0001"/>
        <field name="dns.resp.class" showname="Class: IN (0x0001)" size="2" pos="308" show="0x00000001" value="0001"/>
        <field name="dns.resp.ttl" showname="Time to live: 172800" size="4" pos="310" show="172800" value="0002a300"/>
        <field name="dns.resp.len" showname="Data length: 4" size="2" pos="314" show="4" value="0004"/>
        <field name="dns.a" showname="Address: 192.5.6.30" size="4" pos="316" show="192.5.6.30" value="c005061e"/>
      </field>
      <field name="" show="a.gtld-servers.net: type AAAA, class IN, addr 2001:503:a83e::2:30" size="28" pos="320" value="c021001c00010002a300001020010503a83e00000000000000020030">
        <field name="dns.resp.name" showname="Name: a.gtld-servers.net" size="2" pos="320" show="a.gtld-servers.net" value="c021"/>
        <field name="dns.resp.type" showname="Type: AAAA (IPv6 Address) (28)" size="2" pos="322" show="28" value="001c"/>
        <field name="dns.resp.class" showname="Class: IN (0x0001)" size="2" pos="324" show="0x00000001" value="0001"/>
        <field name="dns.resp.ttl" showname="Time to live: 172800" size="4" pos="326" show="172800" value="0002a300"/>
        <field name="dns.resp.len" showname="Data length: 16" size="2" pos="330" show="16" value="0010"/>
        <field name="dns.aaaa" showname="AAAA Address: 2001:503:a83e::2:30" size="16" pos="332" show="2001:503:a83e::2:30" value="20010503a83e00000000000000020030"/>
      </field>
      <field name="" show="b.gtld-servers.net: type A, class IN, addr 192.33.14.30" size="16" pos="348" value="c03e000100010002a3000004c0210e1e">
        <field name="dns.resp.name" showname="Name: b.gtld-servers.net" size="2" pos="348" show="b.gtld-servers.net" value="c03e"/>
        <field name="dns.resp.type" showname="Type: A (Host Address) (1)" size="2" pos="350" show="1" value="0001"/>
        <field name="dns.resp.class" showname="Class: IN (0x0001)" size="2" pos="352" show="0x00000001" value="0001"/>
        <field name="dns.resp.ttl" showname="Time to live: 172800" size="4" pos="354" show="172800" value="0002a300"/>
        <field name="dns.resp.len" showname="Data length: 4" size="2" pos="358" show="4" value="0004"/>
        <field name="dns.a" showname="Address: 192.33.14.30" size="4" pos="360" show="192.33.14.30" value="c0210e1e"/>
      </field>
      <field name="" show="b.gtld-servers.net: type AAAA, class IN, addr 2001:503:231d::2:30" size="28" pos="364" value="c03e001c00010002a300001020010503231d00000000000000020030">
        <field name="dns.resp.name" showname="Name: b.gtld-servers.net" size="2" pos="364" show="b.gtld-servers.net" value="c03e"/>
        <field name="dns.resp.type" showname="Type: AAAA (IPv6 Address) (28)" size="2" pos="366" show="28" value="001c"/>
        <field name="dns.resp.class" showname="Class: IN (0x0001)" size="2" pos="368" show="0x00000001" value="0001"/>
        <field name="dns.resp.ttl" showname="Time to live: 172800" size="4" pos="370" show="172800" value="0002a300"/>
        <field name="dns.resp.len" showname="Data length: 16" size="2" pos="374" show="16" value="0010"/>
        <field name="dns.aaaa" showname="AAAA Address: 2001:503:231d::2:30" size="16" pos="376" show="2001:503:231d::2:30" value="20010503231d00000000000000020030"/>
      </field>
      <field name="" show="c.gtld-servers.net: type A, class IN, addr 192.26.92.30" size="16" pos="392" value="c04e000100010002a3000004c01a5c1e">
        <field name="dns.resp.name" showname="Name: c.gtld-servers.net" size="2" pos="392" show="c.gtld-servers.net" value="c04e"/>
        <field name="dns.resp.type" showname="Type: A (Host Address) (1)" size="2" pos="394" show="1" value="0001"/>
        <field name="dns.resp.class" showname="Class: IN (0x0001)" size="2" pos="396" show="0x00000001" value="0001"/>
        <field name="dns.resp.ttl" showname="Time to live: 172800" size="4" pos="398" show="172800" value="0002a300"/>
        <field name="dns.resp.len" showname="Data length: 4" size="2" pos="402" show="4" value="0004"/>
        <field name="dns.a" showname="Address: 192.26.92.30" size="4" pos="404" show="192.26.92.30" value="c01a5c1e"/>
      </field>
      <field name="" show="c.gtld-servers.net: type AAAA, class IN, addr 2001:503:83eb::30" size="28" pos="408" value="c04e001c00010002a30000102001050383eb00000000000000000030">
        <field name="dns.resp.name" showname="Name: c.gtld-servers.net" size="2" pos="408" show="c.gtld-servers.net" value="c04e"/>
        <field name="dns.resp.type" showname="Type: AAAA (IPv6 Address) (28)" size="2" pos="410" show="28" value="001c"/>
        <field name="dns.resp.class" showname="Class: IN (0x0001)" size="2" pos="412" show="0x00000001" value="0001"/>
        <field name="dns.resp.ttl" showname="Time to live: 172800" size="4" pos="414" show="172800" value="0002a300"/>
        <field name="dns.resp.len" showname="Data length: 16" size="2" pos="418" show="16" value="0010"/>
        <field name="dns.aaaa" showname="AAAA Address: 2001:503:83eb::30" size="16" pos="420" show="2001:503:83eb::30" value="2001050383eb00000000000000000030"/>
      </field>
      <field name="" show="d.gtld-servers.net: type A, class IN, addr 192.31.80.30" size="16" pos="436" value="c05e000100010002a3000004c01f501e">
        <field name="dns.resp.name" showname="Name: d.gtld-servers.net" size="2" pos="436" show="d.gtld-servers.net" value="c05e"/>
        <field name="dns.resp.type" showname="Type: A (Host Address) (1)" size="2" pos="438" show="1" value="0001"/>
        <field name="dns.resp.class" showname="Class: IN (0x0001)" size="2" pos="440" show="0x00000001" value="0001"/>
        <field name="dns.resp.ttl" showname="Time to live: 172800" size="4" pos="442" show="172800" value="0002a300"/>
        <field name="dns.resp.len" showname="Data length: 4" size="2" pos="446" show="4" value="0004"/>
        <field name="dns.a" showname="Address: 192.31.80.30" size="4" pos="448" show="192.31.80.30" value="c01f501e"/>
      </field>
      <field name="" show="d.gtld-servers.net: type AAAA, class IN, addr 2001:500:856e::30" size="28" pos="452" value="c05e001c00010002a300001020010500856e00000000000000000030">
        <field name="dns.resp.name" showname="Name: d.gtld-servers.net" size="2" pos="452" show="d.gtld-servers.net" value="c05e"/>
        <field name="dns.resp.type" showname="Type: AAAA (IPv6 Address) (28)" size="2" pos="454" show="28" value="001c"/>
        <field name="dns.resp.class" showname="Class: IN (0x0001)" size="2" pos="456" show="0x00000001" value="0001"/>
        <field name="dns.resp.ttl" showname="Time to live: 172800" size="4" pos="458" show="172800" value="0002a300"/>
        <field name="dns.resp.len" showname="Data length: 16" size="2" pos="462" show="16" value="0010"/>
        <field name="dns.aaaa" showname="AAAA Address: 2001:500:856e::30" size="16" pos="464" show="2001:500:856e::30" value="20010500856e00000000000000000030"/>
      </field>
      <field name="" show="e.gtld-servers.net: type A, class IN, addr 192.12.94.30" size="16" pos="480" value="c06e000100010002a3000004c00c5e1e">
        <field name="dns.resp.name" showname="Name: e.gtld-servers.net" size="2" pos="480" show="e.gtld-servers.net" value="c06e"/>
        <field name="dns.resp.type" showname="Type: A (Host Address) (1)" size="2" pos="482" show="1" value="0001"/>
        <field name="dns.resp.class" showname="Class: IN (0x0001)" size="2" pos="484" show="0x00000001" value="0001"/>
        <field name="dns.resp.ttl" showname="Time to live: 172800" size="4" pos="486" show="172800" value="0002a300"/>
        <field name="dns.resp.len" showname="Data length: 4" size="2" pos="490" show="4" value="0004"/>
        <field name="dns.a" showname="Address: 192.12.94.30" size="4" pos="492" show="192.12.94.30" value="c00c5e1e"/>
      </field>
      <field name="" show="e.gtld-servers.net: type AAAA, class IN, addr 2001:502:1ca1::30" size="28" pos="496" value="c06e001c00010002a3000010200105021ca100000000000000000030">
        <field name="dns.resp.name" showname="Name: e.gtld-servers.net" size="2" pos="496" show="e.gtld-servers.net" value="c06e"/>
        <field name="dns.resp.type" showname="Type: AAAA (IPv6 Address) (28)" size="2" pos="498" show="28" value="001c"/>
        <field name="dns.resp.class" showname="Class: IN (0x0001)" size="2" pos="500" show="0x00000001" value="0001"/>
        <field name="dns.resp.ttl" showname="Time to live: 172800" size="4" pos="502" show="172800" value="0002a300"/>
        <field name="dns.resp.len" showname="Data length: 16" size="2" pos="506" show="16" value="0010"/>
        <field name="dns.aaaa" showname="AAAA Address: 2001:502:1ca1::30" size="16" pos="508" show="2001:502:1ca1::30" value="200105021ca100000000000000000030"/>
      </field>
      <field name="" show="f.gtld-servers.net: type A, class IN, addr 192.35.51.30" size="16" pos="524" value="c07e000100010002a3000004c023331e">
        <field name="dns.resp.name" showname="Name: f.gtld-servers.net" size="2" pos="524" show="f.gtld-servers.net" value="c07e"/>
        <field name="dns.resp.type" showname="Type: A (Host Address) (1)" size="2" pos="526" show="1" value="0001"/>
        <field name="dns.resp.class" showname="Class: IN (0x0001)" size="2" pos="528" show="0x00000001" value="0001"/>
        <field name="dns.resp.ttl" showname="Time to live: 172800" size="4" pos="530" show="172800" value="0002a300"/>
        <field name="dns.resp.len" showname="Data length: 4" size="2" pos="534" show="4" value="0004"/>
        <field name="dns.a" showname="Address: 192.35.51.30" size="4" pos="536" show="192.35.51.30" value="c023331e"/>
      </field>
      <field name="" show="f.gtld-servers.net: type AAAA, class IN, addr 2001:503:d414::30" size="28" pos="540" value="c07e001c00010002a300001020010503d41400000000000000000030">
        <field name="dns.resp.name" showname="Name: f.gtld-servers.net" size="2" pos="540" show="f.gtld-servers.net" value="c07e"/>
        <field name="dns.resp.type" showname="Type: AAAA (IPv6 Address) (28)" size="2" pos="542" show="28" value="001c"/>
        <field name="dns.resp.class" showname="Class: IN (0x0001)" size="2" pos="544" show="0x00000001" value="0001"/>
        <field name="dns.resp.ttl" showname="Time to live: 172800" size="4" pos="546" show="172800" value="0002a300"/>
        <field name="dns.resp.len" showname="Data length: 16" size="2" pos="550" show="16" value="0010"/>
        <field name="dns.aaaa" showname="AAAA Address: 2001:503:d414::30" size="16" pos="552" show="2001:503:d414::30" value="20010503d41400000000000000000030"/>
      </field>
    </field>
    <field name="dns.response_to" showname="Request In: 7" size="0" pos="62" show="7"/>
    <field name="dns.time" showname="Time: 0.010862000 seconds" size="0" pos="62" show="0.010862000"/>
  </proto>
</packet>


<packet>
  <proto name="geninfo" pos="0" showname="General information" size="87">
    <field name="num" pos="0" show="9" showname="Number" value="9" size="87"/>
    <field name="len" pos="0" show="87" showname="Frame Length" value="57" size="87"/>
    <field name="caplen" pos="0" show="87" showname="Captured Length" value="57" size="87"/>
    <field name="timestamp" pos="0" show="Sep  5, 2019 18:08:10.747810000 CEST" showname="Captured Time" value="1567699690.747810000" size="87"/>
  </proto>
  <proto name="frame" showname="Frame 9: 87 bytes on wire (696 bits), 87 bytes captured (696 bits)" size="87" pos="0">
    <field name="filtered" value="frame" />
  </proto>
  <proto name="eth" showname="Ethernet II, Src: 68:5b:35:ad:aa:e1, Dst: 00:1b:21:38:e9:78" size="14" pos="0">
    <field name="filtered" value="eth" />
  </proto>
  <proto name="ipv6" showname="Internet Protocol Version 6, Src: 2001:6a8:308f:2:f1f3:2f2f:397c:1cb5, Dst: 2001:503:a83e::2:30" size="40" pos="14">
    <field name="filtered" value="ipv6" />
  </proto>
  <proto name="udp" showname="User Datagram Protocol, Src Port: 64099, Dst Port: 53" size="8" pos="54">
    <field name="filtered" value="udp" />
  </proto>
  <proto name="dns" showname="Domain Name System (query)" size="25" pos="62">
    <field name="dns.id" showname="Transaction ID: 0x2900" size="2" pos="62" show="0x00002900" value="2900"/>
    <field name="dns.flags" showname="Flags: 0x0120 Standard query" size="2" pos="64" show="0x00000120" value="0120">
      <field name="dns.flags.response" showname="0... .... .... .... = Response: Message is a query" size="2" pos="64" show="0" value="0" unmaskedvalue="0120"/>
      <field name="dns.flags.opcode" showname=".000 0... .... .... = Opcode: Standard query (0)" size="2" pos="64" show="0" value="0" unmaskedvalue="0120"/>
      <field name="dns.flags.truncated" showname=".... ..0. .... .... = Truncated: Message is not truncated" size="2" pos="64" show="0" value="0" unmaskedvalue="0120"/>
      <field name="dns.flags.recdesired" showname=".... ...1 .... .... = Recursion desired: Do query recursively" size="2" pos="64" show="1" value="1" unmaskedvalue="0120"/>
      <field name="dns.flags.z" showname=".... .... .0.. .... = Z: reserved (0)" size="2" pos="64" show="0" value="0" unmaskedvalue="0120"/>
      <field name="dns.flags.authenticated" showname=".... .... ..1. .... = AD bit: Set" size="2" pos="64" show="1" value="1" unmaskedvalue="0120"/>
      <field name="dns.flags.checkdisable" showname=".... .... ...0 .... = Non-authenticated data: Unacceptable" size="2" pos="64" show="0" value="0" unmaskedvalue="0120"/>
    </field>
    <field name="dns.count.queries" showname="Questions: 1" size="2" pos="66" show="1" value="0001"/>
    <field name="dns.count.answers" showname="Answer RRs: 0" size="2" pos="68" show="0" value="0000"/>
    <field name="dns.count.auth_rr" showname="Authority RRs: 0" size="2" pos="70" show="0" value="0000"/>
    <field name="dns.count.add_rr" showname="Additional RRs: 0" size="2" pos="72" show="0" value="0000"/>
    <field name="" show="Queries" size="13" pos="74" value="036f7668036e65740000020001">
      <field name="" show="ovh.net: type NS, class IN" size="13" pos="74" value="036f7668036e65740000020001">
        <field name="dns.qry.name" showname="Name: ovh.net" size="9" pos="74" show="ovh.net" value="036f7668036e657400"/>
        <field name="dns.qry.name.len" showname="Name Length: 7" size="7" pos="74" show="7" value="036f7668036e65"/>
        <field name="dns.count.labels" showname="Label Count: 2" size="7" pos="74" show="2" value="036f7668036e65"/>
        <field name="dns.qry.type" showname="Type: NS (authoritative Name Server) (2)" size="2" pos="83" show="2" value="0002"/>
        <field name="dns.qry.class" showname="Class: IN (0x0001)" size="2" pos="85" show="0x00000001" value="0001"/>
      </field>
    </field>
  </proto>
</packet>


<packet>
  <proto name="geninfo" pos="0" showname="General information" size="574">
    <field name="num" pos="0" show="10" showname="Number" value="a" size="574"/>
    <field name="len" pos="0" show="574" showname="Frame Length" value="23e" size="574"/>
    <field name="caplen" pos="0" show="574" showname="Captured Length" value="23e" size="574"/>
    <field name="timestamp" pos="0" show="Sep  5, 2019 18:08:10.867688000 CEST" showname="Captured Time" value="1567699690.867688000" size="574"/>
  </proto>
  <proto name="frame" showname="Frame 10: 574 bytes on wire (4592 bits), 574 bytes captured (4592 bits)" size="574" pos="0">
    <field name="filtered" value="frame" />
  </proto>
  <proto name="eth" showname="Ethernet II, Src: 00:1b:21:38:e9:78, Dst: 68:5b:35:ad:aa:e1" size="14" pos="0">
    <field name="filtered" value="eth" />
  </proto>
  <proto name="ipv6" showname="Internet Protocol Version 6, Src: 2001:503:a83e::2:30, Dst: 2001:6a8:308f:2:f1f3:2f2f:397c:1cb5" size="40" pos="14">
    <field name="filtered" value="ipv6" />
  </proto>
  <proto name="udp" showname="User Datagram Protocol, Src Port: 53, Dst Port: 64099" size="8" pos="54">
    <field name="filtered" value="udp" />
  </proto>
  <proto name="dns" showname="Domain Name System (response)" size="512" pos="62">
    <field name="dns.id" showname="Transaction ID: 0x2900" size="2" pos="62" show="0x00002900" value="2900"/>
    <field name="dns.flags" showname="Flags: 0x8100 Standard query response, No error" size="2" pos="64" show="0x00008100" value="8100">
      <field name="dns.flags.response" showname="1... .... .... .... = Response: Message is a response" size="2" pos="64" show="1" value="1" unmaskedvalue="8100"/>
      <field name="dns.flags.opcode" showname=".000 0... .... .... = Opcode: Standard query (0)" size="2" pos="64" show="0" value="0" unmaskedvalue="8100"/>
      <field name="dns.flags.authoritative" showname=".... .0.. .... .... = Authoritative: Server is not an authority for domain" size="2" pos="64" show="0" value="0" unmaskedvalue="8100"/>
      <field name="dns.flags.truncated" showname=".... ..0. .... .... = Truncated: Message is not truncated" size="2" pos="64" show="0" value="0" unmaskedvalue="8100"/>
      <field name="dns.flags.recdesired" showname=".... ...1 .... .... = Recursion desired: Do query recursively" size="2" pos="64" show="1" value="1" unmaskedvalue="8100"/>
      <field name="dns.flags.recavail" showname=".... .... 0... .... = Recursion available: Server can&#x27;t do recursive queries" size="2" pos="64" show="0" value="0" unmaskedvalue="8100"/>
      <field name="dns.flags.z" showname=".... .... .0.. .... = Z: reserved (0)" size="2" pos="64" show="0" value="0" unmaskedvalue="8100"/>
      <field name="dns.flags.authenticated" showname=".... .... ..0. .... = Answer authenticated: Answer/authority portion was not authenticated by the server" size="2" pos="64" show="0" value="0" unmaskedvalue="8100"/>
      <field name="dns.flags.checkdisable" showname=".... .... ...0 .... = Non-authenticated data: Unacceptable" size="2" pos="64" show="0" value="0" unmaskedvalue="8100"/>
      <field name="dns.flags.rcode" showname=".... .... .... 0000 = Reply code: No error (0)" size="2" pos="64" show="0" value="0" unmaskedvalue="8100"/>
    </field>
    <field name="dns.count.queries" showname="Questions: 1" size="2" pos="66" show="1" value="0001"/>
    <field name="dns.count.answers" showname="Answer RRs: 0" size="2" pos="68" show="0" value="0000"/>
    <field name="dns.count.auth_rr" showname="Authority RRs: 10" size="2" pos="70" show="10" value="000a"/>
    <field name="dns.count.add_rr" showname="Additional RRs: 13" size="2" pos="72" show="13" value="000d"/>
    <field name="" show="Queries" size="13" pos="74" value="036f7668036e65740000020001">
      <field name="" show="ovh.net: type NS, class IN" size="13" pos="74" value="036f7668036e65740000020001">
        <field name="dns.qry.name" showname="Name: ovh.net" size="9" pos="74" show="ovh.net" value="036f7668036e657400"/>
        <field name="dns.qry.name.len" showname="Name Length: 7" size="7" pos="74" show="7" value="036f7668036e65"/>
        <field name="dns.count.labels" showname="Label Count: 2" size="7" pos="74" show="2" value="036f7668036e65"/>
        <field name="dns.qry.type" showname="Type: NS (authoritative Name Server) (2)" size="2" pos="83" show="2" value="0002"/>
        <field name="dns.qry.class" showname="Class: IN (0x0001)" size="2" pos="85" show="0x00000001" value="0001"/>
      </field>
    </field>
    <field name="" show="Authoritative nameservers" size="195" pos="87" value="c00c000200010002a3000007046e733130c00cc00c000200010002a300000805646e733135c00cc00c000200010002a300000805646e733130c00cc00c000200010002a300000805646e733131c00cc00c000200010002a3000007046e733131c00cc00c000200010002a300000805646e733132c00cc00c000200010002a3000007046e733132c00cc00c000200010002a3000007046e733135c00cc00c000200010002a3000007046e733133c00cc00c000200010002a300000805646e733133c00c">
      <field name="" show="ovh.net: type NS, class IN, ns ns10.ovh.net" size="19" pos="87" value="c00c000200010002a3000007046e733130c00c">
        <field name="dns.resp.name" showname="Name: ovh.net" size="2" pos="87" show="ovh.net" value="c00c"/>
        <field name="dns.resp.type" showname="Type: NS (authoritative Name Server) (2)" size="2" pos="89" show="2" value="0002"/>
        <field name="dns.resp.class" showname="Class: IN (0x0001)" size="2" pos="91" show="0x00000001" value="0001"/>
        <field name="dns.resp.ttl" showname="Time to live: 172800" size="4" pos="93" show="172800" value="0002a300"/>
        <field name="dns.resp.len" showname="Data length: 7" size="2" pos="97" show="7" value="0007"/>
        <field name="dns.ns" showname="Name Server: ns10.ovh.net" size="7" pos="99" show="ns10.ovh.net" value="046e733130c00c"/>
      </field>
      <field name="" show="ovh.net: type NS, class IN, ns dns15.ovh.net" size="20" pos="106" value="c00c000200010002a300000805646e733135c00c">
        <field name="dns.resp.name" showname="Name: ovh.net" size="2" pos="106" show="ovh.net" value="c00c"/>
        <field name="dns.resp.type" showname="Type: NS (authoritative Name Server) (2)" size="2" pos="108" show="2" value="0002"/>
        <field name="dns.resp.class" showname="Class: IN (0x0001)" size="2" pos="110" show="0x00000001" value="0001"/>
        <field name="dns.resp.ttl" showname="Time to live: 172800" size="4" pos="112" show="172800" value="0002a300"/>
        <field name="dns.resp.len" showname="Data length: 8" size="2" pos="116" show="8" value="0008"/>
        <field name="dns.ns" showname="Name Server: dns15.ovh.net" size="8" pos="118" show="dns15.ovh.net" value="05646e733135c00c"/>
      </field>
      <field name="" show="ovh.net: type NS, class IN, ns dns10.ovh.net" size="20" pos="126" value="c00c000200010002a300000805646e733130c00c">
        <field name="dns.resp.name" showname="Name: ovh.net" size="2" pos="126" show="ovh.net" value="c00c"/>
        <field name="dns.resp.type" showname="Type: NS (authoritative Name Server) (2)" size="2" pos="128" show="2" value="0002"/>
        <field name="dns.resp.class" showname="Class: IN (0x0001)" size="2" pos="130" show="0x00000001" value="0001"/>
        <field name="dns.resp.ttl" showname="Time to live: 172800" size="4" pos="132" show="172800" value="0002a300"/>
        <field name="dns.resp.len" showname="Data length: 8" size="2" pos="136" show="8" value="0008"/>
        <field name="dns.ns" showname="Name Server: dns10.ovh.net" size="8" pos="138" show="dns10.ovh.net" value="05646e733130c00c"/>
      </field>
      <field name="" show="ovh.net: type NS, class IN, ns dns11.ovh.net" size="20" pos="146" value="c00c000200010002a300000805646e733131c00c">
        <field name="dns.resp.name" showname="Name: ovh.net" size="2" pos="146" show="ovh.net" value="c00c"/>
        <field name="dns.resp.type" showname="Type: NS (authoritative Name Server) (2)" size="2" pos="148" show="2" value="0002"/>
        <field name="dns.resp.class" showname="Class: IN (0x0001)" size="2" pos="150" show="0x00000001" value="0001"/>
        <field name="dns.resp.ttl" showname="Time to live: 172800" size="4" pos="152" show="172800" value="0002a300"/>
        <field name="dns.resp.len" showname="Data length: 8" size="2" pos="156" show="8" value="0008"/>
        <field name="dns.ns" showname="Name Server: dns11.ovh.net" size="8" pos="158" show="dns11.ovh.net" value="05646e733131c00c"/>
      </field>
      <field name="" show="ovh.net: type NS, class IN, ns ns11.ovh.net" size="19" pos="166" value="c00c000200010002a3000007046e733131c00c">
        <field name="dns.resp.name" showname="Name: ovh.net" size="2" pos="166" show="ovh.net" value="c00c"/>
        <field name="dns.resp.type" showname="Type: NS (authoritative Name Server) (2)" size="2" pos="168" show="2" value="0002"/>
        <field name="dns.resp.class" showname="Class: IN (0x0001)" size="2" pos="170" show="0x00000001" value="0001"/>
        <field name="dns.resp.ttl" showname="Time to live: 172800" size="4" pos="172" show="172800" value="0002a300"/>
        <field name="dns.resp.len" showname="Data length: 7" size="2" pos="176" show="7" value="0007"/>
        <field name="dns.ns" showname="Name Server: ns11.ovh.net" size="7" pos="178" show="ns11.ovh.net" value="046e733131c00c"/>
      </field>
      <field name="" show="ovh.net: type NS, class IN, ns dns12.ovh.net" size="20" pos="185" value="c00c000200010002a300000805646e733132c00c">
        <field name="dns.resp.name" showname="Name: ovh.net" size="2" pos="185" show="ovh.net" value="c00c"/>
        <field name="dns.resp.type" showname="Type: NS (authoritative Name Server) (2)" size="2" pos="187" show="2" value="0002"/>
        <field name="dns.resp.class" showname="Class: IN (0x0001)" size="2" pos="189" show="0x00000001" value="0001"/>
        <field name="dns.resp.ttl" showname="Time to live: 172800" size="4" pos="191" show="172800" value="0002a300"/>
        <field name="dns.resp.len" showname="Data length: 8" size="2" pos="195" show="8" value="0008"/>
        <field name="dns.ns" showname="Name Server: dns12.ovh.net" size="8" pos="197" show="dns12.ovh.net" value="05646e733132c00c"/>
      </field>
      <field name="" show="ovh.net: type NS, class IN, ns ns12.ovh.net" size="19" pos="205" value="c00c000200010002a3000007046e733132c00c">
        <field name="dns.resp.name" showname="Name: ovh.net" size="2" pos="205" show="ovh.net" value="c00c"/>
        <field name="dns.resp.type" showname="Type: NS (authoritative Name Server) (2)" size="2" pos="207" show="2" value="0002"/>
        <field name="dns.resp.class" showname="Class: IN (0x0001)" size="2" pos="209" show="0x00000001" value="0001"/>
        <field name="dns.resp.ttl" showname="Time to live: 172800" size="4" pos="211" show="172800" value="0002a300"/>
        <field name="dns.resp.len" showname="Data length: 7" size="2" pos="215" show="7" value="0007"/>
        <field name="dns.ns" showname="Name Server: ns12.ovh.net" size="7" pos="217" show="ns12.ovh.net" value="046e733132c00c"/>
      </field>
      <field name="" show="ovh.net: type NS, class IN, ns ns15.ovh.net" size="19" pos="224" value="c00c000200010002a3000007046e733135c00c">
        <field name="dns.resp.name" showname="Name: ovh.net" size="2" pos="224" show="ovh.net" value="c00c"/>
        <field name="dns.resp.type" showname="Type: NS (authoritative Name Server) (2)" size="2" pos="226" show="2" value="0002"/>
        <field name="dns.resp.class" showname="Class: IN (0x0001)" size="2" pos="228" show="0x00000001" value="0001"/>
        <field name="dns.resp.ttl" showname="Time to live: 172800" size="4" pos="230" show="172800" value="0002a300"/>
        <field name="dns.resp.len" showname="Data length: 7" size="2" pos="234" show="7" value="0007"/>
        <field name="dns.ns" showname="Name Server: ns15.ovh.net" size="7" pos="236" show="ns15.ovh.net" value="046e733135c00c"/>
      </field>
      <field name="" show="ovh.net: type NS, class IN, ns ns13.ovh.net" size="19" pos="243" value="c00c000200010002a3000007046e733133c00c">
        <field name="dns.resp.name" showname="Name: ovh.net" size="2" pos="243" show="ovh.net" value="c00c"/>
        <field name="dns.resp.type" showname="Type: NS (authoritative Name Server) (2)" size="2" pos="245" show="2" value="0002"/>
        <field name="dns.resp.class" showname="Class: IN (0x0001)" size="2" pos="247" show="0x00000001" value="0001"/>
        <field name="dns.resp.ttl" showname="Time to live: 172800" size="4" pos="249" show="172800" value="0002a300"/>
        <field name="dns.resp.len" showname="Data length: 7" size="2" pos="253" show="7" value="0007"/>
        <field name="dns.ns" showname="Name Server: ns13.ovh.net" size="7" pos="255" show="ns13.ovh.net" value="046e733133c00c"/>
      </field>
      <field name="" show="ovh.net: type NS, class IN, ns dns13.ovh.net" size="20" pos="262" value="c00c000200010002a300000805646e733133c00c">
        <field name="dns.resp.name" showname="Name: ovh.net" size="2" pos="262" show="ovh.net" value="c00c"/>
        <field name="dns.resp.type" showname="Type: NS (authoritative Name Server) (2)" size="2" pos="264" show="2" value="0002"/>
        <field name="dns.resp.class" showname="Class: IN (0x0001)" size="2" pos="266" show="0x00000001" value="0001"/>
        <field name="dns.resp.ttl" showname="Time to live: 172800" size="4" pos="268" show="172800" value="0002a300"/>
        <field name="dns.resp.len" showname="Data length: 8" size="2" pos="272" show="8" value="0008"/>
        <field name="dns.ns" showname="Name Server: dns13.ovh.net" size="8" pos="274" show="dns13.ovh.net" value="05646e733133c00c"/>
      </field>
    </field>
    <field name="" show="Additional records" size="292" pos="282" value="c025001c00010002a3000010200141d0000119810000000000000001c025000100010002a3000004d5fb8081c038001c00010002a3000010200141d000014a860000000000000001c038000100010002a3000004d5fbbc86c04c001c00010002a3000010200141d000014a810000000000000001c04c000100010002a3000004d5fbbc81c060001c00010002a3000010200141d000014a820000000000000001c060000100010002a3000004d5fbbc82c074001c00010002a3000010200141d0000119820000000000000001c074000100010002a3000004d5fb8082c087001c00010002a3000010200141d000014a830000000000000001c087000100010002a3000004d5fbbc83c09b001c00010002a3000010200141d0000119830000000000000001">
      <field name="" show="ns10.ovh.net: type AAAA, class IN, addr 2001:41d0:1:1981::1" size="28" pos="282" value="c025001c00010002a3000010200141d0000119810000000000000001">
        <field name="dns.resp.name" showname="Name: ns10.ovh.net" size="2" pos="282" show="ns10.ovh.net" value="c025"/>
        <field name="dns.resp.type" showname="Type: AAAA (IPv6 Address) (28)" size="2" pos="284" show="28" value="001c"/>
        <field name="dns.resp.class" showname="Class: IN (0x0001)" size="2" pos="286" show="0x00000001" value="0001"/>
        <field name="dns.resp.ttl" showname="Time to live: 172800" size="4" pos="288" show="172800" value="0002a300"/>
        <field name="dns.resp.len" showname="Data length: 16" size="2" pos="292" show="16" value="0010"/>
        <field name="dns.aaaa" showname="AAAA Address: 2001:41d0:1:1981::1" size="16" pos="294" show="2001:41d0:1:1981::1" value="200141d0000119810000000000000001"/>
      </field>
      <field name="" show="ns10.ovh.net: type A, class IN, addr 213.251.128.129" size="16" pos="310" value="c025000100010002a3000004d5fb8081">
        <field name="dns.resp.name" showname="Name: ns10.ovh.net" size="2" pos="310" show="ns10.ovh.net" value="c025"/>
        <field name="dns.resp.type" showname="Type: A (Host Address) (1)" size="2" pos="312" show="1" value="0001"/>
        <field name="dns.resp.class" showname="Class: IN (0x0001)" size="2" pos="314" show="0x00000001" value="0001"/>
        <field name="dns.resp.ttl" showname="Time to live: 172800" size="4" pos="316" show="172800" value="0002a300"/>
        <field name="dns.resp.len" showname="Data length: 4" size="2" pos="320" show="4" value="0004"/>
        <field name="dns.a" showname="Address: 213.251.128.129" size="4" pos="322" show="213.251.128.129" value="d5fb8081"/>
      </field>
      <field name="" show="dns15.ovh.net: type AAAA, class IN, addr 2001:41d0:1:4a86::1" size="28" pos="326" value="c038001c00010002a3000010200141d000014a860000000000000001">
        <field name="dns.resp.name" showname="Name: dns15.ovh.net" size="2" pos="326" show="dns15.ovh.net" value="c038"/>
        <field name="dns.resp.type" showname="Type: AAAA (IPv6 Address) (28)" size="2" pos="328" show="28" value="001c"/>
        <field name="dns.resp.class" showname="Class: IN (0x0001)" size="2" pos="330" show="0x00000001" value="0001"/>
        <field name="dns.resp.ttl" showname="Time to live: 172800" size="4" pos="332" show="172800" value="0002a300"/>
        <field name="dns.resp.len" showname="Data length: 16" size="2" pos="336" show="16" value="0010"/>
        <field name="dns.aaaa" showname="AAAA Address: 2001:41d0:1:4a86::1" size="16" pos="338" show="2001:41d0:1:4a86::1" value="200141d000014a860000000000000001"/>
      </field>
      <field name="" show="dns15.ovh.net: type A, class IN, addr 213.251.188.134" size="16" pos="354" value="c038000100010002a3000004d5fbbc86">
        <field name="dns.resp.name" showname="Name: dns15.ovh.net" size="2" pos="354" show="dns15.ovh.net" value="c038"/>
        <field name="dns.resp.type" showname="Type: A (Host Address) (1)" size="2" pos="356" show="1" value="0001"/>
        <field name="dns.resp.class" showname="Class: IN (0x0001)" size="2" pos="358" show="0x00000001" value="0001"/>
        <field name="dns.resp.ttl" showname="Time to live: 172800" size="4" pos="360" show="172800" value="0002a300"/>
        <field name="dns.resp.len" showname="Data length: 4" size="2" pos="364" show="4" value="0004"/>
        <field name="dns.a" showname="Address: 213.251.188.134" size="4" pos="366" show="213.251.188.134" value="d5fbbc86"/>
      </field>
      <field name="" show="dns10.ovh.net: type AAAA, class IN, addr 2001:41d0:1:4a81::1" size="28" pos="370" value="c04c001c00010002a3000010200141d000014a810000000000000001">
        <field name="dns.resp.name" showname="Name: dns10.ovh.net" size="2" pos="370" show="dns10.ovh.net" value="c04c"/>
        <field name="dns.resp.type" showname="Type: AAAA (IPv6 Address) (28)" size="2" pos="372" show="28" value="001c"/>
        <field name="dns.resp.class" showname="Class: IN (0x0001)" size="2" pos="374" show="0x00000001" value="0001"/>
        <field name="dns.resp.ttl" showname="Time to live: 172800" size="4" pos="376" show="172800" value="0002a300"/>
        <field name="dns.resp.len" showname="Data length: 16" size="2" pos="380" show="16" value="0010"/>
        <field name="dns.aaaa" showname="AAAA Address: 2001:41d0:1:4a81::1" size="16" pos="382" show="2001:41d0:1:4a81::1" value="200141d000014a810000000000000001"/>
      </field>
      <field name="" show="dns10.ovh.net: type A, class IN, addr 213.251.188.129" size="16" pos="398" value="c04c000100010002a3000004d5fbbc81">
        <field name="dns.resp.name" showname="Name: dns10.ovh.net" size="2" pos="398" show="dns10.ovh.net" value="c04c"/>
        <field name="dns.resp.type" showname="Type: A (Host Address) (1)" size="2" pos="400" show="1" value="0001"/>
        <field name="dns.resp.class" showname="Class: IN (0x0001)" size="2" pos="402" show="0x00000001" value="0001"/>
        <field name="dns.resp.ttl" showname="Time to live: 172800" size="4" pos="404" show="172800" value="0002a300"/>
        <field name="dns.resp.len" showname="Data length: 4" size="2" pos="408" show="4" value="0004"/>
        <field name="dns.a" showname="Address: 213.251.188.129" size="4" pos="410" show="213.251.188.129" value="d5fbbc81"/>
      </field>
      <field name="" show="dns11.ovh.net: type AAAA, class IN, addr 2001:41d0:1:4a82::1" size="28" pos="414" value="c060001c00010002a3000010200141d000014a820000000000000001">
        <field name="dns.resp.name" showname="Name: dns11.ovh.net" size="2" pos="414" show="dns11.ovh.net" value="c060"/>
        <field name="dns.resp.type" showname="Type: AAAA (IPv6 Address) (28)" size="2" pos="416" show="28" value="001c"/>
        <field name="dns.resp.class" showname="Class: IN (0x0001)" size="2" pos="418" show="0x00000001" value="0001"/>
        <field name="dns.resp.ttl" showname="Time to live: 172800" size="4" pos="420" show="172800" value="0002a300"/>
        <field name="dns.resp.len" showname="Data length: 16" size="2" pos="424" show="16" value="0010"/>
        <field name="dns.aaaa" showname="AAAA Address: 2001:41d0:1:4a82::1" size="16" pos="426" show="2001:41d0:1:4a82::1" value="200141d000014a820000000000000001"/>
      </field>
      <field name="" show="dns11.ovh.net: type A, class IN, addr 213.251.188.130" size="16" pos="442" value="c060000100010002a3000004d5fbbc82">
        <field name="dns.resp.name" showname="Name: dns11.ovh.net" size="2" pos="442" show="dns11.ovh.net" value="c060"/>
        <field name="dns.resp.type" showname="Type: A (Host Address) (1)" size="2" pos="444" show="1" value="0001"/>
        <field name="dns.resp.class" showname="Class: IN (0x0001)" size="2" pos="446" show="0x00000001" value="0001"/>
        <field name="dns.resp.ttl" showname="Time to live: 172800" size="4" pos="448" show="172800" value="0002a300"/>
        <field name="dns.resp.len" showname="Data length: 4" size="2" pos="452" show="4" value="0004"/>
        <field name="dns.a" showname="Address: 213.251.188.130" size="4" pos="454" show="213.251.188.130" value="d5fbbc82"/>
      </field>
      <field name="" show="ns11.ovh.net: type AAAA, class IN, addr 2001:41d0:1:1982::1" size="28" pos="458" value="c074001c00010002a3000010200141d0000119820000000000000001">
        <field name="dns.resp.name" showname="Name: ns11.ovh.net" size="2" pos="458" show="ns11.ovh.net" value="c074"/>
        <field name="dns.resp.type" showname="Type: AAAA (IPv6 Address) (28)" size="2" pos="460" show="28" value="001c"/>
        <field name="dns.resp.class" showname="Class: IN (0x0001)" size="2" pos="462" show="0x00000001" value="0001"/>
        <field name="dns.resp.ttl" showname="Time to live: 172800" size="4" pos="464" show="172800" value="0002a300"/>
        <field name="dns.resp.len" showname="Data length: 16" size="2" pos="468" show="16" value="0010"/>
        <field name="dns.aaaa" showname="AAAA Address: 2001:41d0:1:1982::1" size="16" pos="470" show="2001:41d0:1:1982::1" value="200141d0000119820000000000000001"/>
      </field>
      <field name="" show="ns11.ovh.net: type A, class IN, addr 213.251.128.130" size="16" pos="486" value="c074000100010002a3000004d5fb8082">
        <field name="dns.resp.name" showname="Name: ns11.ovh.net" size="2" pos="486" show="ns11.ovh.net" value="c074"/>
        <field name="dns.resp.type" showname="Type: A (Host Address) (1)" size="2" pos="488" show="1" value="0001"/>
        <field name="dns.resp.class" showname="Class: IN (0x0001)" size="2" pos="490" show="0x00000001" value="0001"/>
        <field name="dns.resp.ttl" showname="Time to live: 172800" size="4" pos="492" show="172800" value="0002a300"/>
        <field name="dns.resp.len" showname="Data length: 4" size="2" pos="496" show="4" value="0004"/>
        <field name="dns.a" showname="Address: 213.251.128.130" size="4" pos="498" show="213.251.128.130" value="d5fb8082"/>
      </field>
      <field name="" show="dns12.ovh.net: type AAAA, class IN, addr 2001:41d0:1:4a83::1" size="28" pos="502" value="c087001c00010002a3000010200141d000014a830000000000000001">
        <field name="dns.resp.name" showname="Name: dns12.ovh.net" size="2" pos="502" show="dns12.ovh.net" value="c087"/>
        <field name="dns.resp.type" showname="Type: AAAA (IPv6 Address) (28)" size="2" pos="504" show="28" value="001c"/>
        <field name="dns.resp.class" showname="Class: IN (0x0001)" size="2" pos="506" show="0x00000001" value="0001"/>
        <field name="dns.resp.ttl" showname="Time to live: 172800" size="4" pos="508" show="172800" value="0002a300"/>
        <field name="dns.resp.len" showname="Data length: 16" size="2" pos="512" show="16" value="0010"/>
        <field name="dns.aaaa" showname="AAAA Address: 2001:41d0:1:4a83::1" size="16" pos="514" show="2001:41d0:1:4a83::1" value="200141d000014a830000000000000001"/>
      </field>
      <field name="" show="dns12.ovh.net: type A, class IN, addr 213.251.188.131" size="16" pos="530" value="c087000100010002a3000004d5fbbc83">
        <field name="dns.resp.name" showname="Name: dns12.ovh.net" size="2" pos="530" show="dns12.ovh.net" value="c087"/>
        <field name="dns.resp.type" showname="Type: A (Host Address) (1)" size="2" pos="532" show="1" value="0001"/>
        <field name="dns.resp.class" showname="Class: IN (0x0001)" size="2" pos="534" show="0x00000001" value="0001"/>
        <field name="dns.resp.ttl" showname="Time to live: 172800" size="4" pos="536" show="172800" value="0002a300"/>
        <field name="dns.resp.len" showname="Data length: 4" size="2" pos="540" show="4" value="0004"/>
        <field name="dns.a" showname="Address: 213.251.188.131" size="4" pos="542" show="213.251.188.131" value="d5fbbc83"/>
      </field>
      <field name="" show="ns12.ovh.net: type AAAA, class IN, addr 2001:41d0:1:1983::1" size="28" pos="546" value="c09b001c00010002a3000010200141d0000119830000000000000001">
        <field name="dns.resp.name" showname="Name: ns12.ovh.net" size="2" pos="546" show="ns12.ovh.net" value="c09b"/>
        <field name="dns.resp.type" showname="Type: AAAA (IPv6 Address) (28)" size="2" pos="548" show="28" value="001c"/>
        <field name="dns.resp.class" showname="Class: IN (0x0001)" size="2" pos="550" show="0x00000001" value="0001"/>
        <field name="dns.resp.ttl" showname="Time to live: 172800" size="4" pos="552" show="172800" value="0002a300"/>
        <field name="dns.resp.len" showname="Data length: 16" size="2" pos="556" show="16" value="0010"/>
        <field name="dns.aaaa" showname="AAAA Address: 2001:41d0:1:1983::1" size="16" pos="558" show="2001:41d0:1:1983::1" value="200141d0000119830000000000000001"/>
      </field>
    </field>
    <field name="dns.response_to" showname="Request In: 9" size="0" pos="62" show="9"/>
    <field name="dns.time" showname="Time: 0.119878000 seconds" size="0" pos="62" show="0.119878000"/>
  </proto>
</packet>


<packet>
  <proto name="geninfo" pos="0" showname="General information" size="93">
    <field name="num" pos="0" show="11" showname="Number" value="b" size="93"/>
    <field name="len" pos="0" show="93" showname="Frame Length" value="5d" size="93"/>
    <field name="caplen" pos="0" show="93" showname="Captured Length" value="5d" size="93"/>
    <field name="timestamp" pos="0" show="Sep  5, 2019 18:08:10.887758000 CEST" showname="Captured Time" value="1567699690.887758000" size="93"/>
  </proto>
  <proto name="frame" showname="Frame 11: 93 bytes on wire (744 bits), 93 bytes captured (744 bits)" size="93" pos="0">
    <field name="filtered" value="frame" />
  </proto>
  <proto name="eth" showname="Ethernet II, Src: 68:5b:35:ad:aa:e1, Dst: 00:1b:21:38:e9:78" size="14" pos="0">
    <field name="filtered" value="eth" />
  </proto>
  <proto name="ipv6" showname="Internet Protocol Version 6, Src: 2001:6a8:308f:2:f1f3:2f2f:397c:1cb5, Dst: 2001:41d0:1:1981::1" size="40" pos="14">
    <field name="filtered" value="ipv6" />
  </proto>
  <proto name="udp" showname="User Datagram Protocol, Src Port: 64101, Dst Port: 53" size="8" pos="54">
    <field name="filtered" value="udp" />
  </proto>
  <proto name="dns" showname="Domain Name System (query)" size="31" pos="62">
    <field name="dns.id" showname="Transaction ID: 0xdd1c" size="2" pos="62" show="0x0000dd1c" value="dd1c"/>
    <field name="dns.flags" showname="Flags: 0x0120 Standard query" size="2" pos="64" show="0x00000120" value="0120">
      <field name="dns.flags.response" showname="0... .... .... .... = Response: Message is a query" size="2" pos="64" show="0" value="0" unmaskedvalue="0120"/>
      <field name="dns.flags.opcode" showname=".000 0... .... .... = Opcode: Standard query (0)" size="2" pos="64" show="0" value="0" unmaskedvalue="0120"/>
      <field name="dns.flags.truncated" showname=".... ..0. .... .... = Truncated: Message is not truncated" size="2" pos="64" show="0" value="0" unmaskedvalue="0120"/>
      <field name="dns.flags.recdesired" showname=".... ...1 .... .... = Recursion desired: Do query recursively" size="2" pos="64" show="1" value="1" unmaskedvalue="0120"/>
      <field name="dns.flags.z" showname=".... .... .0.. .... = Z: reserved (0)" size="2" pos="64" show="0" value="0" unmaskedvalue="0120"/>
      <field name="dns.flags.authenticated" showname=".... .... ..1. .... = AD bit: Set" size="2" pos="64" show="1" value="1" unmaskedvalue="0120"/>
      <field name="dns.flags.checkdisable" showname=".... .... ...0 .... = Non-authenticated data: Unacceptable" size="2" pos="64" show="0" value="0" unmaskedvalue="0120"/>
    </field>
    <field name="dns.count.queries" showname="Questions: 1" size="2" pos="66" show="1" value="0001"/>
    <field name="dns.count.answers" showname="Answer RRs: 0" size="2" pos="68" show="0" value="0000"/>
    <field name="dns.count.auth_rr" showname="Authority RRs: 0" size="2" pos="70" show="0" value="0000"/>
    <field name="dns.count.add_rr" showname="Additional RRs: 0" size="2" pos="72" show="0" value="0000"/>
    <field name="" show="Queries" size="19" pos="74" value="05646e733230036f7668036e657400001c0001">
      <field name="" show="dns20.ovh.net: type AAAA, class IN" size="19" pos="74" value="05646e733230036f7668036e657400001c0001">
        <field name="dns.qry.name" showname="Name: dns20.ovh.net" size="15" pos="74" show="dns20.ovh.net" value="05646e733230036f7668036e657400"/>
        <field name="dns.qry.name.len" showname="Name Length: 13" size="13" pos="74" show="13" value="05646e733230036f7668036e65"/>
        <field name="dns.count.labels" showname="Label Count: 3" size="13" pos="74" show="3" value="05646e733230036f7668036e65"/>
        <field name="dns.qry.type" showname="Type: AAAA (IPv6 Address) (28)" size="2" pos="89" show="28" value="001c"/>
        <field name="dns.qry.class" showname="Class: IN (0x0001)" size="2" pos="91" show="0x00000001" value="0001"/>
      </field>
    </field>
  </proto>
</packet>


<packet>
  <proto name="geninfo" pos="0" showname="General information" size="121">
    <field name="num" pos="0" show="12" showname="Number" value="c" size="121"/>
    <field name="len" pos="0" show="121" showname="Frame Length" value="79" size="121"/>
    <field name="caplen" pos="0" show="121" showname="Captured Length" value="79" size="121"/>
    <field name="timestamp" pos="0" show="Sep  5, 2019 18:08:10.891781000 CEST" showname="Captured Time" value="1567699690.891781000" size="121"/>
  </proto>
  <proto name="frame" showname="Frame 12: 121 bytes on wire (968 bits), 121 bytes captured (968 bits)" size="121" pos="0">
    <field name="filtered" value="frame" />
  </proto>
  <proto name="eth" showname="Ethernet II, Src: 00:1b:21:38:e9:78, Dst: 68:5b:35:ad:aa:e1" size="14" pos="0">
    <field name="filtered" value="eth" />
  </proto>
  <proto name="ipv6" showname="Internet Protocol Version 6, Src: 2001:41d0:1:1981::1, Dst: 2001:6a8:308f:2:f1f3:2f2f:397c:1cb5" size="40" pos="14">
    <field name="filtered" value="ipv6" />
  </proto>
  <proto name="udp" showname="User Datagram Protocol, Src Port: 53, Dst Port: 64101" size="8" pos="54">
    <field name="filtered" value="udp" />
  </proto>
  <proto name="dns" showname="Domain Name System (response)" size="59" pos="62">
    <field name="dns.id" showname="Transaction ID: 0xdd1c" size="2" pos="62" show="0x0000dd1c" value="dd1c"/>
    <field name="dns.flags" showname="Flags: 0x8500 Standard query response, No error" size="2" pos="64" show="0x00008500" value="8500">
      <field name="dns.flags.response" showname="1... .... .... .... = Response: Message is a response" size="2" pos="64" show="1" value="1" unmaskedvalue="8500"/>
      <field name="dns.flags.opcode" showname=".000 0... .... .... = Opcode: Standard query (0)" size="2" pos="64" show="0" value="0" unmaskedvalue="8500"/>
      <field name="dns.flags.authoritative" showname=".... .1.. .... .... = Authoritative: Server is an authority for domain" size="2" pos="64" show="1" value="1" unmaskedvalue="8500"/>
      <field name="dns.flags.truncated" showname=".... ..0. .... .... = Truncated: Message is not truncated" size="2" pos="64" show="0" value="0" unmaskedvalue="8500"/>
      <field name="dns.flags.recdesired" showname=".... ...1 .... .... = Recursion desired: Do query recursively" size="2" pos="64" show="1" value="1" unmaskedvalue="8500"/>
      <field name="dns.flags.recavail" showname=".... .... 0... .... = Recursion available: Server can&#x27;t do recursive queries" size="2" pos="64" show="0" value="0" unmaskedvalue="8500"/>
      <field name="dns.flags.z" showname=".... .... .0.. .... = Z: reserved (0)" size="2" pos="64" show="0" value="0" unmaskedvalue="8500"/>
      <field name="dns.flags.authenticated" showname=".... .... ..0. .... = Answer authenticated: Answer/authority portion was not authenticated by the server" size="2" pos="64" show="0" value="0" unmaskedvalue="8500"/>
      <field name="dns.flags.checkdisable" showname=".... .... ...0 .... = Non-authenticated data: Unacceptable" size="2" pos="64" show="0" value="0" unmaskedvalue="8500"/>
      <field name="dns.flags.rcode" showname=".... .... .... 0000 = Reply code: No error (0)" size="2" pos="64" show="0" value="0" unmaskedvalue="8500"/>
    </field>
    <field name="dns.count.queries" showname="Questions: 1" size="2" pos="66" show="1" value="0001"/>
    <field name="dns.count.answers" showname="Answer RRs: 1" size="2" pos="68" show="1" value="0001"/>
    <field name="dns.count.auth_rr" showname="Authority RRs: 0" size="2" pos="70" show="0" value="0000"/>
    <field name="dns.count.add_rr" showname="Additional RRs: 0" size="2" pos="72" show="0" value="0000"/>
    <field name="" show="Queries" size="19" pos="74" value="05646e733230036f7668036e657400001c0001">
      <field name="" show="dns20.ovh.net: type AAAA, class IN" size="19" pos="74" value="05646e733230036f7668036e657400001c0001">
        <field name="dns.qry.name" showname="Name: dns20.ovh.net" size="15" pos="74" show="dns20.ovh.net" value="05646e733230036f7668036e657400"/>
        <field name="dns.qry.name.len" showname="Name Length: 13" size="13" pos="74" show="13" value="05646e733230036f7668036e65"/>
        <field name="dns.count.labels" showname="Label Count: 3" size="13" pos="74" show="3" value="05646e733230036f7668036e65"/>
        <field name="dns.qry.type" showname="Type: AAAA (IPv6 Address) (28)" size="2" pos="89" show="28" value="001c"/>
        <field name="dns.qry.class" showname="Class: IN (0x0001)" size="2" pos="91" show="0x00000001" value="0001"/>
      </field>
    </field>
    <field name="" show="Answers" size="28" pos="93" value="c00c001c000100000e100010200141d000014a8f0000000000000001">
      <field name="" show="dns20.ovh.net: type AAAA, class IN, addr 2001:41d0:1:4a8f::1" size="28" pos="93" value="c00c001c000100000e100010200141d000014a8f0000000000000001">
        <field name="dns.resp.name" showname="Name: dns20.ovh.net" size="2" pos="93" show="dns20.ovh.net" value="c00c"/>
        <field name="dns.resp.type" showname="Type: AAAA (IPv6 Address) (28)" size="2" pos="95" show="28" value="001c"/>
        <field name="dns.resp.class" showname="Class: IN (0x0001)" size="2" pos="97" show="0x00000001" value="0001"/>
        <field name="dns.resp.ttl" showname="Time to live: 3600" size="4" pos="99" show="3600" value="00000e10"/>
        <field name="dns.resp.len" showname="Data length: 16" size="2" pos="103" show="16" value="0010"/>
        <field name="dns.aaaa" showname="AAAA Address: 2001:41d0:1:4a8f::1" size="16" pos="105" show="2001:41d0:1:4a8f::1" value="200141d000014a8f0000000000000001"/>
      </field>
    </field>
    <field name="dns.response_to" showname="Request In: 11" size="0" pos="62" show="11"/>
    <field name="dns.time" showname="Time: 0.004023000 seconds" size="0" pos="62" show="0.004023000"/>
  </proto>
</packet>


<packet>
  <proto name="geninfo" pos="0" showname="General information" size="108">
    <field name="num" pos="0" show="13" showname="Number" value="d" size="108"/>
    <field name="len" pos="0" show="108" showname="Frame Length" value="6c" size="108"/>
    <field name="caplen" pos="0" show="108" showname="Captured Length" value="6c" size="108"/>
    <field name="timestamp" pos="0" show="Sep  5, 2019 18:08:10.954864000 CEST" showname="Captured Time" value="1567699690.954864000" size="108"/>
  </proto>
  <proto name="frame" showname="Frame 13: 108 bytes on wire (864 bits), 108 bytes captured (864 bits)" size="108" pos="0">
    <field name="filtered" value="frame" />
  </proto>
  <proto name="eth" showname="Ethernet II, Src: 68:5b:35:ad:aa:e1, Dst: 00:1b:21:38:e9:78" size="14" pos="0">
    <field name="filtered" value="eth" />
  </proto>
  <proto name="ipv6" showname="Internet Protocol Version 6, Src: 2001:6a8:308f:2:f1f3:2f2f:397c:1cb5, Dst: 2001:41d0:1:4a8f::1" size="40" pos="14">
    <field name="filtered" value="ipv6" />
  </proto>
  <proto name="udp" showname="User Datagram Protocol, Src Port: 64103, Dst Port: 53" size="8" pos="54">
    <field name="filtered" value="udp" />
  </proto>
  <proto name="dns" showname="Domain Name System (query)" size="46" pos="62">
    <field name="dns.id" showname="Transaction ID: 0x76ba" size="2" pos="62" show="0x000076ba" value="76ba"/>
    <field name="dns.flags" showname="Flags: 0x0120 Standard query" size="2" pos="64" show="0x00000120" value="0120">
      <field name="dns.flags.response" showname="0... .... .... .... = Response: Message is a query" size="2" pos="64" show="0" value="0" unmaskedvalue="0120"/>
      <field name="dns.flags.opcode" showname=".000 0... .... .... = Opcode: Standard query (0)" size="2" pos="64" show="0" value="0" unmaskedvalue="0120"/>
      <field name="dns.flags.truncated" showname=".... ..0. .... .... = Truncated: Message is not truncated" size="2" pos="64" show="0" value="0" unmaskedvalue="0120"/>
      <field name="dns.flags.recdesired" showname=".... ...1 .... .... = Recursion desired: Do query recursively" size="2" pos="64" show="1" value="1" unmaskedvalue="0120"/>
      <field name="dns.flags.z" showname=".... .... .0.. .... = Z: reserved (0)" size="2" pos="64" show="0" value="0" unmaskedvalue="0120"/>
      <field name="dns.flags.authenticated" showname=".... .... ..1. .... = AD bit: Set" size="2" pos="64" show="1" value="1" unmaskedvalue="0120"/>
      <field name="dns.flags.checkdisable" showname=".... .... ...0 .... = Non-authenticated data: Unacceptable" size="2" pos="64" show="0" value="0" unmaskedvalue="0120"/>
    </field>
    <field name="dns.count.queries" showname="Questions: 1" size="2" pos="66" show="1" value="0001"/>
    <field name="dns.count.answers" showname="Answer RRs: 0" size="2" pos="68" show="0" value="0000"/>
    <field name="dns.count.auth_rr" showname="Authority RRs: 0" size="2" pos="70" show="0" value="0000"/>
    <field name="dns.count.add_rr" showname="Additional RRs: 0" size="2" pos="72" show="0" value="0000"/>
    <field name="" show="Queries" size="34" pos="74" value="0377777713636f6d70757465722d6e6574776f726b696e6704696e666f00001c0001">
      <field name="" show="www.computer-networking.info: type AAAA, class IN" size="34" pos="74" value="0377777713636f6d70757465722d6e6574776f726b696e6704696e666f00001c0001">
        <field name="dns.qry.name" showname="Name: www.computer-networking.info" size="30" pos="74" show="www.computer-networking.info" value="0377777713636f6d70757465722d6e6574776f726b696e6704696e666f00"/>
        <field name="dns.qry.name.len" showname="Name Length: 28" size="28" pos="74" show="28" value="0377777713636f6d70757465722d6e6574776f726b696e6704696e66"/>
        <field name="dns.count.labels" showname="Label Count: 3" size="28" pos="74" show="3" value="0377777713636f6d70757465722d6e6574776f726b696e6704696e66"/>
        <field name="dns.qry.type" showname="Type: AAAA (IPv6 Address) (28)" size="2" pos="104" show="28" value="001c"/>
        <field name="dns.qry.class" showname="Class: IN (0x0001)" size="2" pos="106" show="0x00000001" value="0001"/>
      </field>
    </field>
  </proto>
</packet>


<packet>
  <proto name="geninfo" pos="0" showname="General information" size="145">
    <field name="num" pos="0" show="14" showname="Number" value="e" size="145"/>
    <field name="len" pos="0" show="145" showname="Frame Length" value="91" size="145"/>
    <field name="caplen" pos="0" show="145" showname="Captured Length" value="91" size="145"/>
    <field name="timestamp" pos="0" show="Sep  5, 2019 18:08:10.959838000 CEST" showname="Captured Time" value="1567699690.959838000" size="145"/>
  </proto>
  <proto name="frame" showname="Frame 14: 145 bytes on wire (1160 bits), 145 bytes captured (1160 bits)" size="145" pos="0">
    <field name="filtered" value="frame" />
  </proto>
  <proto name="eth" showname="Ethernet II, Src: 00:1b:21:38:e9:78, Dst: 68:5b:35:ad:aa:e1" size="14" pos="0">
    <field name="filtered" value="eth" />
  </proto>
  <proto name="ipv6" showname="Internet Protocol Version 6, Src: 2001:41d0:1:4a8f::1, Dst: 2001:6a8:308f:2:f1f3:2f2f:397c:1cb5" size="40" pos="14">
    <field name="filtered" value="ipv6" />
  </proto>
  <proto name="udp" showname="User Datagram Protocol, Src Port: 53, Dst Port: 64103" size="8" pos="54">
    <field name="filtered" value="udp" />
  </proto>
  <proto name="dns" showname="Domain Name System (response)" size="83" pos="62">
    <field name="dns.id" showname="Transaction ID: 0x76ba" size="2" pos="62" show="0x000076ba" value="76ba"/>
    <field name="dns.flags" showname="Flags: 0x8500 Standard query response, No error" size="2" pos="64" show="0x00008500" value="8500">
      <field name="dns.flags.response" showname="1... .... .... .... = Response: Message is a response" size="2" pos="64" show="1" value="1" unmaskedvalue="8500"/>
      <field name="dns.flags.opcode" showname=".000 0... .... .... = Opcode: Standard query (0)" size="2" pos="64" show="0" value="0" unmaskedvalue="8500"/>
      <field name="dns.flags.authoritative" showname=".... .1.. .... .... = Authoritative: Server is an authority for domain" size="2" pos="64" show="1" value="1" unmaskedvalue="8500"/>
      <field name="dns.flags.truncated" showname=".... ..0. .... .... = Truncated: Message is not truncated" size="2" pos="64" show="0" value="0" unmaskedvalue="8500"/>
      <field name="dns.flags.recdesired" showname=".... ...1 .... .... = Recursion desired: Do query recursively" size="2" pos="64" show="1" value="1" unmaskedvalue="8500"/>
      <field name="dns.flags.recavail" showname=".... .... 0... .... = Recursion available: Server can&#x27;t do recursive queries" size="2" pos="64" show="0" value="0" unmaskedvalue="8500"/>
      <field name="dns.flags.z" showname=".... .... .0.. .... = Z: reserved (0)" size="2" pos="64" show="0" value="0" unmaskedvalue="8500"/>
      <field name="dns.flags.authenticated" showname=".... .... ..0. .... = Answer authenticated: Answer/authority portion was not authenticated by the server" size="2" pos="64" show="0" value="0" unmaskedvalue="8500"/>
      <field name="dns.flags.checkdisable" showname=".... .... ...0 .... = Non-authenticated data: Unacceptable" size="2" pos="64" show="0" value="0" unmaskedvalue="8500"/>
      <field name="dns.flags.rcode" showname=".... .... .... 0000 = Reply code: No error (0)" size="2" pos="64" show="0" value="0" unmaskedvalue="8500"/>
    </field>
    <field name="dns.count.queries" showname="Questions: 1" size="2" pos="66" show="1" value="0001"/>
    <field name="dns.count.answers" showname="Answer RRs: 1" size="2" pos="68" show="1" value="0001"/>
    <field name="dns.count.auth_rr" showname="Authority RRs: 0" size="2" pos="70" show="0" value="0000"/>
    <field name="dns.count.add_rr" showname="Additional RRs: 0" size="2" pos="72" show="0" value="0000"/>
    <field name="" show="Queries" size="34" pos="74" value="0377777713636f6d70757465722d6e6574776f726b696e6704696e666f00001c0001">
      <field name="" show="www.computer-networking.info: type AAAA, class IN" size="34" pos="74" value="0377777713636f6d70757465722d6e6574776f726b696e6704696e666f00001c0001">
        <field name="dns.qry.name" showname="Name: www.computer-networking.info" size="30" pos="74" show="www.computer-networking.info" value="0377777713636f6d70757465722d6e6574776f726b696e6704696e666f00"/>
        <field name="dns.qry.name.len" showname="Name Length: 28" size="28" pos="74" show="28" value="0377777713636f6d70757465722d6e6574776f726b696e6704696e66"/>
        <field name="dns.count.labels" showname="Label Count: 3" size="28" pos="74" show="3" value="0377777713636f6d70757465722d6e6574776f726b696e6704696e66"/>
        <field name="dns.qry.type" showname="Type: AAAA (IPv6 Address) (28)" size="2" pos="104" show="28" value="001c"/>
        <field name="dns.qry.class" showname="Class: IN (0x0001)" size="2" pos="106" show="0x00000001" value="0001"/>
      </field>
    </field>
    <field name="" show="Answers" size="37" pos="108" value="c00c0005000100000e10001908636e7033626f6f6b04696e666f0375636c02616302626500">
      <field name="" show="www.computer-networking.info: type CNAME, class IN, cname cnp3book.info.ucl.ac.be" size="37" pos="108" value="c00c0005000100000e10001908636e7033626f6f6b04696e666f0375636c02616302626500">
        <field name="dns.resp.name" showname="Name: www.computer-networking.info" size="2" pos="108" show="www.computer-networking.info" value="c00c"/>
        <field name="dns.resp.type" showname="Type: CNAME (Canonical NAME for an alias) (5)" size="2" pos="110" show="5" value="0005"/>
        <field name="dns.resp.class" showname="Class: IN (0x0001)" size="2" pos="112" show="0x00000001" value="0001"/>
        <field name="dns.resp.ttl" showname="Time to live: 3600" size="4" pos="114" show="3600" value="00000e10"/>
        <field name="dns.resp.len" showname="Data length: 25" size="2" pos="118" show="25" value="0019"/>
        <field name="dns.cname" showname="CNAME: cnp3book.info.ucl.ac.be" size="25" pos="120" show="cnp3book.info.ucl.ac.be" value="08636e7033626f6f6b04696e666f0375636c02616302626500"/>
      </field>
    </field>
    <field name="dns.response_to" showname="Request In: 13" size="0" pos="62" show="13"/>
    <field name="dns.time" showname="Time: 0.004974000 seconds" size="0" pos="62" show="0.004974000"/>
  </proto>
</packet>


<packet>
  <proto name="geninfo" pos="0" showname="General information" size="82">
    <field name="num" pos="0" show="15" showname="Number" value="f" size="82"/>
    <field name="len" pos="0" show="82" showname="Frame Length" value="52" size="82"/>
    <field name="caplen" pos="0" show="82" showname="Captured Length" value="52" size="82"/>
    <field name="timestamp" pos="0" show="Sep  5, 2019 18:08:11.020905000 CEST" showname="Captured Time" value="1567699691.020905000" size="82"/>
  </proto>
  <proto name="frame" showname="Frame 15: 82 bytes on wire (656 bits), 82 bytes captured (656 bits)" size="82" pos="0">
    <field name="filtered" value="frame" />
  </proto>
  <proto name="eth" showname="Ethernet II, Src: 68:5b:35:ad:aa:e1, Dst: 00:1b:21:38:e9:78" size="14" pos="0">
    <field name="filtered" value="eth" />
  </proto>
  <proto name="ipv6" showname="Internet Protocol Version 6, Src: 2001:6a8:308f:2:f1f3:2f2f:397c:1cb5, Dst: 2001:7fd::1" size="40" pos="14">
    <field name="filtered" value="ipv6" />
  </proto>
  <proto name="udp" showname="User Datagram Protocol, Src Port: 64105, Dst Port: 53" size="8" pos="54">
    <field name="filtered" value="udp" />
  </proto>
  <proto name="dns" showname="Domain Name System (query)" size="20" pos="62">
    <field name="dns.id" showname="Transaction ID: 0x4da0" size="2" pos="62" show="0x00004da0" value="4da0"/>
    <field name="dns.flags" showname="Flags: 0x0120 Standard query" size="2" pos="64" show="0x00000120" value="0120">
      <field name="dns.flags.response" showname="0... .... .... .... = Response: Message is a query" size="2" pos="64" show="0" value="0" unmaskedvalue="0120"/>
      <field name="dns.flags.opcode" showname=".000 0... .... .... = Opcode: Standard query (0)" size="2" pos="64" show="0" value="0" unmaskedvalue="0120"/>
      <field name="dns.flags.truncated" showname=".... ..0. .... .... = Truncated: Message is not truncated" size="2" pos="64" show="0" value="0" unmaskedvalue="0120"/>
      <field name="dns.flags.recdesired" showname=".... ...1 .... .... = Recursion desired: Do query recursively" size="2" pos="64" show="1" value="1" unmaskedvalue="0120"/>
      <field name="dns.flags.z" showname=".... .... .0.. .... = Z: reserved (0)" size="2" pos="64" show="0" value="0" unmaskedvalue="0120"/>
      <field name="dns.flags.authenticated" showname=".... .... ..1. .... = AD bit: Set" size="2" pos="64" show="1" value="1" unmaskedvalue="0120"/>
      <field name="dns.flags.checkdisable" showname=".... .... ...0 .... = Non-authenticated data: Unacceptable" size="2" pos="64" show="0" value="0" unmaskedvalue="0120"/>
    </field>
    <field name="dns.count.queries" showname="Questions: 1" size="2" pos="66" show="1" value="0001"/>
    <field name="dns.count.answers" showname="Answer RRs: 0" size="2" pos="68" show="0" value="0000"/>
    <field name="dns.count.auth_rr" showname="Authority RRs: 0" size="2" pos="70" show="0" value="0000"/>
    <field name="dns.count.add_rr" showname="Additional RRs: 0" size="2" pos="72" show="0" value="0000"/>
    <field name="" show="Queries" size="8" pos="74" value="0262650000020001">
      <field name="" show="be: type NS, class IN" size="8" pos="74" value="0262650000020001">
        <field name="dns.qry.name" showname="Name: be" size="4" pos="74" show="be" value="02626500"/>
        <field name="dns.qry.name.len" showname="Name Length: 2" size="2" pos="74" show="2" value="0262"/>
        <field name="dns.count.labels" showname="Label Count: 1" size="2" pos="74" show="1" value="0262"/>
        <field name="dns.qry.type" showname="Type: NS (authoritative Name Server) (2)" size="2" pos="78" show="2" value="0002"/>
        <field name="dns.qry.class" showname="Class: IN (0x0001)" size="2" pos="80" show="0x00000001" value="0001"/>
      </field>
    </field>
  </proto>
</packet>


<packet>
  <proto name="geninfo" pos="0" showname="General information" size="449">
    <field name="num" pos="0" show="16" showname="Number" value="10" size="449"/>
    <field name="len" pos="0" show="449" showname="Frame Length" value="1c1" size="449"/>
    <field name="caplen" pos="0" show="449" showname="Captured Length" value="1c1" size="449"/>
    <field name="timestamp" pos="0" show="Sep  5, 2019 18:08:11.031414000 CEST" showname="Captured Time" value="1567699691.031414000" size="449"/>
  </proto>
  <proto name="frame" showname="Frame 16: 449 bytes on wire (3592 bits), 449 bytes captured (3592 bits)" size="449" pos="0">
    <field name="filtered" value="frame" />
  </proto>
  <proto name="eth" showname="Ethernet II, Src: 00:1b:21:38:e9:78, Dst: 68:5b:35:ad:aa:e1" size="14" pos="0">
    <field name="filtered" value="eth" />
  </proto>
  <proto name="ipv6" showname="Internet Protocol Version 6, Src: 2001:7fd::1, Dst: 2001:6a8:308f:2:f1f3:2f2f:397c:1cb5" size="40" pos="14">
    <field name="filtered" value="ipv6" />
  </proto>
  <proto name="udp" showname="User Datagram Protocol, Src Port: 53, Dst Port: 64105" size="8" pos="54">
    <field name="filtered" value="udp" />
  </proto>
  <proto name="dns" showname="Domain Name System (response)" size="387" pos="62">
    <field name="dns.id" showname="Transaction ID: 0x4da0" size="2" pos="62" show="0x00004da0" value="4da0"/>
    <field name="dns.flags" showname="Flags: 0x8100 Standard query response, No error" size="2" pos="64" show="0x00008100" value="8100">
      <field name="dns.flags.response" showname="1... .... .... .... = Response: Message is a response" size="2" pos="64" show="1" value="1" unmaskedvalue="8100"/>
      <field name="dns.flags.opcode" showname=".000 0... .... .... = Opcode: Standard query (0)" size="2" pos="64" show="0" value="0" unmaskedvalue="8100"/>
      <field name="dns.flags.authoritative" showname=".... .0.. .... .... = Authoritative: Server is not an authority for domain" size="2" pos="64" show="0" value="0" unmaskedvalue="8100"/>
      <field name="dns.flags.truncated" showname=".... ..0. .... .... = Truncated: Message is not truncated" size="2" pos="64" show="0" value="0" unmaskedvalue="8100"/>
      <field name="dns.flags.recdesired" showname=".... ...1 .... .... = Recursion desired: Do query recursively" size="2" pos="64" show="1" value="1" unmaskedvalue="8100"/>
      <field name="dns.flags.recavail" showname=".... .... 0... .... = Recursion available: Server can&#x27;t do recursive queries" size="2" pos="64" show="0" value="0" unmaskedvalue="8100"/>
      <field name="dns.flags.z" showname=".... .... .0.. .... = Z: reserved (0)" size="2" pos="64" show="0" value="0" unmaskedvalue="8100"/>
      <field name="dns.flags.authenticated" showname=".... .... ..0. .... = Answer authenticated: Answer/authority portion was not authenticated by the server" size="2" pos="64" show="0" value="0" unmaskedvalue="8100"/>
      <field name="dns.flags.checkdisable" showname=".... .... ...0 .... = Non-authenticated data: Unacceptable" size="2" pos="64" show="0" value="0" unmaskedvalue="8100"/>
      <field name="dns.flags.rcode" showname=".... .... .... 0000 = Reply code: No error (0)" size="2" pos="64" show="0" value="0" unmaskedvalue="8100"/>
    </field>
    <field name="dns.count.queries" showname="Questions: 1" size="2" pos="66" show="1" value="0001"/>
    <field name="dns.count.answers" showname="Answer RRs: 0" size="2" pos="68" show="0" value="0000"/>
    <field name="dns.count.auth_rr" showname="Authority RRs: 6" size="2" pos="70" show="6" value="0006"/>
    <field name="dns.count.add_rr" showname="Additional RRs: 12" size="2" pos="72" show="12" value="000c"/>
    <field name="" show="Queries" size="8" pos="74" value="0262650000020001">
      <field name="" show="be: type NS, class IN" size="8" pos="74" value="0262650000020001">
        <field name="dns.qry.name" showname="Name: be" size="4" pos="74" show="be" value="02626500"/>
        <field name="dns.qry.name.len" showname="Name Length: 2" size="2" pos="74" show="2" value="0262"/>
        <field name="dns.count.labels" showname="Label Count: 1" size="2" pos="74" show="1" value="0262"/>
        <field name="dns.qry.type" showname="Type: NS (authoritative Name Server) (2)" size="2" pos="78" show="2" value="0002"/>
        <field name="dns.qry.class" showname="Class: IN (0x0001)" size="2" pos="80" show="0x00000001" value="0001"/>
      </field>
    </field>
    <field name="" show="Authoritative nameservers" size="103" pos="82" value="c00c000200010002a300000b0161026e7303646e73c00cc00c000200010002a30000040162c022c00c000200010002a30000040163c022c00c000200010002a30000040164c022c00c000200010002a30000040178c022c00c000200010002a30000040179c022">
      <field name="" show="be: type NS, class IN, ns a.ns.dns.be" size="23" pos="82" value="c00c000200010002a300000b0161026e7303646e73c00c">
        <field name="dns.resp.name" showname="Name: be" size="2" pos="82" show="be" value="c00c"/>
        <field name="dns.resp.type" showname="Type: NS (authoritative Name Server) (2)" size="2" pos="84" show="2" value="0002"/>
        <field name="dns.resp.class" showname="Class: IN (0x0001)" size="2" pos="86" show="0x00000001" value="0001"/>
        <field name="dns.resp.ttl" showname="Time to live: 172800" size="4" pos="88" show="172800" value="0002a300"/>
        <field name="dns.resp.len" showname="Data length: 11" size="2" pos="92" show="11" value="000b"/>
        <field name="dns.ns" showname="Name Server: a.ns.dns.be" size="11" pos="94" show="a.ns.dns.be" value="0161026e7303646e73c00c"/>
      </field>
      <field name="" show="be: type NS, class IN, ns b.ns.dns.be" size="16" pos="105" value="c00c000200010002a30000040162c022">
        <field name="dns.resp.name" showname="Name: be" size="2" pos="105" show="be" value="c00c"/>
        <field name="dns.resp.type" showname="Type: NS (authoritative Name Server) (2)" size="2" pos="107" show="2" value="0002"/>
        <field name="dns.resp.class" showname="Class: IN (0x0001)" size="2" pos="109" show="0x00000001" value="0001"/>
        <field name="dns.resp.ttl" showname="Time to live: 172800" size="4" pos="111" show="172800" value="0002a300"/>
        <field name="dns.resp.len" showname="Data length: 4" size="2" pos="115" show="4" value="0004"/>
        <field name="dns.ns" showname="Name Server: b.ns.dns.be" size="4" pos="117" show="b.ns.dns.be" value="0162c022"/>
      </field>
      <field name="" show="be: type NS, class IN, ns c.ns.dns.be" size="16" pos="121" value="c00c000200010002a30000040163c022">
        <field name="dns.resp.name" showname="Name: be" size="2" pos="121" show="be" value="c00c"/>
        <field name="dns.resp.type" showname="Type: NS (authoritative Name Server) (2)" size="2" pos="123" show="2" value="0002"/>
        <field name="dns.resp.class" showname="Class: IN (0x0001)" size="2" pos="125" show="0x00000001" value="0001"/>
        <field name="dns.resp.ttl" showname="Time to live: 172800" size="4" pos="127" show="172800" value="0002a300"/>
        <field name="dns.resp.len" showname="Data length: 4" size="2" pos="131" show="4" value="0004"/>
        <field name="dns.ns" showname="Name Server: c.ns.dns.be" size="4" pos="133" show="c.ns.dns.be" value="0163c022"/>
      </field>
      <field name="" show="be: type NS, class IN, ns d.ns.dns.be" size="16" pos="137" value="c00c000200010002a30000040164c022">
        <field name="dns.resp.name" showname="Name: be" size="2" pos="137" show="be" value="c00c"/>
        <field name="dns.resp.type" showname="Type: NS (authoritative Name Server) (2)" size="2" pos="139" show="2" value="0002"/>
        <field name="dns.resp.class" showname="Class: IN (0x0001)" size="2" pos="141" show="0x00000001" value="0001"/>
        <field name="dns.resp.ttl" showname="Time to live: 172800" size="4" pos="143" show="172800" value="0002a300"/>
        <field name="dns.resp.len" showname="Data length: 4" size="2" pos="147" show="4" value="0004"/>
        <field name="dns.ns" showname="Name Server: d.ns.dns.be" size="4" pos="149" show="d.ns.dns.be" value="0164c022"/>
      </field>
      <field name="" show="be: type NS, class IN, ns x.ns.dns.be" size="16" pos="153" value="c00c000200010002a30000040178c022">
        <field name="dns.resp.name" showname="Name: be" size="2" pos="153" show="be" value="c00c"/>
        <field name="dns.resp.type" showname="Type: NS (authoritative Name Server) (2)" size="2" pos="155" show="2" value="0002"/>
        <field name="dns.resp.class" showname="Class: IN (0x0001)" size="2" pos="157" show="0x00000001" value="0001"/>
        <field name="dns.resp.ttl" showname="Time to live: 172800" size="4" pos="159" show="172800" value="0002a300"/>
        <field name="dns.resp.len" showname="Data length: 4" size="2" pos="163" show="4" value="0004"/>
        <field name="dns.ns" showname="Name Server: x.ns.dns.be" size="4" pos="165" show="x.ns.dns.be" value="0178c022"/>
      </field>
      <field name="" show="be: type NS, class IN, ns y.ns.dns.be" size="16" pos="169" value="c00c000200010002a30000040179c022">
        <field name="dns.resp.name" showname="Name: be" size="2" pos="169" show="be" value="c00c"/>
        <field name="dns.resp.type" showname="Type: NS (authoritative Name Server) (2)" size="2" pos="171" show="2" value="0002"/>
        <field name="dns.resp.class" showname="Class: IN (0x0001)" size="2" pos="173" show="0x00000001" value="0001"/>
        <field name="dns.resp.ttl" showname="Time to live: 172800" size="4" pos="175" show="172800" value="0002a300"/>
        <field name="dns.resp.len" showname="Data length: 4" size="2" pos="179" show="4" value="0004"/>
        <field name="dns.ns" showname="Name Server: y.ns.dns.be" size="4" pos="181" show="y.ns.dns.be" value="0179c022"/>
      </field>
    </field>
    <field name="" show="Additional records" size="264" pos="185" value="c020001c00010002a300001020010678000900000000000000000001c037001c00010002a300001020010678006400000000000000000001c047001c00010002a300001020010678006800000000000000000001c057001c00010002a300001020010678006c00000000000000000001c067001c00010002a30000102001067800040000000000000000000ac077001c00010002a300001020010dcd000700000000000000000008c020000100010002a3000004c2000601c037000100010002a3000004c2002501c047000100010002a3000004c2002b01c057000100010002a3000004c2002c01c067000100010002a3000004c200010ac077000100010002a3000004781dfd08">
      <field name="" show="a.ns.dns.be: type AAAA, class IN, addr 2001:678:9::1" size="28" pos="185" value="c020001c00010002a300001020010678000900000000000000000001">
        <field name="dns.resp.name" showname="Name: a.ns.dns.be" size="2" pos="185" show="a.ns.dns.be" value="c020"/>
        <field name="dns.resp.type" showname="Type: AAAA (IPv6 Address) (28)" size="2" pos="187" show="28" value="001c"/>
        <field name="dns.resp.class" showname="Class: IN (0x0001)" size="2" pos="189" show="0x00000001" value="0001"/>
        <field name="dns.resp.ttl" showname="Time to live: 172800" size="4" pos="191" show="172800" value="0002a300"/>
        <field name="dns.resp.len" showname="Data length: 16" size="2" pos="195" show="16" value="0010"/>
        <field name="dns.aaaa" showname="AAAA Address: 2001:678:9::1" size="16" pos="197" show="2001:678:9::1" value="20010678000900000000000000000001"/>
      </field>
      <field name="" show="b.ns.dns.be: type AAAA, class IN, addr 2001:678:64::1" size="28" pos="213" value="c037001c00010002a300001020010678006400000000000000000001">
        <field name="dns.resp.name" showname="Name: b.ns.dns.be" size="2" pos="213" show="b.ns.dns.be" value="c037"/>
        <field name="dns.resp.type" showname="Type: AAAA (IPv6 Address) (28)" size="2" pos="215" show="28" value="001c"/>
        <field name="dns.resp.class" showname="Class: IN (0x0001)" size="2" pos="217" show="0x00000001" value="0001"/>
        <field name="dns.resp.ttl" showname="Time to live: 172800" size="4" pos="219" show="172800" value="0002a300"/>
        <field name="dns.resp.len" showname="Data length: 16" size="2" pos="223" show="16" value="0010"/>
        <field name="dns.aaaa" showname="AAAA Address: 2001:678:64::1" size="16" pos="225" show="2001:678:64::1" value="20010678006400000000000000000001"/>
      </field>
      <field name="" show="c.ns.dns.be: type AAAA, class IN, addr 2001:678:68::1" size="28" pos="241" value="c047001c00010002a300001020010678006800000000000000000001">
        <field name="dns.resp.name" showname="Name: c.ns.dns.be" size="2" pos="241" show="c.ns.dns.be" value="c047"/>
        <field name="dns.resp.type" showname="Type: AAAA (IPv6 Address) (28)" size="2" pos="243" show="28" value="001c"/>
        <field name="dns.resp.class" showname="Class: IN (0x0001)" size="2" pos="245" show="0x00000001" value="0001"/>
        <field name="dns.resp.ttl" showname="Time to live: 172800" size="4" pos="247" show="172800" value="0002a300"/>
        <field name="dns.resp.len" showname="Data length: 16" size="2" pos="251" show="16" value="0010"/>
        <field name="dns.aaaa" showname="AAAA Address: 2001:678:68::1" size="16" pos="253" show="2001:678:68::1" value="20010678006800000000000000000001"/>
      </field>
      <field name="" show="d.ns.dns.be: type AAAA, class IN, addr 2001:678:6c::1" size="28" pos="269" value="c057001c00010002a300001020010678006c00000000000000000001">
        <field name="dns.resp.name" showname="Name: d.ns.dns.be" size="2" pos="269" show="d.ns.dns.be" value="c057"/>
        <field name="dns.resp.type" showname="Type: AAAA (IPv6 Address) (28)" size="2" pos="271" show="28" value="001c"/>
        <field name="dns.resp.class" showname="Class: IN (0x0001)" size="2" pos="273" show="0x00000001" value="0001"/>
        <field name="dns.resp.ttl" showname="Time to live: 172800" size="4" pos="275" show="172800" value="0002a300"/>
        <field name="dns.resp.len" showname="Data length: 16" size="2" pos="279" show="16" value="0010"/>
        <field name="dns.aaaa" showname="AAAA Address: 2001:678:6c::1" size="16" pos="281" show="2001:678:6c::1" value="20010678006c00000000000000000001"/>
      </field>
      <field name="" show="x.ns.dns.be: type AAAA, class IN, addr 2001:678:4::a" size="28" pos="297" value="c067001c00010002a30000102001067800040000000000000000000a">
        <field name="dns.resp.name" showname="Name: x.ns.dns.be" size="2" pos="297" show="x.ns.dns.be" value="c067"/>
        <field name="dns.resp.type" showname="Type: AAAA (IPv6 Address) (28)" size="2" pos="299" show="28" value="001c"/>
        <field name="dns.resp.class" showname="Class: IN (0x0001)" size="2" pos="301" show="0x00000001" value="0001"/>
        <field name="dns.resp.ttl" showname="Time to live: 172800" size="4" pos="303" show="172800" value="0002a300"/>
        <field name="dns.resp.len" showname="Data length: 16" size="2" pos="307" show="16" value="0010"/>
        <field name="dns.aaaa" showname="AAAA Address: 2001:678:4::a" size="16" pos="309" show="2001:678:4::a" value="2001067800040000000000000000000a"/>
      </field>
      <field name="" show="y.ns.dns.be: type AAAA, class IN, addr 2001:dcd:7::8" size="28" pos="325" value="c077001c00010002a300001020010dcd000700000000000000000008">
        <field name="dns.resp.name" showname="Name: y.ns.dns.be" size="2" pos="325" show="y.ns.dns.be" value="c077"/>
        <field name="dns.resp.type" showname="Type: AAAA (IPv6 Address) (28)" size="2" pos="327" show="28" value="001c"/>
        <field name="dns.resp.class" showname="Class: IN (0x0001)" size="2" pos="329" show="0x00000001" value="0001"/>
        <field name="dns.resp.ttl" showname="Time to live: 172800" size="4" pos="331" show="172800" value="0002a300"/>
        <field name="dns.resp.len" showname="Data length: 16" size="2" pos="335" show="16" value="0010"/>
        <field name="dns.aaaa" showname="AAAA Address: 2001:dcd:7::8" size="16" pos="337" show="2001:dcd:7::8" value="20010dcd000700000000000000000008"/>
      </field>
      <field name="" show="a.ns.dns.be: type A, class IN, addr 194.0.6.1" size="16" pos="353" value="c020000100010002a3000004c2000601">
        <field name="dns.resp.name" showname="Name: a.ns.dns.be" size="2" pos="353" show="a.ns.dns.be" value="c020"/>
        <field name="dns.resp.type" showname="Type: A (Host Address) (1)" size="2" pos="355" show="1" value="0001"/>
        <field name="dns.resp.class" showname="Class: IN (0x0001)" size="2" pos="357" show="0x00000001" value="0001"/>
        <field name="dns.resp.ttl" showname="Time to live: 172800" size="4" pos="359" show="172800" value="0002a300"/>
        <field name="dns.resp.len" showname="Data length: 4" size="2" pos="363" show="4" value="0004"/>
        <field name="dns.a" showname="Address: 194.0.6.1" size="4" pos="365" show="194.0.6.1" value="c2000601"/>
      </field>
      <field name="" show="b.ns.dns.be: type A, class IN, addr 194.0.37.1" size="16" pos="369" value="c037000100010002a3000004c2002501">
        <field name="dns.resp.name" showname="Name: b.ns.dns.be" size="2" pos="369" show="b.ns.dns.be" value="c037"/>
        <field name="dns.resp.type" showname="Type: A (Host Address) (1)" size="2" pos="371" show="1" value="0001"/>
        <field name="dns.resp.class" showname="Class: IN (0x0001)" size="2" pos="373" show="0x00000001" value="0001"/>
        <field name="dns.resp.ttl" showname="Time to live: 172800" size="4" pos="375" show="172800" value="0002a300"/>
        <field name="dns.resp.len" showname="Data length: 4" size="2" pos="379" show="4" value="0004"/>
        <field name="dns.a" showname="Address: 194.0.37.1" size="4" pos="381" show="194.0.37.1" value="c2002501"/>
      </field>
      <field name="" show="c.ns.dns.be: type A, class IN, addr 194.0.43.1" size="16" pos="385" value="c047000100010002a3000004c2002b01">
        <field name="dns.resp.name" showname="Name: c.ns.dns.be" size="2" pos="385" show="c.ns.dns.be" value="c047"/>
        <field name="dns.resp.type" showname="Type: A (Host Address) (1)" size="2" pos="387" show="1" value="0001"/>
        <field name="dns.resp.class" showname="Class: IN (0x0001)" size="2" pos="389" show="0x00000001" value="0001"/>
        <field name="dns.resp.ttl" showname="Time to live: 172800" size="4" pos="391" show="172800" value="0002a300"/>
        <field name="dns.resp.len" showname="Data length: 4" size="2" pos="395" show="4" value="0004"/>
        <field name="dns.a" showname="Address: 194.0.43.1" size="4" pos="397" show="194.0.43.1" value="c2002b01"/>
      </field>
      <field name="" show="d.ns.dns.be: type A, class IN, addr 194.0.44.1" size="16" pos="401" value="c057000100010002a3000004c2002c01">
        <field name="dns.resp.name" showname="Name: d.ns.dns.be" size="2" pos="401" show="d.ns.dns.be" value="c057"/>
        <field name="dns.resp.type" showname="Type: A (Host Address) (1)" size="2" pos="403" show="1" value="0001"/>
        <field name="dns.resp.class" showname="Class: IN (0x0001)" size="2" pos="405" show="0x00000001" value="0001"/>
        <field name="dns.resp.ttl" showname="Time to live: 172800" size="4" pos="407" show="172800" value="0002a300"/>
        <field name="dns.resp.len" showname="Data length: 4" size="2" pos="411" show="4" value="0004"/>
        <field name="dns.a" showname="Address: 194.0.44.1" size="4" pos="413" show="194.0.44.1" value="c2002c01"/>
      </field>
      <field name="" show="x.ns.dns.be: type A, class IN, addr 194.0.1.10" size="16" pos="417" value="c067000100010002a3000004c200010a">
        <field name="dns.resp.name" showname="Name: x.ns.dns.be" size="2" pos="417" show="x.ns.dns.be" value="c067"/>
        <field name="dns.resp.type" showname="Type: A (Host Address) (1)" size="2" pos="419" show="1" value="0001"/>
        <field name="dns.resp.class" showname="Class: IN (0x0001)" size="2" pos="421" show="0x00000001" value="0001"/>
        <field name="dns.resp.ttl" showname="Time to live: 172800" size="4" pos="423" show="172800" value="0002a300"/>
        <field name="dns.resp.len" showname="Data length: 4" size="2" pos="427" show="4" value="0004"/>
        <field name="dns.a" showname="Address: 194.0.1.10" size="4" pos="429" show="194.0.1.10" value="c200010a"/>
      </field>
      <field name="" show="y.ns.dns.be: type A, class IN, addr 120.29.253.8" size="16" pos="433" value="c077000100010002a3000004781dfd08">
        <field name="dns.resp.name" showname="Name: y.ns.dns.be" size="2" pos="433" show="y.ns.dns.be" value="c077"/>
        <field name="dns.resp.type" showname="Type: A (Host Address) (1)" size="2" pos="435" show="1" value="0001"/>
        <field name="dns.resp.class" showname="Class: IN (0x0001)" size="2" pos="437" show="0x00000001" value="0001"/>
        <field name="dns.resp.ttl" showname="Time to live: 172800" size="4" pos="439" show="172800" value="0002a300"/>
        <field name="dns.resp.len" showname="Data length: 4" size="2" pos="443" show="4" value="0004"/>
        <field name="dns.a" showname="Address: 120.29.253.8" size="4" pos="445" show="120.29.253.8" value="781dfd08"/>
      </field>
    </field>
    <field name="dns.response_to" showname="Request In: 15" size="0" pos="62" show="15"/>
    <field name="dns.time" showname="Time: 0.010509000 seconds" size="0" pos="62" show="0.010509000"/>
  </proto>
</packet>


<packet>
  <proto name="geninfo" pos="0" showname="General information" size="85">
    <field name="num" pos="0" show="17" showname="Number" value="11" size="85"/>
    <field name="len" pos="0" show="85" showname="Frame Length" value="55" size="85"/>
    <field name="caplen" pos="0" show="85" showname="Captured Length" value="55" size="85"/>
    <field name="timestamp" pos="0" show="Sep  5, 2019 18:08:11.086932000 CEST" showname="Captured Time" value="1567699691.086932000" size="85"/>
  </proto>
  <proto name="frame" showname="Frame 17: 85 bytes on wire (680 bits), 85 bytes captured (680 bits)" size="85" pos="0">
    <field name="filtered" value="frame" />
  </proto>
  <proto name="eth" showname="Ethernet II, Src: 68:5b:35:ad:aa:e1, Dst: 00:1b:21:38:e9:78" size="14" pos="0">
    <field name="filtered" value="eth" />
  </proto>
  <proto name="ipv6" showname="Internet Protocol Version 6, Src: 2001:6a8:308f:2:f1f3:2f2f:397c:1cb5, Dst: 2001:678:9::1" size="40" pos="14">
    <field name="filtered" value="ipv6" />
  </proto>
  <proto name="udp" showname="User Datagram Protocol, Src Port: 64107, Dst Port: 53" size="8" pos="54">
    <field name="filtered" value="udp" />
  </proto>
  <proto name="dns" showname="Domain Name System (query)" size="23" pos="62">
    <field name="dns.id" showname="Transaction ID: 0xd3d7" size="2" pos="62" show="0x0000d3d7" value="d3d7"/>
    <field name="dns.flags" showname="Flags: 0x0120 Standard query" size="2" pos="64" show="0x00000120" value="0120">
      <field name="dns.flags.response" showname="0... .... .... .... = Response: Message is a query" size="2" pos="64" show="0" value="0" unmaskedvalue="0120"/>
      <field name="dns.flags.opcode" showname=".000 0... .... .... = Opcode: Standard query (0)" size="2" pos="64" show="0" value="0" unmaskedvalue="0120"/>
      <field name="dns.flags.truncated" showname=".... ..0. .... .... = Truncated: Message is not truncated" size="2" pos="64" show="0" value="0" unmaskedvalue="0120"/>
      <field name="dns.flags.recdesired" showname=".... ...1 .... .... = Recursion desired: Do query recursively" size="2" pos="64" show="1" value="1" unmaskedvalue="0120"/>
      <field name="dns.flags.z" showname=".... .... .0.. .... = Z: reserved (0)" size="2" pos="64" show="0" value="0" unmaskedvalue="0120"/>
      <field name="dns.flags.authenticated" showname=".... .... ..1. .... = AD bit: Set" size="2" pos="64" show="1" value="1" unmaskedvalue="0120"/>
      <field name="dns.flags.checkdisable" showname=".... .... ...0 .... = Non-authenticated data: Unacceptable" size="2" pos="64" show="0" value="0" unmaskedvalue="0120"/>
    </field>
    <field name="dns.count.queries" showname="Questions: 1" size="2" pos="66" show="1" value="0001"/>
    <field name="dns.count.answers" showname="Answer RRs: 0" size="2" pos="68" show="0" value="0000"/>
    <field name="dns.count.auth_rr" showname="Authority RRs: 0" size="2" pos="70" show="0" value="0000"/>
    <field name="dns.count.add_rr" showname="Additional RRs: 0" size="2" pos="72" show="0" value="0000"/>
    <field name="" show="Queries" size="11" pos="74" value="0261630262650000020001">
      <field name="" show="ac.be: type NS, class IN" size="11" pos="74" value="0261630262650000020001">
        <field name="dns.qry.name" showname="Name: ac.be" size="7" pos="74" show="ac.be" value="02616302626500"/>
        <field name="dns.qry.name.len" showname="Name Length: 5" size="5" pos="74" show="5" value="0261630262"/>
        <field name="dns.count.labels" showname="Label Count: 2" size="5" pos="74" show="2" value="0261630262"/>
        <field name="dns.qry.type" showname="Type: NS (authoritative Name Server) (2)" size="2" pos="81" show="2" value="0002"/>
        <field name="dns.qry.class" showname="Class: IN (0x0001)" size="2" pos="83" show="0x00000001" value="0001"/>
      </field>
    </field>
  </proto>
</packet>


<packet>
  <proto name="geninfo" pos="0" showname="General information" size="306">
    <field name="num" pos="0" show="18" showname="Number" value="12" size="306"/>
    <field name="len" pos="0" show="306" showname="Frame Length" value="132" size="306"/>
    <field name="caplen" pos="0" show="306" showname="Captured Length" value="132" size="306"/>
    <field name="timestamp" pos="0" show="Sep  5, 2019 18:08:11.089131000 CEST" showname="Captured Time" value="1567699691.089131000" size="306"/>
  </proto>
  <proto name="frame" showname="Frame 18: 306 bytes on wire (2448 bits), 306 bytes captured (2448 bits)" size="306" pos="0">
    <field name="filtered" value="frame" />
  </proto>
  <proto name="eth" showname="Ethernet II, Src: 00:1b:21:38:e9:78, Dst: 68:5b:35:ad:aa:e1" size="14" pos="0">
    <field name="filtered" value="eth" />
  </proto>
  <proto name="ipv6" showname="Internet Protocol Version 6, Src: 2001:678:9::1, Dst: 2001:6a8:308f:2:f1f3:2f2f:397c:1cb5" size="40" pos="14">
    <field name="filtered" value="ipv6" />
  </proto>
  <proto name="udp" showname="User Datagram Protocol, Src Port: 53, Dst Port: 64107" size="8" pos="54">
    <field name="filtered" value="udp" />
  </proto>
  <proto name="dns" showname="Domain Name System (response)" size="244" pos="62">
    <field name="dns.id" showname="Transaction ID: 0xd3d7" size="2" pos="62" show="0x0000d3d7" value="d3d7"/>
    <field name="dns.flags" showname="Flags: 0x8100 Standard query response, No error" size="2" pos="64" show="0x00008100" value="8100">
      <field name="dns.flags.response" showname="1... .... .... .... = Response: Message is a response" size="2" pos="64" show="1" value="1" unmaskedvalue="8100"/>
      <field name="dns.flags.opcode" showname=".000 0... .... .... = Opcode: Standard query (0)" size="2" pos="64" show="0" value="0" unmaskedvalue="8100"/>
      <field name="dns.flags.authoritative" showname=".... .0.. .... .... = Authoritative: Server is not an authority for domain" size="2" pos="64" show="0" value="0" unmaskedvalue="8100"/>
      <field name="dns.flags.truncated" showname=".... ..0. .... .... = Truncated: Message is not truncated" size="2" pos="64" show="0" value="0" unmaskedvalue="8100"/>
      <field name="dns.flags.recdesired" showname=".... ...1 .... .... = Recursion desired: Do query recursively" size="2" pos="64" show="1" value="1" unmaskedvalue="8100"/>
      <field name="dns.flags.recavail" showname=".... .... 0... .... = Recursion available: Server can&#x27;t do recursive queries" size="2" pos="64" show="0" value="0" unmaskedvalue="8100"/>
      <field name="dns.flags.z" showname=".... .... .0.. .... = Z: reserved (0)" size="2" pos="64" show="0" value="0" unmaskedvalue="8100"/>
      <field name="dns.flags.authenticated" showname=".... .... ..0. .... = Answer authenticated: Answer/authority portion was not authenticated by the server" size="2" pos="64" show="0" value="0" unmaskedvalue="8100"/>
      <field name="dns.flags.checkdisable" showname=".... .... ...0 .... = Non-authenticated data: Unacceptable" size="2" pos="64" show="0" value="0" unmaskedvalue="8100"/>
      <field name="dns.flags.rcode" showname=".... .... .... 0000 = Reply code: No error (0)" size="2" pos="64" show="0" value="0" unmaskedvalue="8100"/>
    </field>
    <field name="dns.count.queries" showname="Questions: 1" size="2" pos="66" show="1" value="0001"/>
    <field name="dns.count.answers" showname="Answer RRs: 0" size="2" pos="68" show="0" value="0000"/>
    <field name="dns.count.auth_rr" showname="Authority RRs: 4" size="2" pos="70" show="4" value="0004"/>
    <field name="dns.count.add_rr" showname="Additional RRs: 6" size="2" pos="72" show="6" value="0006"/>
    <field name="" show="Queries" size="11" pos="74" value="0261630262650000020001">
      <field name="" show="ac.be: type NS, class IN" size="11" pos="74" value="0261630262650000020001">
        <field name="dns.qry.name" showname="Name: ac.be" size="7" pos="74" show="ac.be" value="02616302626500"/>
        <field name="dns.qry.name.len" showname="Name Length: 5" size="5" pos="74" show="5" value="0261630262"/>
        <field name="dns.count.labels" showname="Label Count: 2" size="5" pos="74" show="2" value="0261630262"/>
        <field name="dns.qry.type" showname="Type: NS (authoritative Name Server) (2)" size="2" pos="81" show="2" value="0002"/>
        <field name="dns.qry.class" showname="Class: IN (0x0001)" size="2" pos="83" show="0x00000001" value="0001"/>
      </field>
    </field>
    <field name="" show="Authoritative nameservers" size="89" pos="85" value="c00c0002000100015180000d036e73320662656c6e6574c00fc00c00020001000151800010036e733107737572666e6574026e6c00c00c00020001000151800006036e7333c027c00c00020001000151800006036e7331c027">
      <field name="" show="ac.be: type NS, class IN, ns ns2.belnet.be" size="25" pos="85" value="c00c0002000100015180000d036e73320662656c6e6574c00f">
        <field name="dns.resp.name" showname="Name: ac.be" size="2" pos="85" show="ac.be" value="c00c"/>
        <field name="dns.resp.type" showname="Type: NS (authoritative Name Server) (2)" size="2" pos="87" show="2" value="0002"/>
        <field name="dns.resp.class" showname="Class: IN (0x0001)" size="2" pos="89" show="0x00000001" value="0001"/>
        <field name="dns.resp.ttl" showname="Time to live: 86400" size="4" pos="91" show="86400" value="00015180"/>
        <field name="dns.resp.len" showname="Data length: 13" size="2" pos="95" show="13" value="000d"/>
        <field name="dns.ns" showname="Name Server: ns2.belnet.be" size="13" pos="97" show="ns2.belnet.be" value="036e73320662656c6e6574c00f"/>
      </field>
      <field name="" show="ac.be: type NS, class IN, ns ns1.surfnet.nl" size="28" pos="110" value="c00c00020001000151800010036e733107737572666e6574026e6c00">
        <field name="dns.resp.name" showname="Name: ac.be" size="2" pos="110" show="ac.be" value="c00c"/>
        <field name="dns.resp.type" showname="Type: NS (authoritative Name Server) (2)" size="2" pos="112" show="2" value="0002"/>
        <field name="dns.resp.class" showname="Class: IN (0x0001)" size="2" pos="114" show="0x00000001" value="0001"/>
        <field name="dns.resp.ttl" showname="Time to live: 86400" size="4" pos="116" show="86400" value="00015180"/>
        <field name="dns.resp.len" showname="Data length: 16" size="2" pos="120" show="16" value="0010"/>
        <field name="dns.ns" showname="Name Server: ns1.surfnet.nl" size="16" pos="122" show="ns1.surfnet.nl" value="036e733107737572666e6574026e6c00"/>
      </field>
      <field name="" show="ac.be: type NS, class IN, ns ns3.belnet.be" size="18" pos="138" value="c00c00020001000151800006036e7333c027">
        <field name="dns.resp.name" showname="Name: ac.be" size="2" pos="138" show="ac.be" value="c00c"/>
        <field name="dns.resp.type" showname="Type: NS (authoritative Name Server) (2)" size="2" pos="140" show="2" value="0002"/>
        <field name="dns.resp.class" showname="Class: IN (0x0001)" size="2" pos="142" show="0x00000001" value="0001"/>
        <field name="dns.resp.ttl" showname="Time to live: 86400" size="4" pos="144" show="86400" value="00015180"/>
        <field name="dns.resp.len" showname="Data length: 6" size="2" pos="148" show="6" value="0006"/>
        <field name="dns.ns" showname="Name Server: ns3.belnet.be" size="6" pos="150" show="ns3.belnet.be" value="036e7333c027"/>
      </field>
      <field name="" show="ac.be: type NS, class IN, ns ns1.belnet.be" size="18" pos="156" value="c00c00020001000151800006036e7331c027">
        <field name="dns.resp.name" showname="Name: ac.be" size="2" pos="156" show="ac.be" value="c00c"/>
        <field name="dns.resp.type" showname="Type: NS (authoritative Name Server) (2)" size="2" pos="158" show="2" value="0002"/>
        <field name="dns.resp.class" showname="Class: IN (0x0001)" size="2" pos="160" show="0x00000001" value="0001"/>
        <field name="dns.resp.ttl" showname="Time to live: 86400" size="4" pos="162" show="86400" value="00015180"/>
        <field name="dns.resp.len" showname="Data length: 6" size="2" pos="166" show="6" value="0006"/>
        <field name="dns.ns" showname="Name Server: ns1.belnet.be" size="6" pos="168" show="ns1.belnet.be" value="036e7331c027"/>
      </field>
    </field>
    <field name="" show="Additional records" size="132" pos="174" value="c023001c0001000151800010200106a83c80c0000000000000000040c058001c000100015180001020010610018804410145000000070163c06a001c0001000151800010200106a83c8000000000000000000014c02300010001000151800004c1beb628c05800010001000151800004910007a3c06a00010001000151800004c1bec60e">
      <field name="" show="ns2.belnet.be: type AAAA, class IN, addr 2001:6a8:3c80:c000::40" size="28" pos="174" value="c023001c0001000151800010200106a83c80c0000000000000000040">
        <field name="dns.resp.name" showname="Name: ns2.belnet.be" size="2" pos="174" show="ns2.belnet.be" value="c023"/>
        <field name="dns.resp.type" showname="Type: AAAA (IPv6 Address) (28)" size="2" pos="176" show="28" value="001c"/>
        <field name="dns.resp.class" showname="Class: IN (0x0001)" size="2" pos="178" show="0x00000001" value="0001"/>
        <field name="dns.resp.ttl" showname="Time to live: 86400" size="4" pos="180" show="86400" value="00015180"/>
        <field name="dns.resp.len" showname="Data length: 16" size="2" pos="184" show="16" value="0010"/>
        <field name="dns.aaaa" showname="AAAA Address: 2001:6a8:3c80:c000::40" size="16" pos="186" show="2001:6a8:3c80:c000::40" value="200106a83c80c0000000000000000040"/>
      </field>
      <field name="" show="ns3.belnet.be: type AAAA, class IN, addr 2001:610:188:441:145::7:163" size="28" pos="202" value="c058001c000100015180001020010610018804410145000000070163">
        <field name="dns.resp.name" showname="Name: ns3.belnet.be" size="2" pos="202" show="ns3.belnet.be" value="c058"/>
        <field name="dns.resp.type" showname="Type: AAAA (IPv6 Address) (28)" size="2" pos="204" show="28" value="001c"/>
        <field name="dns.resp.class" showname="Class: IN (0x0001)" size="2" pos="206" show="0x00000001" value="0001"/>
        <field name="dns.resp.ttl" showname="Time to live: 86400" size="4" pos="208" show="86400" value="00015180"/>
        <field name="dns.resp.len" showname="Data length: 16" size="2" pos="212" show="16" value="0010"/>
        <field name="dns.aaaa" showname="AAAA Address: 2001:610:188:441:145::7:163" size="16" pos="214" show="2001:610:188:441:145::7:163" value="20010610018804410145000000070163"/>
      </field>
      <field name="" show="ns1.belnet.be: type AAAA, class IN, addr 2001:6a8:3c80::14" size="28" pos="230" value="c06a001c0001000151800010200106a83c8000000000000000000014">
        <field name="dns.resp.name" showname="Name: ns1.belnet.be" size="2" pos="230" show="ns1.belnet.be" value="c06a"/>
        <field name="dns.resp.type" showname="Type: AAAA (IPv6 Address) (28)" size="2" pos="232" show="28" value="001c"/>
        <field name="dns.resp.class" showname="Class: IN (0x0001)" size="2" pos="234" show="0x00000001" value="0001"/>
        <field name="dns.resp.ttl" showname="Time to live: 86400" size="4" pos="236" show="86400" value="00015180"/>
        <field name="dns.resp.len" showname="Data length: 16" size="2" pos="240" show="16" value="0010"/>
        <field name="dns.aaaa" showname="AAAA Address: 2001:6a8:3c80::14" size="16" pos="242" show="2001:6a8:3c80::14" value="200106a83c8000000000000000000014"/>
      </field>
      <field name="" show="ns2.belnet.be: type A, class IN, addr 193.190.182.40" size="16" pos="258" value="c02300010001000151800004c1beb628">
        <field name="dns.resp.name" showname="Name: ns2.belnet.be" size="2" pos="258" show="ns2.belnet.be" value="c023"/>
        <field name="dns.resp.type" showname="Type: A (Host Address) (1)" size="2" pos="260" show="1" value="0001"/>
        <field name="dns.resp.class" showname="Class: IN (0x0001)" size="2" pos="262" show="0x00000001" value="0001"/>
        <field name="dns.resp.ttl" showname="Time to live: 86400" size="4" pos="264" show="86400" value="00015180"/>
        <field name="dns.resp.len" showname="Data length: 4" size="2" pos="268" show="4" value="0004"/>
        <field name="dns.a" showname="Address: 193.190.182.40" size="4" pos="270" show="193.190.182.40" value="c1beb628"/>
      </field>
      <field name="" show="ns3.belnet.be: type A, class IN, addr 145.0.7.163" size="16" pos="274" value="c05800010001000151800004910007a3">
        <field name="dns.resp.name" showname="Name: ns3.belnet.be" size="2" pos="274" show="ns3.belnet.be" value="c058"/>
        <field name="dns.resp.type" showname="Type: A (Host Address) (1)" size="2" pos="276" show="1" value="0001"/>
        <field name="dns.resp.class" showname="Class: IN (0x0001)" size="2" pos="278" show="0x00000001" value="0001"/>
        <field name="dns.resp.ttl" showname="Time to live: 86400" size="4" pos="280" show="86400" value="00015180"/>
        <field name="dns.resp.len" showname="Data length: 4" size="2" pos="284" show="4" value="0004"/>
        <field name="dns.a" showname="Address: 145.0.7.163" size="4" pos="286" show="145.0.7.163" value="910007a3"/>
      </field>
      <field name="" show="ns1.belnet.be: type A, class IN, addr 193.190.198.14" size="16" pos="290" value="c06a00010001000151800004c1bec60e">
        <field name="dns.resp.name" showname="Name: ns1.belnet.be" size="2" pos="290" show="ns1.belnet.be" value="c06a"/>
        <field name="dns.resp.type" showname="Type: A (Host Address) (1)" size="2" pos="292" show="1" value="0001"/>
        <field name="dns.resp.class" showname="Class: IN (0x0001)" size="2" pos="294" show="0x00000001" value="0001"/>
        <field name="dns.resp.ttl" showname="Time to live: 86400" size="4" pos="296" show="86400" value="00015180"/>
        <field name="dns.resp.len" showname="Data length: 4" size="2" pos="300" show="4" value="0004"/>
        <field name="dns.a" showname="Address: 193.190.198.14" size="4" pos="302" show="193.190.198.14" value="c1bec60e"/>
      </field>
    </field>
    <field name="dns.response_to" showname="Request In: 17" size="0" pos="62" show="17"/>
    <field name="dns.time" showname="Time: 0.002199000 seconds" size="0" pos="62" show="0.002199000"/>
  </proto>
</packet>


<packet>
  <proto name="geninfo" pos="0" showname="General information" size="89">
    <field name="num" pos="0" show="19" showname="Number" value="13" size="89"/>
    <field name="len" pos="0" show="89" showname="Frame Length" value="59" size="89"/>
    <field name="caplen" pos="0" show="89" showname="Captured Length" value="59" size="89"/>
    <field name="timestamp" pos="0" show="Sep  5, 2019 18:08:11.159836000 CEST" showname="Captured Time" value="1567699691.159836000" size="89"/>
  </proto>
  <proto name="frame" showname="Frame 19: 89 bytes on wire (712 bits), 89 bytes captured (712 bits)" size="89" pos="0">
    <field name="filtered" value="frame" />
  </proto>
  <proto name="eth" showname="Ethernet II, Src: 68:5b:35:ad:aa:e1, Dst: 00:1b:21:38:e9:78" size="14" pos="0">
    <field name="filtered" value="eth" />
  </proto>
  <proto name="ipv6" showname="Internet Protocol Version 6, Src: 2001:6a8:308f:2:f1f3:2f2f:397c:1cb5, Dst: 2001:6a8:3c80:c000::40" size="40" pos="14">
    <field name="filtered" value="ipv6" />
  </proto>
  <proto name="udp" showname="User Datagram Protocol, Src Port: 64109, Dst Port: 53" size="8" pos="54">
    <field name="filtered" value="udp" />
  </proto>
  <proto name="dns" showname="Domain Name System (query)" size="27" pos="62">
    <field name="dns.id" showname="Transaction ID: 0xc473" size="2" pos="62" show="0x0000c473" value="c473"/>
    <field name="dns.flags" showname="Flags: 0x0120 Standard query" size="2" pos="64" show="0x00000120" value="0120">
      <field name="dns.flags.response" showname="0... .... .... .... = Response: Message is a query" size="2" pos="64" show="0" value="0" unmaskedvalue="0120"/>
      <field name="dns.flags.opcode" showname=".000 0... .... .... = Opcode: Standard query (0)" size="2" pos="64" show="0" value="0" unmaskedvalue="0120"/>
      <field name="dns.flags.truncated" showname=".... ..0. .... .... = Truncated: Message is not truncated" size="2" pos="64" show="0" value="0" unmaskedvalue="0120"/>
      <field name="dns.flags.recdesired" showname=".... ...1 .... .... = Recursion desired: Do query recursively" size="2" pos="64" show="1" value="1" unmaskedvalue="0120"/>
      <field name="dns.flags.z" showname=".... .... .0.. .... = Z: reserved (0)" size="2" pos="64" show="0" value="0" unmaskedvalue="0120"/>
      <field name="dns.flags.authenticated" showname=".... .... ..1. .... = AD bit: Set" size="2" pos="64" show="1" value="1" unmaskedvalue="0120"/>
      <field name="dns.flags.checkdisable" showname=".... .... ...0 .... = Non-authenticated data: Unacceptable" size="2" pos="64" show="0" value="0" unmaskedvalue="0120"/>
    </field>
    <field name="dns.count.queries" showname="Questions: 1" size="2" pos="66" show="1" value="0001"/>
    <field name="dns.count.answers" showname="Answer RRs: 0" size="2" pos="68" show="0" value="0000"/>
    <field name="dns.count.auth_rr" showname="Authority RRs: 0" size="2" pos="70" show="0" value="0000"/>
    <field name="dns.count.add_rr" showname="Additional RRs: 0" size="2" pos="72" show="0" value="0000"/>
    <field name="" show="Queries" size="15" pos="74" value="0375636c0261630262650000020001">
      <field name="" show="ucl.ac.be: type NS, class IN" size="15" pos="74" value="0375636c0261630262650000020001">
        <field name="dns.qry.name" showname="Name: ucl.ac.be" size="11" pos="74" show="ucl.ac.be" value="0375636c02616302626500"/>
        <field name="dns.qry.name.len" showname="Name Length: 9" size="9" pos="74" show="9" value="0375636c0261630262"/>
        <field name="dns.count.labels" showname="Label Count: 3" size="9" pos="74" show="3" value="0375636c0261630262"/>
        <field name="dns.qry.type" showname="Type: NS (authoritative Name Server) (2)" size="2" pos="85" show="2" value="0002"/>
        <field name="dns.qry.class" showname="Class: IN (0x0001)" size="2" pos="87" show="0x00000001" value="0001"/>
      </field>
    </field>
  </proto>
</packet>


<packet>
  <proto name="geninfo" pos="0" showname="General information" size="322">
    <field name="num" pos="0" show="20" showname="Number" value="14" size="322"/>
    <field name="len" pos="0" show="322" showname="Frame Length" value="142" size="322"/>
    <field name="caplen" pos="0" show="322" showname="Captured Length" value="142" size="322"/>
    <field name="timestamp" pos="0" show="Sep  5, 2019 18:08:11.161829000 CEST" showname="Captured Time" value="1567699691.161829000" size="322"/>
  </proto>
  <proto name="frame" showname="Frame 20: 322 bytes on wire (2576 bits), 322 bytes captured (2576 bits)" size="322" pos="0">
    <field name="filtered" value="frame" />
  </proto>
  <proto name="eth" showname="Ethernet II, Src: 00:1b:21:38:e9:78, Dst: 68:5b:35:ad:aa:e1" size="14" pos="0">
    <field name="filtered" value="eth" />
  </proto>
  <proto name="ipv6" showname="Internet Protocol Version 6, Src: 2001:6a8:3c80:c000::40, Dst: 2001:6a8:308f:2:f1f3:2f2f:397c:1cb5" size="40" pos="14">
    <field name="filtered" value="ipv6" />
  </proto>
  <proto name="udp" showname="User Datagram Protocol, Src Port: 53, Dst Port: 64109" size="8" pos="54">
    <field name="filtered" value="udp" />
  </proto>
  <proto name="dns" showname="Domain Name System (response)" size="260" pos="62">
    <field name="dns.id" showname="Transaction ID: 0xc473" size="2" pos="62" show="0x0000c473" value="c473"/>
    <field name="dns.flags" showname="Flags: 0x8500 Standard query response, No error" size="2" pos="64" show="0x00008500" value="8500">
      <field name="dns.flags.response" showname="1... .... .... .... = Response: Message is a response" size="2" pos="64" show="1" value="1" unmaskedvalue="8500"/>
      <field name="dns.flags.opcode" showname=".000 0... .... .... = Opcode: Standard query (0)" size="2" pos="64" show="0" value="0" unmaskedvalue="8500"/>
      <field name="dns.flags.authoritative" showname=".... .1.. .... .... = Authoritative: Server is an authority for domain" size="2" pos="64" show="1" value="1" unmaskedvalue="8500"/>
      <field name="dns.flags.truncated" showname=".... ..0. .... .... = Truncated: Message is not truncated" size="2" pos="64" show="0" value="0" unmaskedvalue="8500"/>
      <field name="dns.flags.recdesired" showname=".... ...1 .... .... = Recursion desired: Do query recursively" size="2" pos="64" show="1" value="1" unmaskedvalue="8500"/>
      <field name="dns.flags.recavail" showname=".... .... 0... .... = Recursion available: Server can&#x27;t do recursive queries" size="2" pos="64" show="0" value="0" unmaskedvalue="8500"/>
      <field name="dns.flags.z" showname=".... .... .0.. .... = Z: reserved (0)" size="2" pos="64" show="0" value="0" unmaskedvalue="8500"/>
      <field name="dns.flags.authenticated" showname=".... .... ..0. .... = Answer authenticated: Answer/authority portion was not authenticated by the server" size="2" pos="64" show="0" value="0" unmaskedvalue="8500"/>
      <field name="dns.flags.checkdisable" showname=".... .... ...0 .... = Non-authenticated data: Unacceptable" size="2" pos="64" show="0" value="0" unmaskedvalue="8500"/>
      <field name="dns.flags.rcode" showname=".... .... .... 0000 = Reply code: No error (0)" size="2" pos="64" show="0" value="0" unmaskedvalue="8500"/>
    </field>
    <field name="dns.count.queries" showname="Questions: 1" size="2" pos="66" show="1" value="0001"/>
    <field name="dns.count.answers" showname="Answer RRs: 5" size="2" pos="68" show="5" value="0005"/>
    <field name="dns.count.auth_rr" showname="Authority RRs: 0" size="2" pos="70" show="0" value="0000"/>
    <field name="dns.count.add_rr" showname="Additional RRs: 6" size="2" pos="72" show="6" value="0006"/>
    <field name="" show="Queries" size="15" pos="74" value="0375636c0261630262650000020001">
      <field name="" show="ucl.ac.be: type NS, class IN" size="15" pos="74" value="0375636c0261630262650000020001">
        <field name="dns.qry.name" showname="Name: ucl.ac.be" size="11" pos="74" show="ucl.ac.be" value="0375636c02616302626500"/>
        <field name="dns.qry.name.len" showname="Name Length: 9" size="9" pos="74" show="9" value="0375636c0261630262"/>
        <field name="dns.count.labels" showname="Label Count: 3" size="9" pos="74" show="3" value="0375636c0261630262"/>
        <field name="dns.qry.type" showname="Type: NS (authoritative Name Server) (2)" size="2" pos="85" show="2" value="0002"/>
        <field name="dns.qry.class" showname="Class: IN (0x0001)" size="2" pos="87" show="0x00000001" value="0001"/>
      </field>
    </field>
    <field name="" show="Answers" size="101" pos="89" value="c00c0002000100093a80000a036e733103737269c00cc00c0002000100093a80000d036e73310662656c6e6574c013c00c0002000100093a800006036e7332c02bc00c0002000100093a800006036e7332c041c00c0002000100093a800006036e7333c02b">
      <field name="" show="ucl.ac.be: type NS, class IN, ns ns1.sri.ucl.ac.be" size="22" pos="89" value="c00c0002000100093a80000a036e733103737269c00c">
        <field name="dns.resp.name" showname="Name: ucl.ac.be" size="2" pos="89" show="ucl.ac.be" value="c00c"/>
        <field name="dns.resp.type" showname="Type: NS (authoritative Name Server) (2)" size="2" pos="91" show="2" value="0002"/>
        <field name="dns.resp.class" showname="Class: IN (0x0001)" size="2" pos="93" show="0x00000001" value="0001"/>
        <field name="dns.resp.ttl" showname="Time to live: 604800" size="4" pos="95" show="604800" value="00093a80"/>
        <field name="dns.resp.len" showname="Data length: 10" size="2" pos="99" show="10" value="000a"/>
        <field name="dns.ns" showname="Name Server: ns1.sri.ucl.ac.be" size="10" pos="101" show="ns1.sri.ucl.ac.be" value="036e733103737269c00c"/>
      </field>
      <field name="" show="ucl.ac.be: type NS, class IN, ns ns1.belnet.be" size="25" pos="111" value="c00c0002000100093a80000d036e73310662656c6e6574c013">
        <field name="dns.resp.name" showname="Name: ucl.ac.be" size="2" pos="111" show="ucl.ac.be" value="c00c"/>
        <field name="dns.resp.type" showname="Type: NS (authoritative Name Server) (2)" size="2" pos="113" show="2" value="0002"/>
        <field name="dns.resp.class" showname="Class: IN (0x0001)" size="2" pos="115" show="0x00000001" value="0001"/>
        <field name="dns.resp.ttl" showname="Time to live: 604800" size="4" pos="117" show="604800" value="00093a80"/>
        <field name="dns.resp.len" showname="Data length: 13" size="2" pos="121" show="13" value="000d"/>
        <field name="dns.ns" showname="Name Server: ns1.belnet.be" size="13" pos="123" show="ns1.belnet.be" value="036e73310662656c6e6574c013"/>
      </field>
      <field name="" show="ucl.ac.be: type NS, class IN, ns ns2.sri.ucl.ac.be" size="18" pos="136" value="c00c0002000100093a800006036e7332c02b">
        <field name="dns.resp.name" showname="Name: ucl.ac.be" size="2" pos="136" show="ucl.ac.be" value="c00c"/>
        <field name="dns.resp.type" showname="Type: NS (authoritative Name Server) (2)" size="2" pos="138" show="2" value="0002"/>
        <field name="dns.resp.class" showname="Class: IN (0x0001)" size="2" pos="140" show="0x00000001" value="0001"/>
        <field name="dns.resp.ttl" showname="Time to live: 604800" size="4" pos="142" show="604800" value="00093a80"/>
        <field name="dns.resp.len" showname="Data length: 6" size="2" pos="146" show="6" value="0006"/>
        <field name="dns.ns" showname="Name Server: ns2.sri.ucl.ac.be" size="6" pos="148" show="ns2.sri.ucl.ac.be" value="036e7332c02b"/>
      </field>
      <field name="" show="ucl.ac.be: type NS, class IN, ns ns2.belnet.be" size="18" pos="154" value="c00c0002000100093a800006036e7332c041">
        <field name="dns.resp.name" showname="Name: ucl.ac.be" size="2" pos="154" show="ucl.ac.be" value="c00c"/>
        <field name="dns.resp.type" showname="Type: NS (authoritative Name Server) (2)" size="2" pos="156" show="2" value="0002"/>
        <field name="dns.resp.class" showname="Class: IN (0x0001)" size="2" pos="158" show="0x00000001" value="0001"/>
        <field name="dns.resp.ttl" showname="Time to live: 604800" size="4" pos="160" show="604800" value="00093a80"/>
        <field name="dns.resp.len" showname="Data length: 6" size="2" pos="164" show="6" value="0006"/>
        <field name="dns.ns" showname="Name Server: ns2.belnet.be" size="6" pos="166" show="ns2.belnet.be" value="036e7332c041"/>
      </field>
      <field name="" show="ucl.ac.be: type NS, class IN, ns ns3.sri.ucl.ac.be" size="18" pos="172" value="c00c0002000100093a800006036e7333c02b">
        <field name="dns.resp.name" showname="Name: ucl.ac.be" size="2" pos="172" show="ucl.ac.be" value="c00c"/>
        <field name="dns.resp.type" showname="Type: NS (authoritative Name Server) (2)" size="2" pos="174" show="2" value="0002"/>
        <field name="dns.resp.class" showname="Class: IN (0x0001)" size="2" pos="176" show="0x00000001" value="0001"/>
        <field name="dns.resp.ttl" showname="Time to live: 604800" size="4" pos="178" show="604800" value="00093a80"/>
        <field name="dns.resp.len" showname="Data length: 6" size="2" pos="182" show="6" value="0006"/>
        <field name="dns.ns" showname="Name Server: ns3.sri.ucl.ac.be" size="6" pos="184" show="ns3.sri.ucl.ac.be" value="036e7333c02b"/>
      </field>
    </field>
    <field name="" show="Additional records" size="132" pos="190" value="c0270001000100093a80000482680101c0560001000100093a80000482680102c07a0001000100093a8000048268fe01c027001c000100093a800010200106a8308100010000000000000053c056001c000100093a800010200106a8308100020000000000000053c07a001c000100093a800010200106a8308200010000000000000053">
      <field name="" show="ns1.sri.ucl.ac.be: type A, class IN, addr 130.104.1.1" size="16" pos="190" value="c0270001000100093a80000482680101">
        <field name="dns.resp.name" showname="Name: ns1.sri.ucl.ac.be" size="2" pos="190" show="ns1.sri.ucl.ac.be" value="c027"/>
        <field name="dns.resp.type" showname="Type: A (Host Address) (1)" size="2" pos="192" show="1" value="0001"/>
        <field name="dns.resp.class" showname="Class: IN (0x0001)" size="2" pos="194" show="0x00000001" value="0001"/>
        <field name="dns.resp.ttl" showname="Time to live: 604800" size="4" pos="196" show="604800" value="00093a80"/>
        <field name="dns.resp.len" showname="Data length: 4" size="2" pos="200" show="4" value="0004"/>
        <field name="dns.a" showname="Address: 130.104.1.1" size="4" pos="202" show="130.104.1.1" value="82680101"/>
      </field>
      <field name="" show="ns2.sri.ucl.ac.be: type A, class IN, addr 130.104.1.2" size="16" pos="206" value="c0560001000100093a80000482680102">
        <field name="dns.resp.name" showname="Name: ns2.sri.ucl.ac.be" size="2" pos="206" show="ns2.sri.ucl.ac.be" value="c056"/>
        <field name="dns.resp.type" showname="Type: A (Host Address) (1)" size="2" pos="208" show="1" value="0001"/>
        <field name="dns.resp.class" showname="Class: IN (0x0001)" size="2" pos="210" show="0x00000001" value="0001"/>
        <field name="dns.resp.ttl" showname="Time to live: 604800" size="4" pos="212" show="604800" value="00093a80"/>
        <field name="dns.resp.len" showname="Data length: 4" size="2" pos="216" show="4" value="0004"/>
        <field name="dns.a" showname="Address: 130.104.1.2" size="4" pos="218" show="130.104.1.2" value="82680102"/>
      </field>
      <field name="" show="ns3.sri.ucl.ac.be: type A, class IN, addr 130.104.254.1" size="16" pos="222" value="c07a0001000100093a8000048268fe01">
        <field name="dns.resp.name" showname="Name: ns3.sri.ucl.ac.be" size="2" pos="222" show="ns3.sri.ucl.ac.be" value="c07a"/>
        <field name="dns.resp.type" showname="Type: A (Host Address) (1)" size="2" pos="224" show="1" value="0001"/>
        <field name="dns.resp.class" showname="Class: IN (0x0001)" size="2" pos="226" show="0x00000001" value="0001"/>
        <field name="dns.resp.ttl" showname="Time to live: 604800" size="4" pos="228" show="604800" value="00093a80"/>
        <field name="dns.resp.len" showname="Data length: 4" size="2" pos="232" show="4" value="0004"/>
        <field name="dns.a" showname="Address: 130.104.254.1" size="4" pos="234" show="130.104.254.1" value="8268fe01"/>
      </field>
      <field name="" show="ns1.sri.ucl.ac.be: type AAAA, class IN, addr 2001:6a8:3081:1::53" size="28" pos="238" value="c027001c000100093a800010200106a8308100010000000000000053">
        <field name="dns.resp.name" showname="Name: ns1.sri.ucl.ac.be" size="2" pos="238" show="ns1.sri.ucl.ac.be" value="c027"/>
        <field name="dns.resp.type" showname="Type: AAAA (IPv6 Address) (28)" size="2" pos="240" show="28" value="001c"/>
        <field name="dns.resp.class" showname="Class: IN (0x0001)" size="2" pos="242" show="0x00000001" value="0001"/>
        <field name="dns.resp.ttl" showname="Time to live: 604800" size="4" pos="244" show="604800" value="00093a80"/>
        <field name="dns.resp.len" showname="Data length: 16" size="2" pos="248" show="16" value="0010"/>
        <field name="dns.aaaa" showname="AAAA Address: 2001:6a8:3081:1::53" size="16" pos="250" show="2001:6a8:3081:1::53" value="200106a8308100010000000000000053"/>
      </field>
      <field name="" show="ns2.sri.ucl.ac.be: type AAAA, class IN, addr 2001:6a8:3081:2::53" size="28" pos="266" value="c056001c000100093a800010200106a8308100020000000000000053">
        <field name="dns.resp.name" showname="Name: ns2.sri.ucl.ac.be" size="2" pos="266" show="ns2.sri.ucl.ac.be" value="c056"/>
        <field name="dns.resp.type" showname="Type: AAAA (IPv6 Address) (28)" size="2" pos="268" show="28" value="001c"/>
        <field name="dns.resp.class" showname="Class: IN (0x0001)" size="2" pos="270" show="0x00000001" value="0001"/>
        <field name="dns.resp.ttl" showname="Time to live: 604800" size="4" pos="272" show="604800" value="00093a80"/>
        <field name="dns.resp.len" showname="Data length: 16" size="2" pos="276" show="16" value="0010"/>
        <field name="dns.aaaa" showname="AAAA Address: 2001:6a8:3081:2::53" size="16" pos="278" show="2001:6a8:3081:2::53" value="200106a8308100020000000000000053"/>
      </field>
      <field name="" show="ns3.sri.ucl.ac.be: type AAAA, class IN, addr 2001:6a8:3082:1::53" size="28" pos="294" value="c07a001c000100093a800010200106a8308200010000000000000053">
        <field name="dns.resp.name" showname="Name: ns3.sri.ucl.ac.be" size="2" pos="294" show="ns3.sri.ucl.ac.be" value="c07a"/>
        <field name="dns.resp.type" showname="Type: AAAA (IPv6 Address) (28)" size="2" pos="296" show="28" value="001c"/>
        <field name="dns.resp.class" showname="Class: IN (0x0001)" size="2" pos="298" show="0x00000001" value="0001"/>
        <field name="dns.resp.ttl" showname="Time to live: 604800" size="4" pos="300" show="604800" value="00093a80"/>
        <field name="dns.resp.len" showname="Data length: 16" size="2" pos="304" show="16" value="0010"/>
        <field name="dns.aaaa" showname="AAAA Address: 2001:6a8:3082:1::53" size="16" pos="306" show="2001:6a8:3082:1::53" value="200106a8308200010000000000000053"/>
      </field>
    </field>
    <field name="dns.response_to" showname="Request In: 19" size="0" pos="62" show="19"/>
    <field name="dns.time" showname="Time: 0.001993000 seconds" size="0" pos="62" show="0.001993000"/>
  </proto>
</packet>


<packet>
  <proto name="geninfo" pos="0" showname="General information" size="94">
    <field name="num" pos="0" show="21" showname="Number" value="15" size="94"/>
    <field name="len" pos="0" show="94" showname="Frame Length" value="5e" size="94"/>
    <field name="caplen" pos="0" show="94" showname="Captured Length" value="5e" size="94"/>
    <field name="timestamp" pos="0" show="Sep  5, 2019 18:08:11.230987000 CEST" showname="Captured Time" value="1567699691.230987000" size="94"/>
  </proto>
  <proto name="frame" showname="Frame 21: 94 bytes on wire (752 bits), 94 bytes captured (752 bits)" size="94" pos="0">
    <field name="filtered" value="frame" />
  </proto>
  <proto name="eth" showname="Ethernet II, Src: 68:5b:35:ad:aa:e1, Dst: 00:1b:21:38:e9:78" size="14" pos="0">
    <field name="filtered" value="eth" />
  </proto>
  <proto name="ipv6" showname="Internet Protocol Version 6, Src: 2001:6a8:308f:2:f1f3:2f2f:397c:1cb5, Dst: 2001:6a8:3081:1::53" size="40" pos="14">
    <field name="filtered" value="ipv6" />
  </proto>
  <proto name="udp" showname="User Datagram Protocol, Src Port: 64111, Dst Port: 53" size="8" pos="54">
    <field name="filtered" value="udp" />
  </proto>
  <proto name="dns" showname="Domain Name System (query)" size="32" pos="62">
    <field name="dns.id" showname="Transaction ID: 0x84d0" size="2" pos="62" show="0x000084d0" value="84d0"/>
    <field name="dns.flags" showname="Flags: 0x0120 Standard query" size="2" pos="64" show="0x00000120" value="0120">
      <field name="dns.flags.response" showname="0... .... .... .... = Response: Message is a query" size="2" pos="64" show="0" value="0" unmaskedvalue="0120"/>
      <field name="dns.flags.opcode" showname=".000 0... .... .... = Opcode: Standard query (0)" size="2" pos="64" show="0" value="0" unmaskedvalue="0120"/>
      <field name="dns.flags.truncated" showname=".... ..0. .... .... = Truncated: Message is not truncated" size="2" pos="64" show="0" value="0" unmaskedvalue="0120"/>
      <field name="dns.flags.recdesired" showname=".... ...1 .... .... = Recursion desired: Do query recursively" size="2" pos="64" show="1" value="1" unmaskedvalue="0120"/>
      <field name="dns.flags.z" showname=".... .... .0.. .... = Z: reserved (0)" size="2" pos="64" show="0" value="0" unmaskedvalue="0120"/>
      <field name="dns.flags.authenticated" showname=".... .... ..1. .... = AD bit: Set" size="2" pos="64" show="1" value="1" unmaskedvalue="0120"/>
      <field name="dns.flags.checkdisable" showname=".... .... ...0 .... = Non-authenticated data: Unacceptable" size="2" pos="64" show="0" value="0" unmaskedvalue="0120"/>
    </field>
    <field name="dns.count.queries" showname="Questions: 1" size="2" pos="66" show="1" value="0001"/>
    <field name="dns.count.answers" showname="Answer RRs: 0" size="2" pos="68" show="0" value="0000"/>
    <field name="dns.count.auth_rr" showname="Authority RRs: 0" size="2" pos="70" show="0" value="0000"/>
    <field name="dns.count.add_rr" showname="Additional RRs: 0" size="2" pos="72" show="0" value="0000"/>
    <field name="" show="Queries" size="20" pos="74" value="04696e666f0375636c0261630262650000020001">
      <field name="" show="info.ucl.ac.be: type NS, class IN" size="20" pos="74" value="04696e666f0375636c0261630262650000020001">
        <field name="dns.qry.name" showname="Name: info.ucl.ac.be" size="16" pos="74" show="info.ucl.ac.be" value="04696e666f0375636c02616302626500"/>
        <field name="dns.qry.name.len" showname="Name Length: 14" size="14" pos="74" show="14" value="04696e666f0375636c0261630262"/>
        <field name="dns.count.labels" showname="Label Count: 4" size="14" pos="74" show="4" value="04696e666f0375636c0261630262"/>
        <field name="dns.qry.type" showname="Type: NS (authoritative Name Server) (2)" size="2" pos="90" show="2" value="0002"/>
        <field name="dns.qry.class" showname="Class: IN (0x0001)" size="2" pos="92" show="0x00000001" value="0001"/>
      </field>
    </field>
  </proto>
</packet>


<packet>
  <proto name="geninfo" pos="0" showname="General information" size="349">
    <field name="num" pos="0" show="22" showname="Number" value="16" size="349"/>
    <field name="len" pos="0" show="349" showname="Frame Length" value="15d" size="349"/>
    <field name="caplen" pos="0" show="349" showname="Captured Length" value="15d" size="349"/>
    <field name="timestamp" pos="0" show="Sep  5, 2019 18:08:11.231684000 CEST" showname="Captured Time" value="1567699691.231684000" size="349"/>
  </proto>
  <proto name="frame" showname="Frame 22: 349 bytes on wire (2792 bits), 349 bytes captured (2792 bits)" size="349" pos="0">
    <field name="filtered" value="frame" />
  </proto>
  <proto name="eth" showname="Ethernet II, Src: 00:1b:21:38:e9:78, Dst: 68:5b:35:ad:aa:e1" size="14" pos="0">
    <field name="filtered" value="eth" />
  </proto>
  <proto name="ipv6" showname="Internet Protocol Version 6, Src: 2001:6a8:3081:1::53, Dst: 2001:6a8:308f:2:f1f3:2f2f:397c:1cb5" size="40" pos="14">
    <field name="filtered" value="ipv6" />
  </proto>
  <proto name="udp" showname="User Datagram Protocol, Src Port: 53, Dst Port: 64111" size="8" pos="54">
    <field name="filtered" value="udp" />
  </proto>
  <proto name="dns" showname="Domain Name System (response)" size="287" pos="62">
    <field name="dns.id" showname="Transaction ID: 0x84d0" size="2" pos="62" show="0x000084d0" value="84d0"/>
    <field name="dns.flags" showname="Flags: 0x8580 Standard query response, No error" size="2" pos="64" show="0x00008580" value="8580">
      <field name="dns.flags.response" showname="1... .... .... .... = Response: Message is a response" size="2" pos="64" show="1" value="1" unmaskedvalue="8580"/>
      <field name="dns.flags.opcode" showname=".000 0... .... .... = Opcode: Standard query (0)" size="2" pos="64" show="0" value="0" unmaskedvalue="8580"/>
      <field name="dns.flags.authoritative" showname=".... .1.. .... .... = Authoritative: Server is an authority for domain" size="2" pos="64" show="1" value="1" unmaskedvalue="8580"/>
      <field name="dns.flags.truncated" showname=".... ..0. .... .... = Truncated: Message is not truncated" size="2" pos="64" show="0" value="0" unmaskedvalue="8580"/>
      <field name="dns.flags.recdesired" showname=".... ...1 .... .... = Recursion desired: Do query recursively" size="2" pos="64" show="1" value="1" unmaskedvalue="8580"/>
      <field name="dns.flags.recavail" showname=".... .... 1... .... = Recursion available: Server can do recursive queries" size="2" pos="64" show="1" value="1" unmaskedvalue="8580"/>
      <field name="dns.flags.z" showname=".... .... .0.. .... = Z: reserved (0)" size="2" pos="64" show="0" value="0" unmaskedvalue="8580"/>
      <field name="dns.flags.authenticated" showname=".... .... ..0. .... = Answer authenticated: Answer/authority portion was not authenticated by the server" size="2" pos="64" show="0" value="0" unmaskedvalue="8580"/>
      <field name="dns.flags.checkdisable" showname=".... .... ...0 .... = Non-authenticated data: Unacceptable" size="2" pos="64" show="0" value="0" unmaskedvalue="8580"/>
      <field name="dns.flags.rcode" showname=".... .... .... 0000 = Reply code: No error (0)" size="2" pos="64" show="0" value="0" unmaskedvalue="8580"/>
    </field>
    <field name="dns.count.queries" showname="Questions: 1" size="2" pos="66" show="1" value="0001"/>
    <field name="dns.count.answers" showname="Answer RRs: 4" size="2" pos="68" show="4" value="0004"/>
    <field name="dns.count.auth_rr" showname="Authority RRs: 0" size="2" pos="70" show="0" value="0000"/>
    <field name="dns.count.add_rr" showname="Additional RRs: 8" size="2" pos="72" show="8" value="0008"/>
    <field name="" show="Queries" size="20" pos="74" value="04696e666f0375636c0261630262650000020001">
      <field name="" show="info.ucl.ac.be: type NS, class IN" size="20" pos="74" value="04696e666f0375636c0261630262650000020001">
        <field name="dns.qry.name" showname="Name: info.ucl.ac.be" size="16" pos="74" show="info.ucl.ac.be" value="04696e666f0375636c02616302626500"/>
        <field name="dns.qry.name.len" showname="Name Length: 14" size="14" pos="74" show="14" value="04696e666f0375636c0261630262"/>
        <field name="dns.count.labels" showname="Label Count: 4" size="14" pos="74" show="4" value="04696e666f0375636c0261630262"/>
        <field name="dns.qry.type" showname="Type: NS (authoritative Name Server) (2)" size="2" pos="90" show="2" value="0002"/>
        <field name="dns.qry.class" showname="Class: IN (0x0001)" size="2" pos="92" show="0x00000001" value="0001"/>
      </field>
    </field>
    <field name="" show="Answers" size="79" pos="94" value="c00c0002000100015180000a036e733203737269c011c00c00020001000151800006036e7333c030c00c0002000100015180000906646e73737276c00cc00c00020001000151800006036e7331c030">
      <field name="" show="info.ucl.ac.be: type NS, class IN, ns ns2.sri.ucl.ac.be" size="22" pos="94" value="c00c0002000100015180000a036e733203737269c011">
        <field name="dns.resp.name" showname="Name: info.ucl.ac.be" size="2" pos="94" show="info.ucl.ac.be" value="c00c"/>
        <field name="dns.resp.type" showname="Type: NS (authoritative Name Server) (2)" size="2" pos="96" show="2" value="0002"/>
        <field name="dns.resp.class" showname="Class: IN (0x0001)" size="2" pos="98" show="0x00000001" value="0001"/>
        <field name="dns.resp.ttl" showname="Time to live: 86400" size="4" pos="100" show="86400" value="00015180"/>
        <field name="dns.resp.len" showname="Data length: 10" size="2" pos="104" show="10" value="000a"/>
        <field name="dns.ns" showname="Name Server: ns2.sri.ucl.ac.be" size="10" pos="106" show="ns2.sri.ucl.ac.be" value="036e733203737269c011"/>
      </field>
      <field name="" show="info.ucl.ac.be: type NS, class IN, ns ns3.sri.ucl.ac.be" size="18" pos="116" value="c00c00020001000151800006036e7333c030">
        <field name="dns.resp.name" showname="Name: info.ucl.ac.be" size="2" pos="116" show="info.ucl.ac.be" value="c00c"/>
        <field name="dns.resp.type" showname="Type: NS (authoritative Name Server) (2)" size="2" pos="118" show="2" value="0002"/>
        <field name="dns.resp.class" showname="Class: IN (0x0001)" size="2" pos="120" show="0x00000001" value="0001"/>
        <field name="dns.resp.ttl" showname="Time to live: 86400" size="4" pos="122" show="86400" value="00015180"/>
        <field name="dns.resp.len" showname="Data length: 6" size="2" pos="126" show="6" value="0006"/>
        <field name="dns.ns" showname="Name Server: ns3.sri.ucl.ac.be" size="6" pos="128" show="ns3.sri.ucl.ac.be" value="036e7333c030"/>
      </field>
      <field name="" show="info.ucl.ac.be: type NS, class IN, ns dnssrv.info.ucl.ac.be" size="21" pos="134" value="c00c0002000100015180000906646e73737276c00c">
        <field name="dns.resp.name" showname="Name: info.ucl.ac.be" size="2" pos="134" show="info.ucl.ac.be" value="c00c"/>
        <field name="dns.resp.type" showname="Type: NS (authoritative Name Server) (2)" size="2" pos="136" show="2" value="0002"/>
        <field name="dns.resp.class" showname="Class: IN (0x0001)" size="2" pos="138" show="0x00000001" value="0001"/>
        <field name="dns.resp.ttl" showname="Time to live: 86400" size="4" pos="140" show="86400" value="00015180"/>
        <field name="dns.resp.len" showname="Data length: 9" size="2" pos="144" show="9" value="0009"/>
        <field name="dns.ns" showname="Name Server: dnssrv.info.ucl.ac.be" size="9" pos="146" show="dnssrv.info.ucl.ac.be" value="06646e73737276c00c"/>
      </field>
      <field name="" show="info.ucl.ac.be: type NS, class IN, ns ns1.sri.ucl.ac.be" size="18" pos="155" value="c00c00020001000151800006036e7331c030">
        <field name="dns.resp.name" showname="Name: info.ucl.ac.be" size="2" pos="155" show="info.ucl.ac.be" value="c00c"/>
        <field name="dns.resp.type" showname="Type: NS (authoritative Name Server) (2)" size="2" pos="157" show="2" value="0002"/>
        <field name="dns.resp.class" showname="Class: IN (0x0001)" size="2" pos="159" show="0x00000001" value="0001"/>
        <field name="dns.resp.ttl" showname="Time to live: 86400" size="4" pos="161" show="86400" value="00015180"/>
        <field name="dns.resp.len" showname="Data length: 6" size="2" pos="165" show="6" value="0006"/>
        <field name="dns.ns" showname="Name Server: ns1.sri.ucl.ac.be" size="6" pos="167" show="ns1.sri.ucl.ac.be" value="036e7331c030"/>
      </field>
    </field>
    <field name="" show="Additional records" size="176" pos="173" value="c069001c000100093a800010200106a8308100010000000000000053c02c001c000100093a800010200106a8308100020000000000000053c042001c000100093a800010200106a8308200010000000000000053c054001c000100093a800010200106a8308f0001000000000000000dc0690001000100093a80000482680101c02c0001000100093a80000482680102c0420001000100093a8000048268fe01c0540001000100093a8000048268e644">
      <field name="" show="ns1.sri.ucl.ac.be: type AAAA, class IN, addr 2001:6a8:3081:1::53" size="28" pos="173" value="c069001c000100093a800010200106a8308100010000000000000053">
        <field name="dns.resp.name" showname="Name: ns1.sri.ucl.ac.be" size="2" pos="173" show="ns1.sri.ucl.ac.be" value="c069"/>
        <field name="dns.resp.type" showname="Type: AAAA (IPv6 Address) (28)" size="2" pos="175" show="28" value="001c"/>
        <field name="dns.resp.class" showname="Class: IN (0x0001)" size="2" pos="177" show="0x00000001" value="0001"/>
        <field name="dns.resp.ttl" showname="Time to live: 604800" size="4" pos="179" show="604800" value="00093a80"/>
        <field name="dns.resp.len" showname="Data length: 16" size="2" pos="183" show="16" value="0010"/>
        <field name="dns.aaaa" showname="AAAA Address: 2001:6a8:3081:1::53" size="16" pos="185" show="2001:6a8:3081:1::53" value="200106a8308100010000000000000053"/>
      </field>
      <field name="" show="ns2.sri.ucl.ac.be: type AAAA, class IN, addr 2001:6a8:3081:2::53" size="28" pos="201" value="c02c001c000100093a800010200106a8308100020000000000000053">
        <field name="dns.resp.name" showname="Name: ns2.sri.ucl.ac.be" size="2" pos="201" show="ns2.sri.ucl.ac.be" value="c02c"/>
        <field name="dns.resp.type" showname="Type: AAAA (IPv6 Address) (28)" size="2" pos="203" show="28" value="001c"/>
        <field name="dns.resp.class" showname="Class: IN (0x0001)" size="2" pos="205" show="0x00000001" value="0001"/>
        <field name="dns.resp.ttl" showname="Time to live: 604800" size="4" pos="207" show="604800" value="00093a80"/>
        <field name="dns.resp.len" showname="Data length: 16" size="2" pos="211" show="16" value="0010"/>
        <field name="dns.aaaa" showname="AAAA Address: 2001:6a8:3081:2::53" size="16" pos="213" show="2001:6a8:3081:2::53" value="200106a8308100020000000000000053"/>
      </field>
      <field name="" show="ns3.sri.ucl.ac.be: type AAAA, class IN, addr 2001:6a8:3082:1::53" size="28" pos="229" value="c042001c000100093a800010200106a8308200010000000000000053">
        <field name="dns.resp.name" showname="Name: ns3.sri.ucl.ac.be" size="2" pos="229" show="ns3.sri.ucl.ac.be" value="c042"/>
        <field name="dns.resp.type" showname="Type: AAAA (IPv6 Address) (28)" size="2" pos="231" show="28" value="001c"/>
        <field name="dns.resp.class" showname="Class: IN (0x0001)" size="2" pos="233" show="0x00000001" value="0001"/>
        <field name="dns.resp.ttl" showname="Time to live: 604800" size="4" pos="235" show="604800" value="00093a80"/>
        <field name="dns.resp.len" showname="Data length: 16" size="2" pos="239" show="16" value="0010"/>
        <field name="dns.aaaa" showname="AAAA Address: 2001:6a8:3082:1::53" size="16" pos="241" show="2001:6a8:3082:1::53" value="200106a8308200010000000000000053"/>
      </field>
      <field name="" show="dnssrv.info.ucl.ac.be: type AAAA, class IN, addr 2001:6a8:308f:1::d" size="28" pos="257" value="c054001c000100093a800010200106a8308f0001000000000000000d">
        <field name="dns.resp.name" showname="Name: dnssrv.info.ucl.ac.be" size="2" pos="257" show="dnssrv.info.ucl.ac.be" value="c054"/>
        <field name="dns.resp.type" showname="Type: AAAA (IPv6 Address) (28)" size="2" pos="259" show="28" value="001c"/>
        <field name="dns.resp.class" showname="Class: IN (0x0001)" size="2" pos="261" show="0x00000001" value="0001"/>
        <field name="dns.resp.ttl" showname="Time to live: 604800" size="4" pos="263" show="604800" value="00093a80"/>
        <field name="dns.resp.len" showname="Data length: 16" size="2" pos="267" show="16" value="0010"/>
        <field name="dns.aaaa" showname="AAAA Address: 2001:6a8:308f:1::d" size="16" pos="269" show="2001:6a8:308f:1::d" value="200106a8308f0001000000000000000d"/>
      </field>
      <field name="" show="ns1.sri.ucl.ac.be: type A, class IN, addr 130.104.1.1" size="16" pos="285" value="c0690001000100093a80000482680101">
        <field name="dns.resp.name" showname="Name: ns1.sri.ucl.ac.be" size="2" pos="285" show="ns1.sri.ucl.ac.be" value="c069"/>
        <field name="dns.resp.type" showname="Type: A (Host Address) (1)" size="2" pos="287" show="1" value="0001"/>
        <field name="dns.resp.class" showname="Class: IN (0x0001)" size="2" pos="289" show="0x00000001" value="0001"/>
        <field name="dns.resp.ttl" showname="Time to live: 604800" size="4" pos="291" show="604800" value="00093a80"/>
        <field name="dns.resp.len" showname="Data length: 4" size="2" pos="295" show="4" value="0004"/>
        <field name="dns.a" showname="Address: 130.104.1.1" size="4" pos="297" show="130.104.1.1" value="82680101"/>
      </field>
      <field name="" show="ns2.sri.ucl.ac.be: type A, class IN, addr 130.104.1.2" size="16" pos="301" value="c02c0001000100093a80000482680102">
        <field name="dns.resp.name" showname="Name: ns2.sri.ucl.ac.be" size="2" pos="301" show="ns2.sri.ucl.ac.be" value="c02c"/>
        <field name="dns.resp.type" showname="Type: A (Host Address) (1)" size="2" pos="303" show="1" value="0001"/>
        <field name="dns.resp.class" showname="Class: IN (0x0001)" size="2" pos="305" show="0x00000001" value="0001"/>
        <field name="dns.resp.ttl" showname="Time to live: 604800" size="4" pos="307" show="604800" value="00093a80"/>
        <field name="dns.resp.len" showname="Data length: 4" size="2" pos="311" show="4" value="0004"/>
        <field name="dns.a" showname="Address: 130.104.1.2" size="4" pos="313" show="130.104.1.2" value="82680102"/>
      </field>
      <field name="" show="ns3.sri.ucl.ac.be: type A, class IN, addr 130.104.254.1" size="16" pos="317" value="c0420001000100093a8000048268fe01">
        <field name="dns.resp.name" showname="Name: ns3.sri.ucl.ac.be" size="2" pos="317" show="ns3.sri.ucl.ac.be" value="c042"/>
        <field name="dns.resp.type" showname="Type: A (Host Address) (1)" size="2" pos="319" show="1" value="0001"/>
        <field name="dns.resp.class" showname="Class: IN (0x0001)" size="2" pos="321" show="0x00000001" value="0001"/>
        <field name="dns.resp.ttl" showname="Time to live: 604800" size="4" pos="323" show="604800" value="00093a80"/>
        <field name="dns.resp.len" showname="Data length: 4" size="2" pos="327" show="4" value="0004"/>
        <field name="dns.a" showname="Address: 130.104.254.1" size="4" pos="329" show="130.104.254.1" value="8268fe01"/>
      </field>
      <field name="" show="dnssrv.info.ucl.ac.be: type A, class IN, addr 130.104.230.68" size="16" pos="333" value="c0540001000100093a8000048268e644">
        <field name="dns.resp.name" showname="Name: dnssrv.info.ucl.ac.be" size="2" pos="333" show="dnssrv.info.ucl.ac.be" value="c054"/>
        <field name="dns.resp.type" showname="Type: A (Host Address) (1)" size="2" pos="335" show="1" value="0001"/>
        <field name="dns.resp.class" showname="Class: IN (0x0001)" size="2" pos="337" show="0x00000001" value="0001"/>
        <field name="dns.resp.ttl" showname="Time to live: 604800" size="4" pos="339" show="604800" value="00093a80"/>
        <field name="dns.resp.len" showname="Data length: 4" size="2" pos="343" show="4" value="0004"/>
        <field name="dns.a" showname="Address: 130.104.230.68" size="4" pos="345" show="130.104.230.68" value="8268e644"/>
      </field>
    </field>
    <field name="dns.response_to" showname="Request In: 21" size="0" pos="62" show="21"/>
    <field name="dns.time" showname="Time: 0.000697000 seconds" size="0" pos="62" show="0.000697000"/>
  </proto>
</packet>


<packet>
  <proto name="geninfo" pos="0" showname="General information" size="103">
    <field name="num" pos="0" show="23" showname="Number" value="17" size="103"/>
    <field name="len" pos="0" show="103" showname="Frame Length" value="67" size="103"/>
    <field name="caplen" pos="0" show="103" showname="Captured Length" value="67" size="103"/>
    <field name="timestamp" pos="0" show="Sep  5, 2019 18:08:11.317666000 CEST" showname="Captured Time" value="1567699691.317666000" size="103"/>
  </proto>
  <proto name="frame" showname="Frame 23: 103 bytes on wire (824 bits), 103 bytes captured (824 bits)" size="103" pos="0">
    <field name="filtered" value="frame" />
  </proto>
  <proto name="eth" showname="Ethernet II, Src: 68:5b:35:ad:aa:e1, Dst: 00:1b:21:38:e9:78" size="14" pos="0">
    <field name="filtered" value="eth" />
  </proto>
  <proto name="ipv6" showname="Internet Protocol Version 6, Src: 2001:6a8:308f:2:f1f3:2f2f:397c:1cb5, Dst: 2001:6a8:308f:1::d" size="40" pos="14">
    <field name="filtered" value="ipv6" />
  </proto>
  <proto name="udp" showname="User Datagram Protocol, Src Port: 64113, Dst Port: 53" size="8" pos="54">
    <field name="filtered" value="udp" />
  </proto>
  <proto name="dns" showname="Domain Name System (query)" size="41" pos="62">
    <field name="dns.id" showname="Transaction ID: 0xefe8" size="2" pos="62" show="0x0000efe8" value="efe8"/>
    <field name="dns.flags" showname="Flags: 0x0120 Standard query" size="2" pos="64" show="0x00000120" value="0120">
      <field name="dns.flags.response" showname="0... .... .... .... = Response: Message is a query" size="2" pos="64" show="0" value="0" unmaskedvalue="0120"/>
      <field name="dns.flags.opcode" showname=".000 0... .... .... = Opcode: Standard query (0)" size="2" pos="64" show="0" value="0" unmaskedvalue="0120"/>
      <field name="dns.flags.truncated" showname=".... ..0. .... .... = Truncated: Message is not truncated" size="2" pos="64" show="0" value="0" unmaskedvalue="0120"/>
      <field name="dns.flags.recdesired" showname=".... ...1 .... .... = Recursion desired: Do query recursively" size="2" pos="64" show="1" value="1" unmaskedvalue="0120"/>
      <field name="dns.flags.z" showname=".... .... .0.. .... = Z: reserved (0)" size="2" pos="64" show="0" value="0" unmaskedvalue="0120"/>
      <field name="dns.flags.authenticated" showname=".... .... ..1. .... = AD bit: Set" size="2" pos="64" show="1" value="1" unmaskedvalue="0120"/>
      <field name="dns.flags.checkdisable" showname=".... .... ...0 .... = Non-authenticated data: Unacceptable" size="2" pos="64" show="0" value="0" unmaskedvalue="0120"/>
    </field>
    <field name="dns.count.queries" showname="Questions: 1" size="2" pos="66" show="1" value="0001"/>
    <field name="dns.count.answers" showname="Answer RRs: 0" size="2" pos="68" show="0" value="0000"/>
    <field name="dns.count.auth_rr" showname="Authority RRs: 0" size="2" pos="70" show="0" value="0000"/>
    <field name="dns.count.add_rr" showname="Additional RRs: 0" size="2" pos="72" show="0" value="0000"/>
    <field name="" show="Queries" size="29" pos="74" value="08636e7033626f6f6b04696e666f0375636c02616302626500001c0001">
      <field name="" show="cnp3book.info.ucl.ac.be: type AAAA, class IN" size="29" pos="74" value="08636e7033626f6f6b04696e666f0375636c02616302626500001c0001">
        <field name="dns.qry.name" showname="Name: cnp3book.info.ucl.ac.be" size="25" pos="74" show="cnp3book.info.ucl.ac.be" value="08636e7033626f6f6b04696e666f0375636c02616302626500"/>
        <field name="dns.qry.name.len" showname="Name Length: 23" size="23" pos="74" show="23" value="08636e7033626f6f6b04696e666f0375636c0261630262"/>
        <field name="dns.count.labels" showname="Label Count: 5" size="23" pos="74" show="5" value="08636e7033626f6f6b04696e666f0375636c0261630262"/>
        <field name="dns.qry.type" showname="Type: AAAA (IPv6 Address) (28)" size="2" pos="99" show="28" value="001c"/>
        <field name="dns.qry.class" showname="Class: IN (0x0001)" size="2" pos="101" show="0x00000001" value="0001"/>
      </field>
    </field>
  </proto>
</packet>


<packet>
  <proto name="geninfo" pos="0" showname="General information" size="405">
    <field name="num" pos="0" show="24" showname="Number" value="18" size="405"/>
    <field name="len" pos="0" show="405" showname="Frame Length" value="195" size="405"/>
    <field name="caplen" pos="0" show="405" showname="Captured Length" value="195" size="405"/>
    <field name="timestamp" pos="0" show="Sep  5, 2019 18:08:11.318371000 CEST" showname="Captured Time" value="1567699691.318371000" size="405"/>
  </proto>
  <proto name="frame" showname="Frame 24: 405 bytes on wire (3240 bits), 405 bytes captured (3240 bits)" size="405" pos="0">
    <field name="filtered" value="frame" />
  </proto>
  <proto name="eth" showname="Ethernet II, Src: 00:1b:21:38:e9:78, Dst: 68:5b:35:ad:aa:e1" size="14" pos="0">
    <field name="filtered" value="eth" />
  </proto>
  <proto name="ipv6" showname="Internet Protocol Version 6, Src: 2001:6a8:308f:1::d, Dst: 2001:6a8:308f:2:f1f3:2f2f:397c:1cb5" size="40" pos="14">
    <field name="filtered" value="ipv6" />
  </proto>
  <proto name="udp" showname="User Datagram Protocol, Src Port: 53, Dst Port: 64113" size="8" pos="54">
    <field name="filtered" value="udp" />
  </proto>
  <proto name="dns" showname="Domain Name System (response)" size="343" pos="62">
    <field name="dns.id" showname="Transaction ID: 0xefe8" size="2" pos="62" show="0x0000efe8" value="efe8"/>
    <field name="dns.flags" showname="Flags: 0x8580 Standard query response, No error" size="2" pos="64" show="0x00008580" value="8580">
      <field name="dns.flags.response" showname="1... .... .... .... = Response: Message is a response" size="2" pos="64" show="1" value="1" unmaskedvalue="8580"/>
      <field name="dns.flags.opcode" showname=".000 0... .... .... = Opcode: Standard query (0)" size="2" pos="64" show="0" value="0" unmaskedvalue="8580"/>
      <field name="dns.flags.authoritative" showname=".... .1.. .... .... = Authoritative: Server is an authority for domain" size="2" pos="64" show="1" value="1" unmaskedvalue="8580"/>
      <field name="dns.flags.truncated" showname=".... ..0. .... .... = Truncated: Message is not truncated" size="2" pos="64" show="0" value="0" unmaskedvalue="8580"/>
      <field name="dns.flags.recdesired" showname=".... ...1 .... .... = Recursion desired: Do query recursively" size="2" pos="64" show="1" value="1" unmaskedvalue="8580"/>
      <field name="dns.flags.recavail" showname=".... .... 1... .... = Recursion available: Server can do recursive queries" size="2" pos="64" show="1" value="1" unmaskedvalue="8580"/>
      <field name="dns.flags.z" showname=".... .... .0.. .... = Z: reserved (0)" size="2" pos="64" show="0" value="0" unmaskedvalue="8580"/>
      <field name="dns.flags.authenticated" showname=".... .... ..0. .... = Answer authenticated: Answer/authority portion was not authenticated by the server" size="2" pos="64" show="0" value="0" unmaskedvalue="8580"/>
      <field name="dns.flags.checkdisable" showname=".... .... ...0 .... = Non-authenticated data: Unacceptable" size="2" pos="64" show="0" value="0" unmaskedvalue="8580"/>
      <field name="dns.flags.rcode" showname=".... .... .... 0000 = Reply code: No error (0)" size="2" pos="64" show="0" value="0" unmaskedvalue="8580"/>
    </field>
    <field name="dns.count.queries" showname="Questions: 1" size="2" pos="66" show="1" value="0001"/>
    <field name="dns.count.answers" showname="Answer RRs: 2" size="2" pos="68" show="2" value="0002"/>
    <field name="dns.count.auth_rr" showname="Authority RRs: 4" size="2" pos="70" show="4" value="0004"/>
    <field name="dns.count.add_rr" showname="Additional RRs: 8" size="2" pos="72" show="8" value="0008"/>
    <field name="" show="Queries" size="29" pos="74" value="08636e7033626f6f6b04696e666f0375636c02616302626500001c0001">
      <field name="" show="cnp3book.info.ucl.ac.be: type AAAA, class IN" size="29" pos="74" value="08636e7033626f6f6b04696e666f0375636c02616302626500001c0001">
        <field name="dns.qry.name" showname="Name: cnp3book.info.ucl.ac.be" size="25" pos="74" show="cnp3book.info.ucl.ac.be" value="08636e7033626f6f6b04696e666f0375636c02616302626500"/>
        <field name="dns.qry.name.len" showname="Name Length: 23" size="23" pos="74" show="23" value="08636e7033626f6f6b04696e666f0375636c0261630262"/>
        <field name="dns.count.labels" showname="Label Count: 5" size="23" pos="74" show="5" value="08636e7033626f6f6b04696e666f0375636c0261630262"/>
        <field name="dns.qry.type" showname="Type: AAAA (IPv6 Address) (28)" size="2" pos="99" show="28" value="001c"/>
        <field name="dns.qry.class" showname="Class: IN (0x0001)" size="2" pos="101" show="0x00000001" value="0001"/>
      </field>
    </field>
    <field name="" show="Answers" size="47" pos="103" value="c00c0005000100001c20000704636e7033c015c035001c000100001c200010200106a8308f0008000082fffe68e48c">
      <field name="" show="cnp3book.info.ucl.ac.be: type CNAME, class IN, cname cnp3.info.ucl.ac.be" size="19" pos="103" value="c00c0005000100001c20000704636e7033c015">
        <field name="dns.resp.name" showname="Name: cnp3book.info.ucl.ac.be" size="2" pos="103" show="cnp3book.info.ucl.ac.be" value="c00c"/>
        <field name="dns.resp.type" showname="Type: CNAME (Canonical NAME for an alias) (5)" size="2" pos="105" show="5" value="0005"/>
        <field name="dns.resp.class" showname="Class: IN (0x0001)" size="2" pos="107" show="0x00000001" value="0001"/>
        <field name="dns.resp.ttl" showname="Time to live: 7200" size="4" pos="109" show="7200" value="00001c20"/>
        <field name="dns.resp.len" showname="Data length: 7" size="2" pos="113" show="7" value="0007"/>
        <field name="dns.cname" showname="CNAME: cnp3.info.ucl.ac.be" size="7" pos="115" show="cnp3.info.ucl.ac.be" value="04636e7033c015"/>
      </field>
      <field name="" show="cnp3.info.ucl.ac.be: type AAAA, class IN, addr 2001:6a8:308f:8::82ff:fe68:e48c" size="28" pos="122" value="c035001c000100001c200010200106a8308f0008000082fffe68e48c">
        <field name="dns.resp.name" showname="Name: cnp3.info.ucl.ac.be" size="2" pos="122" show="cnp3.info.ucl.ac.be" value="c035"/>
        <field name="dns.resp.type" showname="Type: AAAA (IPv6 Address) (28)" size="2" pos="124" show="28" value="001c"/>
        <field name="dns.resp.class" showname="Class: IN (0x0001)" size="2" pos="126" show="0x00000001" value="0001"/>
        <field name="dns.resp.ttl" showname="Time to live: 7200" size="4" pos="128" show="7200" value="00001c20"/>
        <field name="dns.resp.len" showname="Data length: 16" size="2" pos="132" show="16" value="0010"/>
        <field name="dns.aaaa" showname="AAAA Address: 2001:6a8:308f:8::82ff:fe68:e48c" size="16" pos="134" show="2001:6a8:308f:8::82ff:fe68:e48c" value="200106a8308f0008000082fffe68e48c"/>
      </field>
    </field>
    <field name="" show="Authoritative nameservers" size="79" pos="150" value="c0150002000100015180000a036e733203737269c01ac0150002000100015180000906646e73737276c015c01500020001000151800006036e7333c068c01500020001000151800006036e7331c068">
      <field name="" show="info.ucl.ac.be: type NS, class IN, ns ns2.sri.ucl.ac.be" size="22" pos="150" value="c0150002000100015180000a036e733203737269c01a">
        <field name="dns.resp.name" showname="Name: info.ucl.ac.be" size="2" pos="150" show="info.ucl.ac.be" value="c015"/>
        <field name="dns.resp.type" showname="Type: NS (authoritative Name Server) (2)" size="2" pos="152" show="2" value="0002"/>
        <field name="dns.resp.class" showname="Class: IN (0x0001)" size="2" pos="154" show="0x00000001" value="0001"/>
        <field name="dns.resp.ttl" showname="Time to live: 86400" size="4" pos="156" show="86400" value="00015180"/>
        <field name="dns.resp.len" showname="Data length: 10" size="2" pos="160" show="10" value="000a"/>
        <field name="dns.ns" showname="Name Server: ns2.sri.ucl.ac.be" size="10" pos="162" show="ns2.sri.ucl.ac.be" value="036e733203737269c01a"/>
      </field>
      <field name="" show="info.ucl.ac.be: type NS, class IN, ns dnssrv.info.ucl.ac.be" size="21" pos="172" value="c0150002000100015180000906646e73737276c015">
        <field name="dns.resp.name" showname="Name: info.ucl.ac.be" size="2" pos="172" show="info.ucl.ac.be" value="c015"/>
        <field name="dns.resp.type" showname="Type: NS (authoritative Name Server) (2)" size="2" pos="174" show="2" value="0002"/>
        <field name="dns.resp.class" showname="Class: IN (0x0001)" size="2" pos="176" show="0x00000001" value="0001"/>
        <field name="dns.resp.ttl" showname="Time to live: 86400" size="4" pos="178" show="86400" value="00015180"/>
        <field name="dns.resp.len" showname="Data length: 9" size="2" pos="182" show="9" value="0009"/>
        <field name="dns.ns" showname="Name Server: dnssrv.info.ucl.ac.be" size="9" pos="184" show="dnssrv.info.ucl.ac.be" value="06646e73737276c015"/>
      </field>
      <field name="" show="info.ucl.ac.be: type NS, class IN, ns ns3.sri.ucl.ac.be" size="18" pos="193" value="c01500020001000151800006036e7333c068">
        <field name="dns.resp.name" showname="Name: info.ucl.ac.be" size="2" pos="193" show="info.ucl.ac.be" value="c015"/>
        <field name="dns.resp.type" showname="Type: NS (authoritative Name Server) (2)" size="2" pos="195" show="2" value="0002"/>
        <field name="dns.resp.class" showname="Class: IN (0x0001)" size="2" pos="197" show="0x00000001" value="0001"/>
        <field name="dns.resp.ttl" showname="Time to live: 86400" size="4" pos="199" show="86400" value="00015180"/>
        <field name="dns.resp.len" showname="Data length: 6" size="2" pos="203" show="6" value="0006"/>
        <field name="dns.ns" showname="Name Server: ns3.sri.ucl.ac.be" size="6" pos="205" show="ns3.sri.ucl.ac.be" value="036e7333c068"/>
      </field>
      <field name="" show="info.ucl.ac.be: type NS, class IN, ns ns1.sri.ucl.ac.be" size="18" pos="211" value="c01500020001000151800006036e7331c068">
        <field name="dns.resp.name" showname="Name: info.ucl.ac.be" size="2" pos="211" show="info.ucl.ac.be" value="c015"/>
        <field name="dns.resp.type" showname="Type: NS (authoritative Name Server) (2)" size="2" pos="213" show="2" value="0002"/>
        <field name="dns.resp.class" showname="Class: IN (0x0001)" size="2" pos="215" show="0x00000001" value="0001"/>
        <field name="dns.resp.ttl" showname="Time to live: 86400" size="4" pos="217" show="86400" value="00015180"/>
        <field name="dns.resp.len" showname="Data length: 6" size="2" pos="221" show="6" value="0006"/>
        <field name="dns.ns" showname="Name Server: ns1.sri.ucl.ac.be" size="6" pos="223" show="ns1.sri.ucl.ac.be" value="036e7331c068"/>
      </field>
    </field>
    <field name="" show="Additional records" size="176" pos="229" value="c07a0001000100093a8000048268e644c07a001c000100093a800010200106a8308f0001000000000000000dc0a1000100010000e020000482680101c0a1001c00010000e0200010200106a8308100010000000000000053c064000100010000e020000482680102c064001c00010000e0200010200106a8308100020000000000000053c08f000100010000e02000048268fe01c08f001c00010000e0200010200106a8308200010000000000000053">
      <field name="" show="dnssrv.info.ucl.ac.be: type A, class IN, addr 130.104.230.68" size="16" pos="229" value="c07a0001000100093a8000048268e644">
        <field name="dns.resp.name" showname="Name: dnssrv.info.ucl.ac.be" size="2" pos="229" show="dnssrv.info.ucl.ac.be" value="c07a"/>
        <field name="dns.resp.type" showname="Type: A (Host Address) (1)" size="2" pos="231" show="1" value="0001"/>
        <field name="dns.resp.class" showname="Class: IN (0x0001)" size="2" pos="233" show="0x00000001" value="0001"/>
        <field name="dns.resp.ttl" showname="Time to live: 604800" size="4" pos="235" show="604800" value="00093a80"/>
        <field name="dns.resp.len" showname="Data length: 4" size="2" pos="239" show="4" value="0004"/>
        <field name="dns.a" showname="Address: 130.104.230.68" size="4" pos="241" show="130.104.230.68" value="8268e644"/>
      </field>
      <field name="" show="dnssrv.info.ucl.ac.be: type AAAA, class IN, addr 2001:6a8:308f:1::d" size="28" pos="245" value="c07a001c000100093a800010200106a8308f0001000000000000000d">
        <field name="dns.resp.name" showname="Name: dnssrv.info.ucl.ac.be" size="2" pos="245" show="dnssrv.info.ucl.ac.be" value="c07a"/>
        <field name="dns.resp.type" showname="Type: AAAA (IPv6 Address) (28)" size="2" pos="247" show="28" value="001c"/>
        <field name="dns.resp.class" showname="Class: IN (0x0001)" size="2" pos="249" show="0x00000001" value="0001"/>
        <field name="dns.resp.ttl" showname="Time to live: 604800" size="4" pos="251" show="604800" value="00093a80"/>
        <field name="dns.resp.len" showname="Data length: 16" size="2" pos="255" show="16" value="0010"/>
        <field name="dns.aaaa" showname="AAAA Address: 2001:6a8:308f:1::d" size="16" pos="257" show="2001:6a8:308f:1::d" value="200106a8308f0001000000000000000d"/>
      </field>
      <field name="" show="ns1.sri.ucl.ac.be: type A, class IN, addr 130.104.1.1" size="16" pos="273" value="c0a1000100010000e020000482680101">
        <field name="dns.resp.name" showname="Name: ns1.sri.ucl.ac.be" size="2" pos="273" show="ns1.sri.ucl.ac.be" value="c0a1"/>
        <field name="dns.resp.type" showname="Type: A (Host Address) (1)" size="2" pos="275" show="1" value="0001"/>
        <field name="dns.resp.class" showname="Class: IN (0x0001)" size="2" pos="277" show="0x00000001" value="0001"/>
        <field name="dns.resp.ttl" showname="Time to live: 57376" size="4" pos="279" show="57376" value="0000e020"/>
        <field name="dns.resp.len" showname="Data length: 4" size="2" pos="283" show="4" value="0004"/>
        <field name="dns.a" showname="Address: 130.104.1.1" size="4" pos="285" show="130.104.1.1" value="82680101"/>
      </field>
      <field name="" show="ns1.sri.ucl.ac.be: type AAAA, class IN, addr 2001:6a8:3081:1::53" size="28" pos="289" value="c0a1001c00010000e0200010200106a8308100010000000000000053">
        <field name="dns.resp.name" showname="Name: ns1.sri.ucl.ac.be" size="2" pos="289" show="ns1.sri.ucl.ac.be" value="c0a1"/>
        <field name="dns.resp.type" showname="Type: AAAA (IPv6 Address) (28)" size="2" pos="291" show="28" value="001c"/>
        <field name="dns.resp.class" showname="Class: IN (0x0001)" size="2" pos="293" show="0x00000001" value="0001"/>
        <field name="dns.resp.ttl" showname="Time to live: 57376" size="4" pos="295" show="57376" value="0000e020"/>
        <field name="dns.resp.len" showname="Data length: 16" size="2" pos="299" show="16" value="0010"/>
        <field name="dns.aaaa" showname="AAAA Address: 2001:6a8:3081:1::53" size="16" pos="301" show="2001:6a8:3081:1::53" value="200106a8308100010000000000000053"/>
      </field>
      <field name="" show="ns2.sri.ucl.ac.be: type A, class IN, addr 130.104.1.2" size="16" pos="317" value="c064000100010000e020000482680102">
        <field name="dns.resp.name" showname="Name: ns2.sri.ucl.ac.be" size="2" pos="317" show="ns2.sri.ucl.ac.be" value="c064"/>
        <field name="dns.resp.type" showname="Type: A (Host Address) (1)" size="2" pos="319" show="1" value="0001"/>
        <field name="dns.resp.class" showname="Class: IN (0x0001)" size="2" pos="321" show="0x00000001" value="0001"/>
        <field name="dns.resp.ttl" showname="Time to live: 57376" size="4" pos="323" show="57376" value="0000e020"/>
        <field name="dns.resp.len" showname="Data length: 4" size="2" pos="327" show="4" value="0004"/>
        <field name="dns.a" showname="Address: 130.104.1.2" size="4" pos="329" show="130.104.1.2" value="82680102"/>
      </field>
      <field name="" show="ns2.sri.ucl.ac.be: type AAAA, class IN, addr 2001:6a8:3081:2::53" size="28" pos="333" value="c064001c00010000e0200010200106a8308100020000000000000053">
        <field name="dns.resp.name" showname="Name: ns2.sri.ucl.ac.be" size="2" pos="333" show="ns2.sri.ucl.ac.be" value="c064"/>
        <field name="dns.resp.type" showname="Type: AAAA (IPv6 Address) (28)" size="2" pos="335" show="28" value="001c"/>
        <field name="dns.resp.class" showname="Class: IN (0x0001)" size="2" pos="337" show="0x00000001" value="0001"/>
        <field name="dns.resp.ttl" showname="Time to live: 57376" size="4" pos="339" show="57376" value="0000e020"/>
        <field name="dns.resp.len" showname="Data length: 16" size="2" pos="343" show="16" value="0010"/>
        <field name="dns.aaaa" showname="AAAA Address: 2001:6a8:3081:2::53" size="16" pos="345" show="2001:6a8:3081:2::53" value="200106a8308100020000000000000053"/>
      </field>
      <field name="" show="ns3.sri.ucl.ac.be: type A, class IN, addr 130.104.254.1" size="16" pos="361" value="c08f000100010000e02000048268fe01">
        <field name="dns.resp.name" showname="Name: ns3.sri.ucl.ac.be" size="2" pos="361" show="ns3.sri.ucl.ac.be" value="c08f"/>
        <field name="dns.resp.type" showname="Type: A (Host Address) (1)" size="2" pos="363" show="1" value="0001"/>
        <field name="dns.resp.class" showname="Class: IN (0x0001)" size="2" pos="365" show="0x00000001" value="0001"/>
        <field name="dns.resp.ttl" showname="Time to live: 57376" size="4" pos="367" show="57376" value="0000e020"/>
        <field name="dns.resp.len" showname="Data length: 4" size="2" pos="371" show="4" value="0004"/>
        <field name="dns.a" showname="Address: 130.104.254.1" size="4" pos="373" show="130.104.254.1" value="8268fe01"/>
      </field>
      <field name="" show="ns3.sri.ucl.ac.be: type AAAA, class IN, addr 2001:6a8:3082:1::53" size="28" pos="377" value="c08f001c00010000e0200010200106a8308200010000000000000053">
        <field name="dns.resp.name" showname="Name: ns3.sri.ucl.ac.be" size="2" pos="377" show="ns3.sri.ucl.ac.be" value="c08f"/>
        <field name="dns.resp.type" showname="Type: AAAA (IPv6 Address) (28)" size="2" pos="379" show="28" value="001c"/>
        <field name="dns.resp.class" showname="Class: IN (0x0001)" size="2" pos="381" show="0x00000001" value="0001"/>
        <field name="dns.resp.ttl" showname="Time to live: 57376" size="4" pos="383" show="57376" value="0000e020"/>
        <field name="dns.resp.len" showname="Data length: 16" size="2" pos="387" show="16" value="0010"/>
        <field name="dns.aaaa" showname="AAAA Address: 2001:6a8:3082:1::53" size="16" pos="389" show="2001:6a8:3082:1::53" value="200106a8308200010000000000000053"/>
      </field>
    </field>
    <field name="dns.response_to" showname="Request In: 23" size="0" pos="62" show="23"/>
    <field name="dns.time" showname="Time: 0.000705000 seconds" size="0" pos="62" show="0.000705000"/>
  </proto>
</packet>


</pdml>
