<?xml version="1.0" encoding="utf-8"?>
<?xml-stylesheet type="text/xsl" href="pdml2html.xsl"?>
<!-- You can find pdml2html.xsl in /Applications/Wireshark.app/Contents/Resources/share/wireshark or at https://code.wireshark.org/review/gitweb?p=wireshark.git;a=blob_plain;f=pdml2html.xsl. -->
<pdml version="0" creator="wireshark/3.0.1" time="Thu May 16 17:44:42 2019" capture_file="ip6-ping6-frag-161-165.pcap">
<packet>
  <proto name="geninfo" pos="0" showname="General information" size="1294">
    <field name="num" pos="0" show="1" showname="Number" value="1" size="1294"/>
    <field name="len" pos="0" show="1294" showname="Frame Length" value="50e" size="1294"/>
    <field name="caplen" pos="0" show="1294" showname="Captured Length" value="50e" size="1294"/>
    <field name="timestamp" pos="0" show="Nov 21, 2018 21:09:13.851131000 CET" showname="Captured Time" value="1542830953.851131000" size="1294"/>
  </proto>
  <proto name="frame" showname="Frame 1: 1294 bytes on wire (10352 bits), 1294 bytes captured (10352 bits)" size="1294" pos="0">
    <field name="filtered" value="frame" />
  </proto>
  <proto name="eth" showname="Ethernet II, Src: 3c:15:c2:e4:46:44, Dst: a0:21:b7:d8:aa:90" size="14" pos="0">
    <field name="filtered" value="eth" />
  </proto>
  <proto name="ipv6" showname="Internet Protocol Version 6, Src: 2a02:2788:484:59e:2c1c:849e:f74f:e233, Dst: 2001:41d0:a:ffcf::1" size="48" pos="14">
    <field name="ipv6.version" showname="0110 .... = Version: 6" size="1" pos="14" show="6" value="6" unmaskedvalue="60"/>
    <field name="ip.version" showname="0110 .... = Version: 6 [This field makes the filter match on &quot;ip.version == 6&quot; possible]" hide="yes" size="1" pos="14" show="6" value="6" unmaskedvalue="60"/>
    <field name="ipv6.tclass" showname=".... 0000 0000 .... .... .... .... .... = Traffic Class: 0x00 (DSCP: CS0, ECN: Not-ECT)" size="4" pos="14" show="0x00000000" value="0" unmaskedvalue="60051496">
      <field name="ipv6.tclass.dscp" showname=".... 0000 00.. .... .... .... .... .... = Differentiated Services Codepoint: Default (0)" size="4" pos="14" show="0" value="0" unmaskedvalue="60051496"/>
      <field name="ipv6.tclass.ecn" showname=".... .... ..00 .... .... .... .... .... = Explicit Congestion Notification: Not ECN-Capable Transport (0)" size="4" pos="14" show="0" value="0" unmaskedvalue="60051496"/>
    </field>
    <field name="ipv6.flow" showname=".... .... .... 0101 0001 0100 1001 0110 = Flow Label: 0x51496" size="4" pos="14" show="0x00051496" value="51496" unmaskedvalue="60051496"/>
    <field name="ipv6.plen" showname="Payload Length: 1240" size="2" pos="18" show="1240" value="04d8"/>
    <field name="ipv6.nxt" showname="Next Header: Fragment Header for IPv6 (44)" size="1" pos="20" show="44" value="2c"/>
    <field name="ipv6.hlim" showname="Hop Limit: 64" size="1" pos="21" show="64" value="40"/>
    <field name="ipv6.src" showname="Source: 2a02:2788:484:59e:2c1c:849e:f74f:e233" size="16" pos="22" show="2a02:2788:484:59e:2c1c:849e:f74f:e233" value="2a0227880484059e2c1c849ef74fe233"/>
    <field name="ipv6.addr" showname="Source or Destination Address: 2a02:2788:484:59e:2c1c:849e:f74f:e233" hide="yes" size="16" pos="22" show="2a02:2788:484:59e:2c1c:849e:f74f:e233" value="2a0227880484059e2c1c849ef74fe233"/>
    <field name="ipv6.src_host" showname="Source Host: 2a02:2788:484:59e:2c1c:849e:f74f:e233" hide="yes" size="16" pos="22" show="2a02:2788:484:59e:2c1c:849e:f74f:e233" value="2a0227880484059e2c1c849ef74fe233"/>
    <field name="ipv6.host" showname="Source or Destination Host: 2a02:2788:484:59e:2c1c:849e:f74f:e233" hide="yes" size="16" pos="22" show="2a02:2788:484:59e:2c1c:849e:f74f:e233" value="2a0227880484059e2c1c849ef74fe233"/>
    <field name="ipv6.dst" showname="Destination: 2001:41d0:a:ffcf::1" size="16" pos="38" show="2001:41d0:a:ffcf::1" value="200141d0000affcf0000000000000001"/>
    <field name="ipv6.addr" showname="Source or Destination Address: 2001:41d0:a:ffcf::1" hide="yes" size="16" pos="38" show="2001:41d0:a:ffcf::1" value="200141d0000affcf0000000000000001"/>
    <field name="ipv6.dst_host" showname="Destination Host: 2001:41d0:a:ffcf::1" hide="yes" size="16" pos="38" show="2001:41d0:a:ffcf::1" value="200141d0000affcf0000000000000001"/>
    <field name="ipv6.host" showname="Source or Destination Host: 2001:41d0:a:ffcf::1" hide="yes" size="16" pos="38" show="2001:41d0:a:ffcf::1" value="200141d0000affcf0000000000000001"/>
    <proto name="ipv6.fraghdr" showname="Fragment Header for IPv6" size="8" pos="54">
      <field name="ipv6.fraghdr.nxt" showname="Next header: ICMPv6 (58)" size="1" pos="54" show="58" value="3a"/>
      <field name="ipv6.fraghdr.reserved_octet" showname="Reserved octet: 0x00" size="1" pos="55" show="0x00000000" value="00"/>
      <field name="ipv6.fraghdr.offset" showname="0000 0000 0000 0... = Offset: 0 (0 bytes)" size="2" pos="56" show="0" value="0" unmaskedvalue="0001"/>
      <field name="ipv6.fraghdr.reserved_bits" showname=".... .... .... .00. = Reserved bits: 0" size="2" pos="56" show="0" value="0" unmaskedvalue="0001"/>
      <field name="ipv6.fraghdr.more" showname=".... .... .... ...1 = More Fragments: Yes" size="2" pos="56" show="1" value="1" unmaskedvalue="0001"/>
      <field name="ipv6.fraghdr.ident" showname="Identification: 0xbc89d016" size="4" pos="58" show="0xbc89d016" value="bc89d016"/>
    </proto>
  </proto>
  <proto name="icmpv6" showname="Internet Control Message Protocol v6" size="1232" pos="62">
    <field name="icmpv6.type" showname="Type: Echo (ping) request (128)" size="1" pos="62" show="128" value="80"/>
    <field name="icmpv6.code" showname="Code: 0" size="1" pos="63" show="0" value="00"/>
    <field name="icmpv6.checksum" showname="Checksum: 0x7d20 [unverified] [fragmented datagram]" size="2" pos="64" show="0x00007d20" value="7d20"/>
    <field name="icmpv6.checksum.status" showname="Checksum Status: Unverified" size="0" pos="64" show="2"/>
    <field name="icmpv6.echo.identifier" showname="Identifier: 0x7cf4" size="2" pos="66" show="0x00007cf4" value="7cf4"/>
    <field name="icmpv6.echo.sequence_number" showname="Sequence: 2" size="2" pos="68" show="2" value="0002"/>
    <field name="data" value="5bf5bb69000cfc4e08090a0b0c0d0e0f101112131415161718191a1b1c1d1e1f202122232425262728292a2b2c2d2e2f303132333435363738393a3b3c3d3e3f404142434445464748494a4b4c4d4e4f505152535455565758595a5b5c5d5e5f606162636465666768696a6b6c6d6e6f707172737475767778797a7b7c7d7e7f808182838485868788898a8b8c8d8e8f909192939495969798999a9b9c9d9e9fa0a1a2a3a4a5a6a7a8a9aaabacadaeafb0b1b2b3b4b5b6b7b8b9babbbcbdbebfc0c1c2c3c4c5c6c7c8c9cacbcccdcecfd0d1d2d3d4d5d6d7d8d9dadbdcdddedfe0e1e2e3e4e5e6e7e8e9eaebecedeeeff0f1f2f3f4f5f6f7f8f9fafbfcfdfeff000102030405060708090a0b0c0d0e0f101112131415161718191a1b1c1d1e1f202122232425262728292a2b2c2d2e2f303132333435363738393a3b3c3d3e3f404142434445464748494a4b4c4d4e4f505152535455565758595a5b5c5d5e5f606162636465666768696a6b6c6d6e6f707172737475767778797a7b7c7d7e7f808182838485868788898a8b8c8d8e8f909192939495969798999a9b9c9d9e9fa0a1a2a3a4a5a6a7a8a9aaabacadaeafb0b1b2b3b4b5b6b7b8b9babbbcbdbebfc0c1c2c3c4c5c6c7c8c9cacbcccdcecfd0d1d2d3d4d5d6d7d8d9dadbdcdddedfe0e1e2e3e4e5e6e7e8e9eaebecedeeeff0f1f2f3f4f5f6f7f8f9fafbfcfdfeff000102030405060708090a0b0c0d0e0f101112131415161718191a1b1c1d1e1f202122232425262728292a2b2c2d2e2f303132333435363738393a3b3c3d3e3f404142434445464748494a4b4c4d4e4f505152535455565758595a5b5c5d5e5f606162636465666768696a6b6c6d6e6f707172737475767778797a7b7c7d7e7f808182838485868788898a8b8c8d8e8f909192939495969798999a9b9c9d9e9fa0a1a2a3a4a5a6a7a8a9aaabacadaeafb0b1b2b3b4b5b6b7b8b9babbbcbdbebfc0c1c2c3c4c5c6c7c8c9cacbcccdcecfd0d1d2d3d4d5d6d7d8d9dadbdcdddedfe0e1e2e3e4e5e6e7e8e9eaebecedeeeff0f1f2f3f4f5f6f7f8f9fafbfcfdfeff000102030405060708090a0b0c0d0e0f101112131415161718191a1b1c1d1e1f202122232425262728292a2b2c2d2e2f303132333435363738393a3b3c3d3e3f404142434445464748494a4b4c4d4e4f505152535455565758595a5b5c5d5e5f606162636465666768696a6b6c6d6e6f707172737475767778797a7b7c7d7e7f808182838485868788898a8b8c8d8e8f909192939495969798999a9b9c9d9e9fa0a1a2a3a4a5a6a7a8a9aaabacadaeafb0b1b2b3b4b5b6b7b8b9babbbcbdbebfc0c1c2c3c4c5c6c7c8c9cacbcccdcecfd0d1d2d3d4d5d6d7d8d9dadbdcdddedfe0e1e2e3e4e5e6e7e8e9eaebecedeeeff0f1f2f3f4f5f6f7f8f9fafbfcfdfeff000102030405060708090a0b0c0d0e0f101112131415161718191a1b1c1d1e1f202122232425262728292a2b2c2d2e2f303132333435363738393a3b3c3d3e3f404142434445464748494a4b4c4d4e4f505152535455565758595a5b5c5d5e5f606162636465666768696a6b6c6d6e6f707172737475767778797a7b7c7d7e7f808182838485868788898a8b8c8d8e8f909192939495969798999a9b9c9d9e9fa0a1a2a3a4a5a6a7a8a9aaabacadaeafb0b1b2b3b4b5b6b7b8b9babbbcbdbebfc0c1c2c3c4c5c6c7">
      <field name="data.data" showname="Data: 5bf5bb69000cfc4e08090a0b0c0d0e0f1011121314151617\xe2\x80\xa6" size="1224" pos="70" show="5b:f5:bb:69:00:0c:fc:4e:08:09:0a:0b:0c:0d:0e:0f:10:11:12:13:14:15:16:17:18:19:1a:1b:1c:1d:1e:1f:20:21:22:23:24:25:26:27:28:29:2a:2b:2c:2d:2e:2f:30:31:32:33:34:35:36:37:38:39:3a:3b:3c:3d:3e:3f:40:41:42:43:44:45:46:47:48:49:4a:4b:4c:4d:4e:4f:50:51:52:53:54:55:56:57:58:59:5a:5b:5c:5d:5e:5f:60:61:62:63:64:65:66:67:68:69:6a:6b:6c:6d:6e:6f:70:71:72:73:74:75:76:77:78:79:7a:7b:7c:7d:7e:7f:80:81:82:83:84:85:86:87:88:89:8a:8b:8c:8d:8e:8f:90:91:92:93:94:95:96:97:98:99:9a:9b:9c:9d:9e:9f:a0:a1:a2:a3:a4:a5:a6:a7:a8:a9:aa:ab:ac:ad:ae:af:b0:b1:b2:b3:b4:b5:b6:b7:b8:b9:ba:bb:bc:bd:be:bf:c0:c1:c2:c3:c4:c5:c6:c7:c8:c9:ca:cb:cc:cd:ce:cf:d0:d1:d2:d3:d4:d5:d6:d7:d8:d9:da:db:dc:dd:de:df:e0:e1:e2:e3:e4:e5:e6:e7:e8:e9:ea:eb:ec:ed:ee:ef:f0:f1:f2:f3:f4:f5:f6:f7:f8:f9:fa:fb:fc:fd:fe:ff:00:01:02:03:04:05:06:07:08:09:0a:0b:0c:0d:0e:0f:10:11:12:13:14:15:16:17:18:19:1a:1b:1c:1d:1e:1f:20:21:22:23:24:25:26:27:28:29:2a:2b:2c:2d:2e:2f:30:31:32:33:34:35:36:37:38:39:3a:3b:3c:3d:3e:3f:40:41:42:43:44:45:46:47:48:49:4a:4b:4c:4d:4e:4f:50:51:52:53:54:55:56:57:58:59:5a:5b:5c:5d:5e:5f:60:61:62:63:64:65:66:67:68:69:6a:6b:6c:6d:6e:6f:70:71:72:73:74:75:76:77:78:79:7a:7b:7c:7d:7e:7f:80:81:82:83:84:85:86:87:88:89:8a:8b:8c:8d:8e:8f:90:91:92:93:94:95:96:97:98:99:9a:9b:9c:9d:9e:9f:a0:a1:a2:a3:a4:a5:a6:a7:a8:a9:aa:ab:ac:ad:ae:af:b0:b1:b2:b3:b4:b5:b6:b7:b8:b9:ba:bb:bc:bd:be:bf:c0:c1:c2:c3:c4:c5:c6:c7:c8:c9:ca:cb:cc:cd:ce:cf:d0:d1:d2:d3:d4:d5:d6:d7:d8:d9:da:db:dc:dd:de:df:e0:e1:e2:e3:e4:e5:e6:e7:e8:e9:ea:eb:ec:ed:ee:ef:f0:f1:f2:f3:f4:f5:f6:f7:f8:f9:fa:fb:fc:fd:fe:ff:00:01:02:03:04:05:06:07:08:09:0a:0b:0c:0d:0e:0f:10:11:12:13:14:15:16:17:18:19:1a:1b:1c:1d:1e:1f:20:21:22:23:24:25:26:27:28:29:2a:2b:2c:2d:2e:2f:30:31:32:33:34:35:36:37:38:39:3a:3b:3c:3d:3e:3f:40:41:42:43:44:45:46:47:48:49:4a:4b:4c:4d:4e:4f:50:51:52:53:54:55:56:57:58:59:5a:5b:5c:5d:5e:5f:60:61:62:63:64:65:66:67:68:69:6a:6b:6c:6d:6e:6f:70:71:72:73:74:75:76:77:78:79:7a:7b:7c:7d:7e:7f:80:81:82:83:84:85:86:87:88:89:8a:8b:8c:8d:8e:8f:90:91:92:93:94:95:96:97:98:99:9a:9b:9c:9d:9e:9f:a0:a1:a2:a3:a4:a5:a6:a7:a8:a9:aa:ab:ac:ad:ae:af:b0:b1:b2:b3:b4:b5:b6:b7:b8:b9:ba:bb:bc:bd:be:bf:c0:c1:c2:c3:c4:c5:c6:c7:c8:c9:ca:cb:cc:cd:ce:cf:d0:d1:d2:d3:d4:d5:d6:d7:d8:d9:da:db:dc:dd:de:df:e0:e1:e2:e3:e4:e5:e6:e7:e8:e9:ea:eb:ec:ed:ee:ef:f0:f1:f2:f3:f4:f5:f6:f7:f8:f9:fa:fb:fc:fd:fe:ff:00:01:02:03:04:05:06:07:08:09:0a:0b:0c:0d:0e:0f:10:11:12:13:14:15:16:17:18:19:1a:1b:1c:1d:1e:1f:20:21:22:23:24:25:26:27:28:29:2a:2b:2c:2d:2e:2f:30:31:32:33:34:35:36:37:38:39:3a:3b:3c:3d:3e:3f:40:41:42:43:44:45:46:47:48:49:4a:4b:4c:4d:4e:4f:50:51:52:53:54:55:56:57:58:59:5a:5b:5c:5d:5e:5f:60:61:62:63:64:65:66:67:68:69:6a:6b:6c:6d:6e:6f:70:71:72:73:74:75:76:77:78:79:7a:7b:7c:7d:7e:7f:80:81:82:83:84:85:86:87:88:89:8a:8b:8c:8d:8e:8f:90:91:92:93:94:95:96:97:98:99:9a:9b:9c:9d:9e:9f:a0:a1:a2:a3:a4:a5:a6:a7:a8:a9:aa:ab:ac:ad:ae:af:b0:b1:b2:b3:b4:b5:b6:b7:b8:b9:ba:bb:bc:bd:be:bf:c0:c1:c2:c3:c4:c5:c6:c7:c8:c9:ca:cb:cc:cd:ce:cf:d0:d1:d2:d3:d4:d5:d6:d7:d8:d9:da:db:dc:dd:de:df:e0:e1:e2:e3:e4:e5:e6:e7:e8:e9:ea:eb:ec:ed:ee:ef:f0:f1:f2:f3:f4:f5:f6:f7:f8:f9:fa:fb:fc:fd:fe:ff:00:01:02:03:04:05:06:07:08:09:0a:0b:0c:0d:0e:0f:10:11:12:13:14:15:16:17:18:19:1a:1b:1c:1d:1e:1f:20:21:22:23:24:25:26:27:28:29:2a:2b:2c:2d:2e:2f:30:31:32:33:34:35:36:37:38:39:3a:3b:3c:3d:3e:3f:40:41:42:43:44:45:46:47:48:49:4a:4b:4c:4d:4e:4f:50:51:52:53:54:55:56:57:58:59:5a:5b:5c:5d:5e:5f:60:61:62:63:64:65:66:67:68:69:6a:6b:6c:6d:6e:6f:70:71:72:73:74:75:76:77:78:79:7a:7b:7c:7d:7e:7f:80:81:82:83:84:85:86:87:88:89:8a:8b:8c:8d:8e:8f:90:91:92:93:94:95:96:97:98:99:9a:9b:9c:9d:9e:9f:a0:a1:a2:a3:a4:a5:a6:a7:a8:a9:aa:ab:ac:ad:ae:af:b0:b1:b2:b3:b4:b5:b6:b7:b8:b9:ba:bb:bc:bd:be:bf:c0:c1:c2:c3:c4:c5:c6:c7" value="5bf5bb69000cfc4e08090a0b0c0d0e0f101112131415161718191a1b1c1d1e1f202122232425262728292a2b2c2d2e2f303132333435363738393a3b3c3d3e3f404142434445464748494a4b4c4d4e4f505152535455565758595a5b5c5d5e5f606162636465666768696a6b6c6d6e6f707172737475767778797a7b7c7d7e7f808182838485868788898a8b8c8d8e8f909192939495969798999a9b9c9d9e9fa0a1a2a3a4a5a6a7a8a9aaabacadaeafb0b1b2b3b4b5b6b7b8b9babbbcbdbebfc0c1c2c3c4c5c6c7c8c9cacbcccdcecfd0d1d2d3d4d5d6d7d8d9dadbdcdddedfe0e1e2e3e4e5e6e7e8e9eaebecedeeeff0f1f2f3f4f5f6f7f8f9fafbfcfdfeff000102030405060708090a0b0c0d0e0f101112131415161718191a1b1c1d1e1f202122232425262728292a2b2c2d2e2f303132333435363738393a3b3c3d3e3f404142434445464748494a4b4c4d4e4f505152535455565758595a5b5c5d5e5f606162636465666768696a6b6c6d6e6f707172737475767778797a7b7c7d7e7f808182838485868788898a8b8c8d8e8f909192939495969798999a9b9c9d9e9fa0a1a2a3a4a5a6a7a8a9aaabacadaeafb0b1b2b3b4b5b6b7b8b9babbbcbdbebfc0c1c2c3c4c5c6c7c8c9cacbcccdcecfd0d1d2d3d4d5d6d7d8d9dadbdcdddedfe0e1e2e3e4e5e6e7e8e9eaebecedeeeff0f1f2f3f4f5f6f7f8f9fafbfcfdfeff000102030405060708090a0b0c0d0e0f101112131415161718191a1b1c1d1e1f202122232425262728292a2b2c2d2e2f303132333435363738393a3b3c3d3e3f404142434445464748494a4b4c4d4e4f505152535455565758595a5b5c5d5e5f606162636465666768696a6b6c6d6e6f707172737475767778797a7b7c7d7e7f808182838485868788898a8b8c8d8e8f909192939495969798999a9b9c9d9e9fa0a1a2a3a4a5a6a7a8a9aaabacadaeafb0b1b2b3b4b5b6b7b8b9babbbcbdbebfc0c1c2c3c4c5c6c7c8c9cacbcccdcecfd0d1d2d3d4d5d6d7d8d9dadbdcdddedfe0e1e2e3e4e5e6e7e8e9eaebecedeeeff0f1f2f3f4f5f6f7f8f9fafbfcfdfeff000102030405060708090a0b0c0d0e0f101112131415161718191a1b1c1d1e1f202122232425262728292a2b2c2d2e2f303132333435363738393a3b3c3d3e3f404142434445464748494a4b4c4d4e4f505152535455565758595a5b5c5d5e5f606162636465666768696a6b6c6d6e6f707172737475767778797a7b7c7d7e7f808182838485868788898a8b8c8d8e8f909192939495969798999a9b9c9d9e9fa0a1a2a3a4a5a6a7a8a9aaabacadaeafb0b1b2b3b4b5b6b7b8b9babbbcbdbebfc0c1c2c3c4c5c6c7c8c9cacbcccdcecfd0d1d2d3d4d5d6d7d8d9dadbdcdddedfe0e1e2e3e4e5e6e7e8e9eaebecedeeeff0f1f2f3f4f5f6f7f8f9fafbfcfdfeff000102030405060708090a0b0c0d0e0f101112131415161718191a1b1c1d1e1f202122232425262728292a2b2c2d2e2f303132333435363738393a3b3c3d3e3f404142434445464748494a4b4c4d4e4f505152535455565758595a5b5c5d5e5f606162636465666768696a6b6c6d6e6f707172737475767778797a7b7c7d7e7f808182838485868788898a8b8c8d8e8f909192939495969798999a9b9c9d9e9fa0a1a2a3a4a5a6a7a8a9aaabacadaeafb0b1b2b3b4b5b6b7b8b9babbbcbdbebfc0c1c2c3c4c5c6c7"/>
      <field name="data.len" showname="Length: 1224" size="0" pos="70" show="1224"/>
    </field>
  </proto>
</packet>


<packet>
  <proto name="geninfo" pos="0" showname="General information" size="1294">
    <field name="num" pos="0" show="2" showname="Number" value="2" size="1294"/>
    <field name="len" pos="0" show="1294" showname="Frame Length" value="50e" size="1294"/>
    <field name="caplen" pos="0" show="1294" showname="Captured Length" value="50e" size="1294"/>
    <field name="timestamp" pos="0" show="Nov 21, 2018 21:09:13.851133000 CET" showname="Captured Time" value="1542830953.851133000" size="1294"/>
  </proto>
  <proto name="frame" showname="Frame 2: 1294 bytes on wire (10352 bits), 1294 bytes captured (10352 bits)" size="1294" pos="0">
    <field name="filtered" value="frame" />
  </proto>
  <proto name="eth" showname="Ethernet II, Src: 3c:15:c2:e4:46:44, Dst: a0:21:b7:d8:aa:90" size="14" pos="0">
    <field name="filtered" value="eth" />
  </proto>
  <proto name="ipv6" showname="Internet Protocol Version 6, Src: 2a02:2788:484:59e:2c1c:849e:f74f:e233, Dst: 2001:41d0:a:ffcf::1" size="40" pos="14">
    <field name="ipv6.version" showname="0110 .... = Version: 6" size="1" pos="14" show="6" value="6" unmaskedvalue="60"/>
    <field name="ip.version" showname="0110 .... = Version: 6 [This field makes the filter match on &quot;ip.version == 6&quot; possible]" hide="yes" size="1" pos="14" show="6" value="6" unmaskedvalue="60"/>
    <field name="ipv6.tclass" showname=".... 0000 0000 .... .... .... .... .... = Traffic Class: 0x00 (DSCP: CS0, ECN: Not-ECT)" size="4" pos="14" show="0x00000000" value="0" unmaskedvalue="60051496">
      <field name="ipv6.tclass.dscp" showname=".... 0000 00.. .... .... .... .... .... = Differentiated Services Codepoint: Default (0)" size="4" pos="14" show="0" value="0" unmaskedvalue="60051496"/>
      <field name="ipv6.tclass.ecn" showname=".... .... ..00 .... .... .... .... .... = Explicit Congestion Notification: Not ECN-Capable Transport (0)" size="4" pos="14" show="0" value="0" unmaskedvalue="60051496"/>
    </field>
    <field name="ipv6.flow" showname=".... .... .... 0101 0001 0100 1001 0110 = Flow Label: 0x51496" size="4" pos="14" show="0x00051496" value="51496" unmaskedvalue="60051496"/>
    <field name="ipv6.plen" showname="Payload Length: 1240" size="2" pos="18" show="1240" value="04d8"/>
    <field name="ipv6.nxt" showname="Next Header: Fragment Header for IPv6 (44)" size="1" pos="20" show="44" value="2c"/>
    <field name="ipv6.hlim" showname="Hop Limit: 64" size="1" pos="21" show="64" value="40"/>
    <field name="ipv6.src" showname="Source: 2a02:2788:484:59e:2c1c:849e:f74f:e233" size="16" pos="22" show="2a02:2788:484:59e:2c1c:849e:f74f:e233" value="2a0227880484059e2c1c849ef74fe233"/>
    <field name="ipv6.addr" showname="Source or Destination Address: 2a02:2788:484:59e:2c1c:849e:f74f:e233" hide="yes" size="16" pos="22" show="2a02:2788:484:59e:2c1c:849e:f74f:e233" value="2a0227880484059e2c1c849ef74fe233"/>
    <field name="ipv6.src_host" showname="Source Host: 2a02:2788:484:59e:2c1c:849e:f74f:e233" hide="yes" size="16" pos="22" show="2a02:2788:484:59e:2c1c:849e:f74f:e233" value="2a0227880484059e2c1c849ef74fe233"/>
    <field name="ipv6.host" showname="Source or Destination Host: 2a02:2788:484:59e:2c1c:849e:f74f:e233" hide="yes" size="16" pos="22" show="2a02:2788:484:59e:2c1c:849e:f74f:e233" value="2a0227880484059e2c1c849ef74fe233"/>
    <field name="ipv6.dst" showname="Destination: 2001:41d0:a:ffcf::1" size="16" pos="38" show="2001:41d0:a:ffcf::1" value="200141d0000affcf0000000000000001"/>
    <field name="ipv6.addr" showname="Source or Destination Address: 2001:41d0:a:ffcf::1" hide="yes" size="16" pos="38" show="2001:41d0:a:ffcf::1" value="200141d0000affcf0000000000000001"/>
    <field name="ipv6.dst_host" showname="Destination Host: 2001:41d0:a:ffcf::1" hide="yes" size="16" pos="38" show="2001:41d0:a:ffcf::1" value="200141d0000affcf0000000000000001"/>
    <field name="ipv6.host" showname="Source or Destination Host: 2001:41d0:a:ffcf::1" hide="yes" size="16" pos="38" show="2001:41d0:a:ffcf::1" value="200141d0000affcf0000000000000001"/>
    <proto name="ipv6.fraghdr" showname="Fragment Header for IPv6" size="8" pos="54">
      <field name="ipv6.fraghdr.nxt" showname="Next header: ICMPv6 (58)" size="1" pos="54" show="58" value="3a"/>
      <field name="ipv6.fraghdr.reserved_octet" showname="Reserved octet: 0x00" size="1" pos="55" show="0x00000000" value="00"/>
      <field name="ipv6.fraghdr.offset" showname="0000 0100 1101 0... = Offset: 154 (1232 bytes)" size="2" pos="56" show="154" value="9A" unmaskedvalue="04d1"/>
      <field name="ipv6.fraghdr.reserved_bits" showname=".... .... .... .00. = Reserved bits: 0" size="2" pos="56" show="0" value="0" unmaskedvalue="04d1"/>
      <field name="ipv6.fraghdr.more" showname=".... .... .... ...1 = More Fragments: Yes" size="2" pos="56" show="1" value="1" unmaskedvalue="04d1"/>
      <field name="ipv6.fraghdr.ident" showname="Identification: 0xbc89d016" size="4" pos="58" show="0xbc89d016" value="bc89d016"/>
    </proto>
  </proto>
  <proto name="fake-field-wrapper">
    <field name="data" value="c8c9cacbcccdcecfd0d1d2d3d4d5d6d7d8d9dadbdcdddedfe0e1e2e3e4e5e6e7e8e9eaebecedeeeff0f1f2f3f4f5f6f7f8f9fafbfcfdfeff000102030405060708090a0b0c0d0e0f101112131415161718191a1b1c1d1e1f202122232425262728292a2b2c2d2e2f303132333435363738393a3b3c3d3e3f404142434445464748494a4b4c4d4e4f505152535455565758595a5b5c5d5e5f606162636465666768696a6b6c6d6e6f707172737475767778797a7b7c7d7e7f808182838485868788898a8b8c8d8e8f909192939495969798999a9b9c9d9e9fa0a1a2a3a4a5a6a7a8a9aaabacadaeafb0b1b2b3b4b5b6b7b8b9babbbcbdbebfc0c1c2c3c4c5c6c7c8c9cacbcccdcecfd0d1d2d3d4d5d6d7d8d9dadbdcdddedfe0e1e2e3e4e5e6e7e8e9eaebecedeeeff0f1f2f3f4f5f6f7f8f9fafbfcfdfeff000102030405060708090a0b0c0d0e0f101112131415161718191a1b1c1d1e1f202122232425262728292a2b2c2d2e2f303132333435363738393a3b3c3d3e3f404142434445464748494a4b4c4d4e4f505152535455565758595a5b5c5d5e5f606162636465666768696a6b6c6d6e6f707172737475767778797a7b7c7d7e7f808182838485868788898a8b8c8d8e8f909192939495969798999a9b9c9d9e9fa0a1a2a3a4a5a6a7a8a9aaabacadaeafb0b1b2b3b4b5b6b7b8b9babbbcbdbebfc0c1c2c3c4c5c6c7c8c9cacbcccdcecfd0d1d2d3d4d5d6d7d8d9dadbdcdddedfe0e1e2e3e4e5e6e7e8e9eaebecedeeeff0f1f2f3f4f5f6f7f8f9fafbfcfdfeff000102030405060708090a0b0c0d0e0f101112131415161718191a1b1c1d1e1f202122232425262728292a2b2c2d2e2f303132333435363738393a3b3c3d3e3f404142434445464748494a4b4c4d4e4f505152535455565758595a5b5c5d5e5f606162636465666768696a6b6c6d6e6f707172737475767778797a7b7c7d7e7f808182838485868788898a8b8c8d8e8f909192939495969798999a9b9c9d9e9fa0a1a2a3a4a5a6a7a8a9aaabacadaeafb0b1b2b3b4b5b6b7b8b9babbbcbdbebfc0c1c2c3c4c5c6c7c8c9cacbcccdcecfd0d1d2d3d4d5d6d7d8d9dadbdcdddedfe0e1e2e3e4e5e6e7e8e9eaebecedeeeff0f1f2f3f4f5f6f7f8f9fafbfcfdfeff000102030405060708090a0b0c0d0e0f101112131415161718191a1b1c1d1e1f202122232425262728292a2b2c2d2e2f303132333435363738393a3b3c3d3e3f404142434445464748494a4b4c4d4e4f505152535455565758595a5b5c5d5e5f606162636465666768696a6b6c6d6e6f707172737475767778797a7b7c7d7e7f808182838485868788898a8b8c8d8e8f909192939495969798999a9b9c9d9e9fa0a1a2a3a4a5a6a7a8a9aaabacadaeafb0b1b2b3b4b5b6b7b8b9babbbcbdbebfc0c1c2c3c4c5c6c7c8c9cacbcccdcecfd0d1d2d3d4d5d6d7d8d9dadbdcdddedfe0e1e2e3e4e5e6e7e8e9eaebecedeeeff0f1f2f3f4f5f6f7f8f9fafbfcfdfeff000102030405060708090a0b0c0d0e0f101112131415161718191a1b1c1d1e1f202122232425262728292a2b2c2d2e2f303132333435363738393a3b3c3d3e3f404142434445464748494a4b4c4d4e4f505152535455565758595a5b5c5d5e5f606162636465666768696a6b6c6d6e6f707172737475767778797a7b7c7d7e7f808182838485868788898a8b8c8d8e8f9091929394959697">
      <field name="filtered" value="data" />
  </field>
  </proto>
</packet>


<packet>
  <proto name="geninfo" pos="0" showname="General information" size="1294">
    <field name="num" pos="0" show="3" showname="Number" value="3" size="1294"/>
    <field name="len" pos="0" show="1294" showname="Frame Length" value="50e" size="1294"/>
    <field name="caplen" pos="0" show="1294" showname="Captured Length" value="50e" size="1294"/>
    <field name="timestamp" pos="0" show="Nov 21, 2018 21:09:13.851133000 CET" showname="Captured Time" value="1542830953.851133000" size="1294"/>
  </proto>
  <proto name="frame" showname="Frame 3: 1294 bytes on wire (10352 bits), 1294 bytes captured (10352 bits)" size="1294" pos="0">
    <field name="filtered" value="frame" />
  </proto>
  <proto name="eth" showname="Ethernet II, Src: 3c:15:c2:e4:46:44, Dst: a0:21:b7:d8:aa:90" size="14" pos="0">
    <field name="filtered" value="eth" />
  </proto>
  <proto name="ipv6" showname="Internet Protocol Version 6, Src: 2a02:2788:484:59e:2c1c:849e:f74f:e233, Dst: 2001:41d0:a:ffcf::1" size="40" pos="14">
    <field name="ipv6.version" showname="0110 .... = Version: 6" size="1" pos="14" show="6" value="6" unmaskedvalue="60"/>
    <field name="ip.version" showname="0110 .... = Version: 6 [This field makes the filter match on &quot;ip.version == 6&quot; possible]" hide="yes" size="1" pos="14" show="6" value="6" unmaskedvalue="60"/>
    <field name="ipv6.tclass" showname=".... 0000 0000 .... .... .... .... .... = Traffic Class: 0x00 (DSCP: CS0, ECN: Not-ECT)" size="4" pos="14" show="0x00000000" value="0" unmaskedvalue="60051496">
      <field name="ipv6.tclass.dscp" showname=".... 0000 00.. .... .... .... .... .... = Differentiated Services Codepoint: Default (0)" size="4" pos="14" show="0" value="0" unmaskedvalue="60051496"/>
      <field name="ipv6.tclass.ecn" showname=".... .... ..00 .... .... .... .... .... = Explicit Congestion Notification: Not ECN-Capable Transport (0)" size="4" pos="14" show="0" value="0" unmaskedvalue="60051496"/>
    </field>
    <field name="ipv6.flow" showname=".... .... .... 0101 0001 0100 1001 0110 = Flow Label: 0x51496" size="4" pos="14" show="0x00051496" value="51496" unmaskedvalue="60051496"/>
    <field name="ipv6.plen" showname="Payload Length: 1240" size="2" pos="18" show="1240" value="04d8"/>
    <field name="ipv6.nxt" showname="Next Header: Fragment Header for IPv6 (44)" size="1" pos="20" show="44" value="2c"/>
    <field name="ipv6.hlim" showname="Hop Limit: 64" size="1" pos="21" show="64" value="40"/>
    <field name="ipv6.src" showname="Source: 2a02:2788:484:59e:2c1c:849e:f74f:e233" size="16" pos="22" show="2a02:2788:484:59e:2c1c:849e:f74f:e233" value="2a0227880484059e2c1c849ef74fe233"/>
    <field name="ipv6.addr" showname="Source or Destination Address: 2a02:2788:484:59e:2c1c:849e:f74f:e233" hide="yes" size="16" pos="22" show="2a02:2788:484:59e:2c1c:849e:f74f:e233" value="2a0227880484059e2c1c849ef74fe233"/>
    <field name="ipv6.src_host" showname="Source Host: 2a02:2788:484:59e:2c1c:849e:f74f:e233" hide="yes" size="16" pos="22" show="2a02:2788:484:59e:2c1c:849e:f74f:e233" value="2a0227880484059e2c1c849ef74fe233"/>
    <field name="ipv6.host" showname="Source or Destination Host: 2a02:2788:484:59e:2c1c:849e:f74f:e233" hide="yes" size="16" pos="22" show="2a02:2788:484:59e:2c1c:849e:f74f:e233" value="2a0227880484059e2c1c849ef74fe233"/>
    <field name="ipv6.dst" showname="Destination: 2001:41d0:a:ffcf::1" size="16" pos="38" show="2001:41d0:a:ffcf::1" value="200141d0000affcf0000000000000001"/>
    <field name="ipv6.addr" showname="Source or Destination Address: 2001:41d0:a:ffcf::1" hide="yes" size="16" pos="38" show="2001:41d0:a:ffcf::1" value="200141d0000affcf0000000000000001"/>
    <field name="ipv6.dst_host" showname="Destination Host: 2001:41d0:a:ffcf::1" hide="yes" size="16" pos="38" show="2001:41d0:a:ffcf::1" value="200141d0000affcf0000000000000001"/>
    <field name="ipv6.host" showname="Source or Destination Host: 2001:41d0:a:ffcf::1" hide="yes" size="16" pos="38" show="2001:41d0:a:ffcf::1" value="200141d0000affcf0000000000000001"/>
    <proto name="ipv6.fraghdr" showname="Fragment Header for IPv6" size="8" pos="54">
      <field name="ipv6.fraghdr.nxt" showname="Next header: ICMPv6 (58)" size="1" pos="54" show="58" value="3a"/>
      <field name="ipv6.fraghdr.reserved_octet" showname="Reserved octet: 0x00" size="1" pos="55" show="0x00000000" value="00"/>
      <field name="ipv6.fraghdr.offset" showname="0000 1001 1010 0... = Offset: 308 (2464 bytes)" size="2" pos="56" show="308" value="134" unmaskedvalue="09a1"/>
      <field name="ipv6.fraghdr.reserved_bits" showname=".... .... .... .00. = Reserved bits: 0" size="2" pos="56" show="0" value="0" unmaskedvalue="09a1"/>
      <field name="ipv6.fraghdr.more" showname=".... .... .... ...1 = More Fragments: Yes" size="2" pos="56" show="1" value="1" unmaskedvalue="09a1"/>
      <field name="ipv6.fraghdr.ident" showname="Identification: 0xbc89d016" size="4" pos="58" show="0xbc89d016" value="bc89d016"/>
    </proto>
  </proto>
  <proto name="fake-field-wrapper">
    <field name="data" value="98999a9b9c9d9e9fa0a1a2a3a4a5a6a7a8a9aaabacadaeafb0b1b2b3b4b5b6b7b8b9babbbcbdbebfc0c1c2c3c4c5c6c7c8c9cacbcccdcecfd0d1d2d3d4d5d6d7d8d9dadbdcdddedfe0e1e2e3e4e5e6e7e8e9eaebecedeeeff0f1f2f3f4f5f6f7f8f9fafbfcfdfeff000102030405060708090a0b0c0d0e0f101112131415161718191a1b1c1d1e1f202122232425262728292a2b2c2d2e2f303132333435363738393a3b3c3d3e3f404142434445464748494a4b4c4d4e4f505152535455565758595a5b5c5d5e5f606162636465666768696a6b6c6d6e6f707172737475767778797a7b7c7d7e7f808182838485868788898a8b8c8d8e8f909192939495969798999a9b9c9d9e9fa0a1a2a3a4a5a6a7a8a9aaabacadaeafb0b1b2b3b4b5b6b7b8b9babbbcbdbebfc0c1c2c3c4c5c6c7c8c9cacbcccdcecfd0d1d2d3d4d5d6d7d8d9dadbdcdddedfe0e1e2e3e4e5e6e7e8e9eaebecedeeeff0f1f2f3f4f5f6f7f8f9fafbfcfdfeff000102030405060708090a0b0c0d0e0f101112131415161718191a1b1c1d1e1f202122232425262728292a2b2c2d2e2f303132333435363738393a3b3c3d3e3f404142434445464748494a4b4c4d4e4f505152535455565758595a5b5c5d5e5f606162636465666768696a6b6c6d6e6f707172737475767778797a7b7c7d7e7f808182838485868788898a8b8c8d8e8f909192939495969798999a9b9c9d9e9fa0a1a2a3a4a5a6a7a8a9aaabacadaeafb0b1b2b3b4b5b6b7b8b9babbbcbdbebfc0c1c2c3c4c5c6c7c8c9cacbcccdcecfd0d1d2d3d4d5d6d7d8d9dadbdcdddedfe0e1e2e3e4e5e6e7e8e9eaebecedeeeff0f1f2f3f4f5f6f7f8f9fafbfcfdfeff000102030405060708090a0b0c0d0e0f101112131415161718191a1b1c1d1e1f202122232425262728292a2b2c2d2e2f303132333435363738393a3b3c3d3e3f404142434445464748494a4b4c4d4e4f505152535455565758595a5b5c5d5e5f606162636465666768696a6b6c6d6e6f707172737475767778797a7b7c7d7e7f808182838485868788898a8b8c8d8e8f909192939495969798999a9b9c9d9e9fa0a1a2a3a4a5a6a7a8a9aaabacadaeafb0b1b2b3b4b5b6b7b8b9babbbcbdbebfc0c1c2c3c4c5c6c7c8c9cacbcccdcecfd0d1d2d3d4d5d6d7d8d9dadbdcdddedfe0e1e2e3e4e5e6e7e8e9eaebecedeeeff0f1f2f3f4f5f6f7f8f9fafbfcfdfeff000102030405060708090a0b0c0d0e0f101112131415161718191a1b1c1d1e1f202122232425262728292a2b2c2d2e2f303132333435363738393a3b3c3d3e3f404142434445464748494a4b4c4d4e4f505152535455565758595a5b5c5d5e5f606162636465666768696a6b6c6d6e6f707172737475767778797a7b7c7d7e7f808182838485868788898a8b8c8d8e8f909192939495969798999a9b9c9d9e9fa0a1a2a3a4a5a6a7a8a9aaabacadaeafb0b1b2b3b4b5b6b7b8b9babbbcbdbebfc0c1c2c3c4c5c6c7c8c9cacbcccdcecfd0d1d2d3d4d5d6d7d8d9dadbdcdddedfe0e1e2e3e4e5e6e7e8e9eaebecedeeeff0f1f2f3f4f5f6f7f8f9fafbfcfdfeff000102030405060708090a0b0c0d0e0f101112131415161718191a1b1c1d1e1f202122232425262728292a2b2c2d2e2f303132333435363738393a3b3c3d3e3f404142434445464748494a4b4c4d4e4f505152535455565758595a5b5c5d5e5f6061626364656667">
      <field name="filtered" value="data" />
  </field>
  </proto>
</packet>


<packet>
  <proto name="geninfo" pos="0" showname="General information" size="1294">
    <field name="num" pos="0" show="4" showname="Number" value="4" size="1294"/>
    <field name="len" pos="0" show="1294" showname="Frame Length" value="50e" size="1294"/>
    <field name="caplen" pos="0" show="1294" showname="Captured Length" value="50e" size="1294"/>
    <field name="timestamp" pos="0" show="Nov 21, 2018 21:09:13.851134000 CET" showname="Captured Time" value="1542830953.851134000" size="1294"/>
  </proto>
  <proto name="frame" showname="Frame 4: 1294 bytes on wire (10352 bits), 1294 bytes captured (10352 bits)" size="1294" pos="0">
    <field name="filtered" value="frame" />
  </proto>
  <proto name="eth" showname="Ethernet II, Src: 3c:15:c2:e4:46:44, Dst: a0:21:b7:d8:aa:90" size="14" pos="0">
    <field name="filtered" value="eth" />
  </proto>
  <proto name="ipv6" showname="Internet Protocol Version 6, Src: 2a02:2788:484:59e:2c1c:849e:f74f:e233, Dst: 2001:41d0:a:ffcf::1" size="40" pos="14">
    <field name="ipv6.version" showname="0110 .... = Version: 6" size="1" pos="14" show="6" value="6" unmaskedvalue="60"/>
    <field name="ip.version" showname="0110 .... = Version: 6 [This field makes the filter match on &quot;ip.version == 6&quot; possible]" hide="yes" size="1" pos="14" show="6" value="6" unmaskedvalue="60"/>
    <field name="ipv6.tclass" showname=".... 0000 0000 .... .... .... .... .... = Traffic Class: 0x00 (DSCP: CS0, ECN: Not-ECT)" size="4" pos="14" show="0x00000000" value="0" unmaskedvalue="60051496">
      <field name="ipv6.tclass.dscp" showname=".... 0000 00.. .... .... .... .... .... = Differentiated Services Codepoint: Default (0)" size="4" pos="14" show="0" value="0" unmaskedvalue="60051496"/>
      <field name="ipv6.tclass.ecn" showname=".... .... ..00 .... .... .... .... .... = Explicit Congestion Notification: Not ECN-Capable Transport (0)" size="4" pos="14" show="0" value="0" unmaskedvalue="60051496"/>
    </field>
    <field name="ipv6.flow" showname=".... .... .... 0101 0001 0100 1001 0110 = Flow Label: 0x51496" size="4" pos="14" show="0x00051496" value="51496" unmaskedvalue="60051496"/>
    <field name="ipv6.plen" showname="Payload Length: 1240" size="2" pos="18" show="1240" value="04d8"/>
    <field name="ipv6.nxt" showname="Next Header: Fragment Header for IPv6 (44)" size="1" pos="20" show="44" value="2c"/>
    <field name="ipv6.hlim" showname="Hop Limit: 64" size="1" pos="21" show="64" value="40"/>
    <field name="ipv6.src" showname="Source: 2a02:2788:484:59e:2c1c:849e:f74f:e233" size="16" pos="22" show="2a02:2788:484:59e:2c1c:849e:f74f:e233" value="2a0227880484059e2c1c849ef74fe233"/>
    <field name="ipv6.addr" showname="Source or Destination Address: 2a02:2788:484:59e:2c1c:849e:f74f:e233" hide="yes" size="16" pos="22" show="2a02:2788:484:59e:2c1c:849e:f74f:e233" value="2a0227880484059e2c1c849ef74fe233"/>
    <field name="ipv6.src_host" showname="Source Host: 2a02:2788:484:59e:2c1c:849e:f74f:e233" hide="yes" size="16" pos="22" show="2a02:2788:484:59e:2c1c:849e:f74f:e233" value="2a0227880484059e2c1c849ef74fe233"/>
    <field name="ipv6.host" showname="Source or Destination Host: 2a02:2788:484:59e:2c1c:849e:f74f:e233" hide="yes" size="16" pos="22" show="2a02:2788:484:59e:2c1c:849e:f74f:e233" value="2a0227880484059e2c1c849ef74fe233"/>
    <field name="ipv6.dst" showname="Destination: 2001:41d0:a:ffcf::1" size="16" pos="38" show="2001:41d0:a:ffcf::1" value="200141d0000affcf0000000000000001"/>
    <field name="ipv6.addr" showname="Source or Destination Address: 2001:41d0:a:ffcf::1" hide="yes" size="16" pos="38" show="2001:41d0:a:ffcf::1" value="200141d0000affcf0000000000000001"/>
    <field name="ipv6.dst_host" showname="Destination Host: 2001:41d0:a:ffcf::1" hide="yes" size="16" pos="38" show="2001:41d0:a:ffcf::1" value="200141d0000affcf0000000000000001"/>
    <field name="ipv6.host" showname="Source or Destination Host: 2001:41d0:a:ffcf::1" hide="yes" size="16" pos="38" show="2001:41d0:a:ffcf::1" value="200141d0000affcf0000000000000001"/>
    <proto name="ipv6.fraghdr" showname="Fragment Header for IPv6" size="8" pos="54">
      <field name="ipv6.fraghdr.nxt" showname="Next header: ICMPv6 (58)" size="1" pos="54" show="58" value="3a"/>
      <field name="ipv6.fraghdr.reserved_octet" showname="Reserved octet: 0x00" size="1" pos="55" show="0x00000000" value="00"/>
      <field name="ipv6.fraghdr.offset" showname="0000 1110 0111 0... = Offset: 462 (3696 bytes)" size="2" pos="56" show="462" value="1CE" unmaskedvalue="0e71"/>
      <field name="ipv6.fraghdr.reserved_bits" showname=".... .... .... .00. = Reserved bits: 0" size="2" pos="56" show="0" value="0" unmaskedvalue="0e71"/>
      <field name="ipv6.fraghdr.more" showname=".... .... .... ...1 = More Fragments: Yes" size="2" pos="56" show="1" value="1" unmaskedvalue="0e71"/>
      <field name="ipv6.fraghdr.ident" showname="Identification: 0xbc89d016" size="4" pos="58" show="0xbc89d016" value="bc89d016"/>
    </proto>
  </proto>
  <proto name="fake-field-wrapper">
    <field name="data" value="68696a6b6c6d6e6f707172737475767778797a7b7c7d7e7f808182838485868788898a8b8c8d8e8f909192939495969798999a9b9c9d9e9fa0a1a2a3a4a5a6a7a8a9aaabacadaeafb0b1b2b3b4b5b6b7b8b9babbbcbdbebfc0c1c2c3c4c5c6c7c8c9cacbcccdcecfd0d1d2d3d4d5d6d7d8d9dadbdcdddedfe0e1e2e3e4e5e6e7e8e9eaebecedeeeff0f1f2f3f4f5f6f7f8f9fafbfcfdfeff000102030405060708090a0b0c0d0e0f101112131415161718191a1b1c1d1e1f202122232425262728292a2b2c2d2e2f303132333435363738393a3b3c3d3e3f404142434445464748494a4b4c4d4e4f505152535455565758595a5b5c5d5e5f606162636465666768696a6b6c6d6e6f707172737475767778797a7b7c7d7e7f808182838485868788898a8b8c8d8e8f909192939495969798999a9b9c9d9e9fa0a1a2a3a4a5a6a7a8a9aaabacadaeafb0b1b2b3b4b5b6b7b8b9babbbcbdbebfc0c1c2c3c4c5c6c7c8c9cacbcccdcecfd0d1d2d3d4d5d6d7d8d9dadbdcdddedfe0e1e2e3e4e5e6e7e8e9eaebecedeeeff0f1f2f3f4f5f6f7f8f9fafbfcfdfeff000102030405060708090a0b0c0d0e0f101112131415161718191a1b1c1d1e1f202122232425262728292a2b2c2d2e2f303132333435363738393a3b3c3d3e3f404142434445464748494a4b4c4d4e4f505152535455565758595a5b5c5d5e5f606162636465666768696a6b6c6d6e6f707172737475767778797a7b7c7d7e7f808182838485868788898a8b8c8d8e8f909192939495969798999a9b9c9d9e9fa0a1a2a3a4a5a6a7a8a9aaabacadaeafb0b1b2b3b4b5b6b7b8b9babbbcbdbebfc0c1c2c3c4c5c6c7c8c9cacbcccdcecfd0d1d2d3d4d5d6d7d8d9dadbdcdddedfe0e1e2e3e4e5e6e7e8e9eaebecedeeeff0f1f2f3f4f5f6f7f8f9fafbfcfdfeff000102030405060708090a0b0c0d0e0f101112131415161718191a1b1c1d1e1f202122232425262728292a2b2c2d2e2f303132333435363738393a3b3c3d3e3f404142434445464748494a4b4c4d4e4f505152535455565758595a5b5c5d5e5f606162636465666768696a6b6c6d6e6f707172737475767778797a7b7c7d7e7f808182838485868788898a8b8c8d8e8f909192939495969798999a9b9c9d9e9fa0a1a2a3a4a5a6a7a8a9aaabacadaeafb0b1b2b3b4b5b6b7b8b9babbbcbdbebfc0c1c2c3c4c5c6c7c8c9cacbcccdcecfd0d1d2d3d4d5d6d7d8d9dadbdcdddedfe0e1e2e3e4e5e6e7e8e9eaebecedeeeff0f1f2f3f4f5f6f7f8f9fafbfcfdfeff000102030405060708090a0b0c0d0e0f101112131415161718191a1b1c1d1e1f202122232425262728292a2b2c2d2e2f303132333435363738393a3b3c3d3e3f404142434445464748494a4b4c4d4e4f505152535455565758595a5b5c5d5e5f606162636465666768696a6b6c6d6e6f707172737475767778797a7b7c7d7e7f808182838485868788898a8b8c8d8e8f909192939495969798999a9b9c9d9e9fa0a1a2a3a4a5a6a7a8a9aaabacadaeafb0b1b2b3b4b5b6b7b8b9babbbcbdbebfc0c1c2c3c4c5c6c7c8c9cacbcccdcecfd0d1d2d3d4d5d6d7d8d9dadbdcdddedfe0e1e2e3e4e5e6e7e8e9eaebecedeeeff0f1f2f3f4f5f6f7f8f9fafbfcfdfeff000102030405060708090a0b0c0d0e0f101112131415161718191a1b1c1d1e1f202122232425262728292a2b2c2d2e2f3031323334353637">
      <field name="filtered" value="data" />
  </field>
  </proto>
</packet>


<packet>
  <proto name="geninfo" pos="0" showname="General information" size="142">
    <field name="num" pos="0" show="5" showname="Number" value="5" size="142"/>
    <field name="len" pos="0" show="142" showname="Frame Length" value="8e" size="142"/>
    <field name="caplen" pos="0" show="142" showname="Captured Length" value="8e" size="142"/>
    <field name="timestamp" pos="0" show="Nov 21, 2018 21:09:13.851134000 CET" showname="Captured Time" value="1542830953.851134000" size="142"/>
  </proto>
  <proto name="frame" showname="Frame 5: 142 bytes on wire (1136 bits), 142 bytes captured (1136 bits)" size="142" pos="0">
    <field name="filtered" value="frame" />
  </proto>
  <proto name="eth" showname="Ethernet II, Src: 3c:15:c2:e4:46:44, Dst: a0:21:b7:d8:aa:90" size="14" pos="0">
    <field name="filtered" value="eth" />
  </proto>
  <proto name="ipv6" showname="Internet Protocol Version 6, Src: 2a02:2788:484:59e:2c1c:849e:f74f:e233, Dst: 2001:41d0:a:ffcf::1" size="40" pos="14">
    <field name="ipv6.version" showname="0110 .... = Version: 6" size="1" pos="14" show="6" value="6" unmaskedvalue="60"/>
    <field name="ip.version" showname="0110 .... = Version: 6 [This field makes the filter match on &quot;ip.version == 6&quot; possible]" hide="yes" size="1" pos="14" show="6" value="6" unmaskedvalue="60"/>
    <field name="ipv6.tclass" showname=".... 0000 0000 .... .... .... .... .... = Traffic Class: 0x00 (DSCP: CS0, ECN: Not-ECT)" size="4" pos="14" show="0x00000000" value="0" unmaskedvalue="60051496">
      <field name="ipv6.tclass.dscp" showname=".... 0000 00.. .... .... .... .... .... = Differentiated Services Codepoint: Default (0)" size="4" pos="14" show="0" value="0" unmaskedvalue="60051496"/>
      <field name="ipv6.tclass.ecn" showname=".... .... ..00 .... .... .... .... .... = Explicit Congestion Notification: Not ECN-Capable Transport (0)" size="4" pos="14" show="0" value="0" unmaskedvalue="60051496"/>
    </field>
    <field name="ipv6.flow" showname=".... .... .... 0101 0001 0100 1001 0110 = Flow Label: 0x51496" size="4" pos="14" show="0x00051496" value="51496" unmaskedvalue="60051496"/>
    <field name="ipv6.plen" showname="Payload Length: 88" size="2" pos="18" show="88" value="0058"/>
    <field name="ipv6.nxt" showname="Next Header: Fragment Header for IPv6 (44)" size="1" pos="20" show="44" value="2c"/>
    <field name="ipv6.hlim" showname="Hop Limit: 64" size="1" pos="21" show="64" value="40"/>
    <field name="ipv6.src" showname="Source: 2a02:2788:484:59e:2c1c:849e:f74f:e233" size="16" pos="22" show="2a02:2788:484:59e:2c1c:849e:f74f:e233" value="2a0227880484059e2c1c849ef74fe233"/>
    <field name="ipv6.addr" showname="Source or Destination Address: 2a02:2788:484:59e:2c1c:849e:f74f:e233" hide="yes" size="16" pos="22" show="2a02:2788:484:59e:2c1c:849e:f74f:e233" value="2a0227880484059e2c1c849ef74fe233"/>
    <field name="ipv6.src_host" showname="Source Host: 2a02:2788:484:59e:2c1c:849e:f74f:e233" hide="yes" size="16" pos="22" show="2a02:2788:484:59e:2c1c:849e:f74f:e233" value="2a0227880484059e2c1c849ef74fe233"/>
    <field name="ipv6.host" showname="Source or Destination Host: 2a02:2788:484:59e:2c1c:849e:f74f:e233" hide="yes" size="16" pos="22" show="2a02:2788:484:59e:2c1c:849e:f74f:e233" value="2a0227880484059e2c1c849ef74fe233"/>
    <field name="ipv6.dst" showname="Destination: 2001:41d0:a:ffcf::1" size="16" pos="38" show="2001:41d0:a:ffcf::1" value="200141d0000affcf0000000000000001"/>
    <field name="ipv6.addr" showname="Source or Destination Address: 2001:41d0:a:ffcf::1" hide="yes" size="16" pos="38" show="2001:41d0:a:ffcf::1" value="200141d0000affcf0000000000000001"/>
    <field name="ipv6.dst_host" showname="Destination Host: 2001:41d0:a:ffcf::1" hide="yes" size="16" pos="38" show="2001:41d0:a:ffcf::1" value="200141d0000affcf0000000000000001"/>
    <field name="ipv6.host" showname="Source or Destination Host: 2001:41d0:a:ffcf::1" hide="yes" size="16" pos="38" show="2001:41d0:a:ffcf::1" value="200141d0000affcf0000000000000001"/>
    <proto name="ipv6.fraghdr" showname="Fragment Header for IPv6" size="8" pos="54">
      <field name="ipv6.fraghdr.nxt" showname="Next header: ICMPv6 (58)" size="1" pos="54" show="58" value="3a"/>
      <field name="ipv6.fraghdr.reserved_octet" showname="Reserved octet: 0x00" size="1" pos="55" show="0x00000000" value="00"/>
      <field name="ipv6.fraghdr.offset" showname="0001 0011 0100 0... = Offset: 616 (4928 bytes)" size="2" pos="56" show="616" value="268" unmaskedvalue="1340"/>
      <field name="ipv6.fraghdr.reserved_bits" showname=".... .... .... .00. = Reserved bits: 0" size="2" pos="56" show="0" value="0" unmaskedvalue="1340"/>
      <field name="ipv6.fraghdr.more" showname=".... .... .... ...0 = More Fragments: No" size="2" pos="56" show="0" value="0" unmaskedvalue="1340"/>
      <field name="ipv6.fraghdr.ident" showname="Identification: 0xbc89d016" size="4" pos="58" show="0xbc89d016" value="bc89d016"/>
    </proto>
  </proto>
  <proto name="fake-field-wrapper">
    <field name="data" value="38393a3b3c3d3e3f404142434445464748494a4b4c4d4e4f505152535455565758595a5b5c5d5e5f606162636465666768696a6b6c6d6e6f707172737475767778797a7b7c7d7e7f8081828384858687">
      <field name="filtered" value="data" />
  </field>
  </proto>
</packet>


</pdml>
