<?xml version="1.0" encoding="utf-8"?>
<?xml-stylesheet type="text/xsl" href="pdml2html.xsl"?>
<!-- You can find pdml2html.xsl in /Applications/Wireshark.app/Contents/Resources/share/wireshark or at https://code.wireshark.org/review/gitweb?p=wireshark.git;a=blob_plain;f=pdml2html.xsl. -->
<pdml version="0" creator="wireshark/3.0.1" time="Thu May 16 16:02:23 2019" capture_file="tcp-rfc793-26-34.pcap">
<packet>
  <proto name="geninfo" pos="0" showname="General information" size="74">
    <field name="num" pos="0" show="1" showname="Number" value="1" size="74"/>
    <field name="len" pos="0" show="74" showname="Frame Length" value="4a" size="74"/>
    <field name="caplen" pos="0" show="74" showname="Captured Length" value="4a" size="74"/>
    <field name="timestamp" pos="0" show="Oct 25, 2018 17:26:38.219134000 CEST" showname="Captured Time" value="1540481198.219134000" size="74"/>
  </proto>
  <proto name="frame" showname="Frame 1: 74 bytes on wire (592 bits), 74 bytes captured (592 bits)" size="74" pos="0">
    <field name="filtered" value="frame" />
  </proto>
  <proto name="eth" showname="Ethernet II, Src: 26:71:ff:fe:ec:1d, Dst: 36:66:93:b9:6c:1a" size="14" pos="0">
    <field name="filtered" value="eth" />
  </proto>
  <proto name="ipv6" showname="Internet Protocol Version 6, Src: 2001:7ab:1::a, Dst: 2001:7ab:3::c" size="40" pos="14">
    <field name="filtered" value="ipv6" />
  </proto>
  <proto name="tcp" showname="Transmission Control Protocol, Src Port: 53708, Dst Port: 1234, Seq: 2250678588, Ack: 3164923749, Len: 0" size="20" pos="54">
    <field name="tcp.srcport" showname="Source Port: 53708" size="2" pos="54" show="53708" value="d1cc"/>
    <field name="tcp.dstport" showname="Destination Port: 1234" size="2" pos="56" show="1234" value="04d2"/>
    <field name="tcp.port" showname="Source or Destination Port: 53708" hide="yes" size="2" pos="54" show="53708" value="d1cc"/>
    <field name="tcp.port" showname="Source or Destination Port: 1234" hide="yes" size="2" pos="56" show="1234" value="04d2"/>
    <field name="tcp.stream" showname="Stream index: 0" size="0" pos="54" show="0"/>
    <field name="tcp.len" showname="TCP Segment Len: 0" size="1" pos="66" show="0" value="50"/>
    <field name="tcp.seq" showname="Sequence number: 2250678588" size="4" pos="58" show="2250678588" value="8626a13c"/>
    <field name="tcp.nxtseq" showname="Next sequence number: 2250678588" size="0" pos="54" show="2250678588"/>
    <field name="tcp.ack" showname="Acknowledgment number: 3164923749" size="4" pos="62" show="3164923749" value="bca4e765"/>
    <field name="tcp.hdr_len" showname="0101 .... = Header Length: 20 bytes (5)" size="1" pos="66" show="20" value="50"/>
    <field name="tcp.flags" showname="Flags: 0x010 (ACK)" size="2" pos="66" show="0x00000010" value="10" unmaskedvalue="5010">
      <field name="tcp.flags.res" showname="000. .... .... = Reserved: Not set" size="1" pos="66" show="0" value="0" unmaskedvalue="50"/>
      <field name="tcp.flags.ns" showname="...0 .... .... = Nonce: Not set" size="1" pos="66" show="0" value="0" unmaskedvalue="50"/>
      <field name="tcp.flags.cwr" showname=".... 0... .... = Congestion Window Reduced (CWR): Not set" size="1" pos="67" show="0" value="0" unmaskedvalue="10"/>
      <field name="tcp.flags.ecn" showname=".... .0.. .... = ECN-Echo: Not set" size="1" pos="67" show="0" value="0" unmaskedvalue="10"/>
      <field name="tcp.flags.urg" showname=".... ..0. .... = Urgent: Not set" size="1" pos="67" show="0" value="0" unmaskedvalue="10"/>
      <field name="tcp.flags.ack" showname=".... ...1 .... = Acknowledgment: Set" size="1" pos="67" show="1" value="1" unmaskedvalue="10"/>
      <field name="tcp.flags.push" showname=".... .... 0... = Push: Not set" size="1" pos="67" show="0" value="0" unmaskedvalue="10"/>
      <field name="tcp.flags.reset" showname=".... .... .0.. = Reset: Not set" size="1" pos="67" show="0" value="0" unmaskedvalue="10"/>
      <field name="tcp.flags.syn" showname=".... .... ..0. = Syn: Not set" size="1" pos="67" show="0" value="0" unmaskedvalue="10"/>
      <field name="tcp.flags.fin" showname=".... .... ...0 = Fin: Not set" size="1" pos="67" show="0" value="0" unmaskedvalue="10"/>
      <field name="tcp.flags.str" showname="TCP Flags: \xc2\xb7\xc2\xb7\xc2\xb7\xc2\xb7\xc2\xb7\xc2\xb7\xc2\xb7A\xc2\xb7\xc2\xb7\xc2\xb7\xc2\xb7" size="2" pos="66" show="\xc2\xb7\xc2\xb7\xc2\xb7\xc2\xb7\xc2\xb7\xc2\xb7\xc2\xb7A\xc2\xb7\xc2\xb7\xc2\xb7\xc2\xb7" value="5010"/>
    </field>
    <field name="tcp.window_size_value" showname="Window size value: 28800" size="2" pos="68" show="28800" value="7080"/>
    <field name="tcp.window_size" showname="Calculated window size: 28800" size="2" pos="68" show="28800" value="7080"/>
    <field name="tcp.window_size_scalefactor" showname="Window size scaling factor: -1 (unknown)" size="2" pos="68" show="-1" value="7080"/>
    <field name="tcp.checksum" showname="Checksum: 0x4f8c [unverified]" size="2" pos="70" show="0x00004f8c" value="4f8c"/>
    <field name="tcp.checksum.status" showname="Checksum Status: Unverified" size="0" pos="70" show="2"/>
    <field name="tcp.urgent_pointer" showname="Urgent pointer: 0" size="2" pos="72" show="0" value="0000"/>
    <field name="" show="Timestamps" size="0" pos="54">
      <field name="tcp.time_relative" showname="Time since first frame in this TCP stream: 0.000000000 seconds" size="0" pos="54" show="0.000000000"/>
      <field name="tcp.time_delta" showname="Time since previous frame in this TCP stream: 0.000000000 seconds" size="0" pos="54" show="0.000000000"/>
    </field>
  </proto>
</packet>


<packet>
  <proto name="geninfo" pos="0" showname="General information" size="76">
    <field name="num" pos="0" show="2" showname="Number" value="2" size="76"/>
    <field name="len" pos="0" show="76" showname="Frame Length" value="4c" size="76"/>
    <field name="caplen" pos="0" show="76" showname="Captured Length" value="4c" size="76"/>
    <field name="timestamp" pos="0" show="Oct 25, 2018 17:26:39.614552000 CEST" showname="Captured Time" value="1540481199.614552000" size="76"/>
  </proto>
  <proto name="frame" showname="Frame 2: 76 bytes on wire (608 bits), 76 bytes captured (608 bits)" size="76" pos="0">
    <field name="filtered" value="frame" />
  </proto>
  <proto name="eth" showname="Ethernet II, Src: 26:71:ff:fe:ec:1d, Dst: 36:66:93:b9:6c:1a" size="14" pos="0">
    <field name="filtered" value="eth" />
  </proto>
  <proto name="ipv6" showname="Internet Protocol Version 6, Src: 2001:7ab:1::a, Dst: 2001:7ab:3::c" size="40" pos="14">
    <field name="filtered" value="ipv6" />
  </proto>
  <proto name="tcp" showname="Transmission Control Protocol, Src Port: 53708, Dst Port: 1234, Seq: 2250678588, Ack: 3164923749, Len: 2" size="20" pos="54">
    <field name="tcp.srcport" showname="Source Port: 53708" size="2" pos="54" show="53708" value="d1cc"/>
    <field name="tcp.dstport" showname="Destination Port: 1234" size="2" pos="56" show="1234" value="04d2"/>
    <field name="tcp.port" showname="Source or Destination Port: 53708" hide="yes" size="2" pos="54" show="53708" value="d1cc"/>
    <field name="tcp.port" showname="Source or Destination Port: 1234" hide="yes" size="2" pos="56" show="1234" value="04d2"/>
    <field name="tcp.stream" showname="Stream index: 0" size="0" pos="54" show="0"/>
    <field name="tcp.len" showname="TCP Segment Len: 2" size="1" pos="66" show="2" value="50"/>
    <field name="tcp.seq" showname="Sequence number: 2250678588" size="4" pos="58" show="2250678588" value="8626a13c"/>
    <field name="tcp.nxtseq" showname="Next sequence number: 2250678590" size="0" pos="54" show="2250678590"/>
    <field name="tcp.ack" showname="Acknowledgment number: 3164923749" size="4" pos="62" show="3164923749" value="bca4e765"/>
    <field name="tcp.hdr_len" showname="0101 .... = Header Length: 20 bytes (5)" size="1" pos="66" show="20" value="50"/>
    <field name="tcp.flags" showname="Flags: 0x018 (PSH, ACK)" size="2" pos="66" show="0x00000018" value="18" unmaskedvalue="5018">
      <field name="tcp.flags.res" showname="000. .... .... = Reserved: Not set" size="1" pos="66" show="0" value="0" unmaskedvalue="50"/>
      <field name="tcp.flags.ns" showname="...0 .... .... = Nonce: Not set" size="1" pos="66" show="0" value="0" unmaskedvalue="50"/>
      <field name="tcp.flags.cwr" showname=".... 0... .... = Congestion Window Reduced (CWR): Not set" size="1" pos="67" show="0" value="0" unmaskedvalue="18"/>
      <field name="tcp.flags.ecn" showname=".... .0.. .... = ECN-Echo: Not set" size="1" pos="67" show="0" value="0" unmaskedvalue="18"/>
      <field name="tcp.flags.urg" showname=".... ..0. .... = Urgent: Not set" size="1" pos="67" show="0" value="0" unmaskedvalue="18"/>
      <field name="tcp.flags.ack" showname=".... ...1 .... = Acknowledgment: Set" size="1" pos="67" show="1" value="1" unmaskedvalue="18"/>
      <field name="tcp.flags.push" showname=".... .... 1... = Push: Set" size="1" pos="67" show="1" value="1" unmaskedvalue="18"/>
      <field name="tcp.flags.reset" showname=".... .... .0.. = Reset: Not set" size="1" pos="67" show="0" value="0" unmaskedvalue="18"/>
      <field name="tcp.flags.syn" showname=".... .... ..0. = Syn: Not set" size="1" pos="67" show="0" value="0" unmaskedvalue="18"/>
      <field name="tcp.flags.fin" showname=".... .... ...0 = Fin: Not set" size="1" pos="67" show="0" value="0" unmaskedvalue="18"/>
      <field name="tcp.flags.str" showname="TCP Flags: \xc2\xb7\xc2\xb7\xc2\xb7\xc2\xb7\xc2\xb7\xc2\xb7\xc2\xb7AP\xc2\xb7\xc2\xb7\xc2\xb7" size="2" pos="66" show="\xc2\xb7\xc2\xb7\xc2\xb7\xc2\xb7\xc2\xb7\xc2\xb7\xc2\xb7AP\xc2\xb7\xc2\xb7\xc2\xb7" value="5018"/>
    </field>
    <field name="tcp.window_size_value" showname="Window size value: 28800" size="2" pos="68" show="28800" value="7080"/>
    <field name="tcp.window_size" showname="Calculated window size: 28800" size="2" pos="68" show="28800" value="7080"/>
    <field name="tcp.window_size_scalefactor" showname="Window size scaling factor: -1 (unknown)" size="2" pos="68" show="-1" value="7080"/>
    <field name="tcp.checksum" showname="Checksum: 0x4f8e [unverified]" size="2" pos="70" show="0x00004f8e" value="4f8e"/>
    <field name="tcp.checksum.status" showname="Checksum Status: Unverified" size="0" pos="70" show="2"/>
    <field name="tcp.urgent_pointer" showname="Urgent pointer: 0" size="2" pos="72" show="0" value="0000"/>
    <field name="tcp.analysis" showname="SEQ/ACK analysis" size="0" pos="54" show="" value="">
      <field name="tcp.analysis.bytes_in_flight" showname="Bytes in flight: 2" size="0" pos="54" show="2"/>
      <field name="tcp.analysis.push_bytes_sent" showname="Bytes sent since last PSH flag: 2" size="0" pos="54" show="2"/>
    </field>
    <field name="" show="Timestamps" size="0" pos="54">
      <field name="tcp.time_relative" showname="Time since first frame in this TCP stream: 1.395418000 seconds" size="0" pos="54" show="1.395418000"/>
      <field name="tcp.time_delta" showname="Time since previous frame in this TCP stream: 1.395418000 seconds" size="0" pos="54" show="1.395418000"/>
    </field>
    <field name="tcp.payload" showname="TCP payload (2 bytes)" size="2" pos="74" show="31:0a" value="310a"/>
  </proto>
  <proto name="fake-field-wrapper">
    <field name="data" value="310a">
      <field name="filtered" value="data" />
  </field>
  </proto>
</packet>


<packet>
  <proto name="geninfo" pos="0" showname="General information" size="74">
    <field name="num" pos="0" show="3" showname="Number" value="3" size="74"/>
    <field name="len" pos="0" show="74" showname="Frame Length" value="4a" size="74"/>
    <field name="caplen" pos="0" show="74" showname="Captured Length" value="4a" size="74"/>
    <field name="timestamp" pos="0" show="Oct 25, 2018 17:26:39.614566000 CEST" showname="Captured Time" value="1540481199.614566000" size="74"/>
  </proto>
  <proto name="frame" showname="Frame 3: 74 bytes on wire (592 bits), 74 bytes captured (592 bits)" size="74" pos="0">
    <field name="filtered" value="frame" />
  </proto>
  <proto name="eth" showname="Ethernet II, Src: 36:66:93:b9:6c:1a, Dst: 26:71:ff:fe:ec:1d" size="14" pos="0">
    <field name="filtered" value="eth" />
  </proto>
  <proto name="ipv6" showname="Internet Protocol Version 6, Src: 2001:7ab:3::c, Dst: 2001:7ab:1::a" size="40" pos="14">
    <field name="filtered" value="ipv6" />
  </proto>
  <proto name="tcp" showname="Transmission Control Protocol, Src Port: 1234, Dst Port: 53708, Seq: 3164923749, Ack: 2250678590, Len: 0" size="20" pos="54">
    <field name="tcp.srcport" showname="Source Port: 1234" size="2" pos="54" show="1234" value="04d2"/>
    <field name="tcp.dstport" showname="Destination Port: 53708" size="2" pos="56" show="53708" value="d1cc"/>
    <field name="tcp.port" showname="Source or Destination Port: 1234" hide="yes" size="2" pos="54" show="1234" value="04d2"/>
    <field name="tcp.port" showname="Source or Destination Port: 53708" hide="yes" size="2" pos="56" show="53708" value="d1cc"/>
    <field name="tcp.stream" showname="Stream index: 0" size="0" pos="54" show="0"/>
    <field name="tcp.len" showname="TCP Segment Len: 0" size="1" pos="66" show="0" value="50"/>
    <field name="tcp.seq" showname="Sequence number: 3164923749" size="4" pos="58" show="3164923749" value="bca4e765"/>
    <field name="tcp.nxtseq" showname="Next sequence number: 3164923749" size="0" pos="54" show="3164923749"/>
    <field name="tcp.ack" showname="Acknowledgment number: 2250678590" size="4" pos="62" show="2250678590" value="8626a13e"/>
    <field name="tcp.hdr_len" showname="0101 .... = Header Length: 20 bytes (5)" size="1" pos="66" show="20" value="50"/>
    <field name="tcp.flags" showname="Flags: 0x010 (ACK)" size="2" pos="66" show="0x00000010" value="10" unmaskedvalue="5010">
      <field name="tcp.flags.res" showname="000. .... .... = Reserved: Not set" size="1" pos="66" show="0" value="0" unmaskedvalue="50"/>
      <field name="tcp.flags.ns" showname="...0 .... .... = Nonce: Not set" size="1" pos="66" show="0" value="0" unmaskedvalue="50"/>
      <field name="tcp.flags.cwr" showname=".... 0... .... = Congestion Window Reduced (CWR): Not set" size="1" pos="67" show="0" value="0" unmaskedvalue="10"/>
      <field name="tcp.flags.ecn" showname=".... .0.. .... = ECN-Echo: Not set" size="1" pos="67" show="0" value="0" unmaskedvalue="10"/>
      <field name="tcp.flags.urg" showname=".... ..0. .... = Urgent: Not set" size="1" pos="67" show="0" value="0" unmaskedvalue="10"/>
      <field name="tcp.flags.ack" showname=".... ...1 .... = Acknowledgment: Set" size="1" pos="67" show="1" value="1" unmaskedvalue="10"/>
      <field name="tcp.flags.push" showname=".... .... 0... = Push: Not set" size="1" pos="67" show="0" value="0" unmaskedvalue="10"/>
      <field name="tcp.flags.reset" showname=".... .... .0.. = Reset: Not set" size="1" pos="67" show="0" value="0" unmaskedvalue="10"/>
      <field name="tcp.flags.syn" showname=".... .... ..0. = Syn: Not set" size="1" pos="67" show="0" value="0" unmaskedvalue="10"/>
      <field name="tcp.flags.fin" showname=".... .... ...0 = Fin: Not set" size="1" pos="67" show="0" value="0" unmaskedvalue="10"/>
      <field name="tcp.flags.str" showname="TCP Flags: \xc2\xb7\xc2\xb7\xc2\xb7\xc2\xb7\xc2\xb7\xc2\xb7\xc2\xb7A\xc2\xb7\xc2\xb7\xc2\xb7\xc2\xb7" size="2" pos="66" show="\xc2\xb7\xc2\xb7\xc2\xb7\xc2\xb7\xc2\xb7\xc2\xb7\xc2\xb7A\xc2\xb7\xc2\xb7\xc2\xb7\xc2\xb7" value="5010"/>
    </field>
    <field name="tcp.window_size_value" showname="Window size value: 28800" size="2" pos="68" show="28800" value="7080"/>
    <field name="tcp.window_size" showname="Calculated window size: 28800" size="2" pos="68" show="28800" value="7080"/>
    <field name="tcp.window_size_scalefactor" showname="Window size scaling factor: -1 (unknown)" size="2" pos="68" show="-1" value="7080"/>
    <field name="tcp.checksum" showname="Checksum: 0x4f8c [unverified]" size="2" pos="70" show="0x00004f8c" value="4f8c"/>
    <field name="tcp.checksum.status" showname="Checksum Status: Unverified" size="0" pos="70" show="2"/>
    <field name="tcp.urgent_pointer" showname="Urgent pointer: 0" size="2" pos="72" show="0" value="0000"/>
    <field name="tcp.analysis" showname="SEQ/ACK analysis" size="0" pos="54" show="" value="">
      <field name="tcp.analysis.acks_frame" showname="This is an ACK to the segment in frame: 2" size="0" pos="54" show="2"/>
      <field name="tcp.analysis.ack_rtt" showname="The RTT to ACK the segment was: 0.000014000 seconds" size="0" pos="54" show="0.000014000"/>
    </field>
    <field name="" show="Timestamps" size="0" pos="54">
      <field name="tcp.time_relative" showname="Time since first frame in this TCP stream: 1.395432000 seconds" size="0" pos="54" show="1.395432000"/>
      <field name="tcp.time_delta" showname="Time since previous frame in this TCP stream: 0.000014000 seconds" size="0" pos="54" show="0.000014000"/>
    </field>
  </proto>
</packet>


<packet>
  <proto name="geninfo" pos="0" showname="General information" size="76">
    <field name="num" pos="0" show="4" showname="Number" value="4" size="76"/>
    <field name="len" pos="0" show="76" showname="Frame Length" value="4c" size="76"/>
    <field name="caplen" pos="0" show="76" showname="Captured Length" value="4c" size="76"/>
    <field name="timestamp" pos="0" show="Oct 25, 2018 17:26:40.134912000 CEST" showname="Captured Time" value="1540481200.134912000" size="76"/>
  </proto>
  <proto name="frame" showname="Frame 4: 76 bytes on wire (608 bits), 76 bytes captured (608 bits)" size="76" pos="0">
    <field name="filtered" value="frame" />
  </proto>
  <proto name="eth" showname="Ethernet II, Src: 26:71:ff:fe:ec:1d, Dst: 36:66:93:b9:6c:1a" size="14" pos="0">
    <field name="filtered" value="eth" />
  </proto>
  <proto name="ipv6" showname="Internet Protocol Version 6, Src: 2001:7ab:1::a, Dst: 2001:7ab:3::c" size="40" pos="14">
    <field name="filtered" value="ipv6" />
  </proto>
  <proto name="tcp" showname="Transmission Control Protocol, Src Port: 53708, Dst Port: 1234, Seq: 2250678590, Ack: 3164923749, Len: 2" size="20" pos="54">
    <field name="tcp.srcport" showname="Source Port: 53708" size="2" pos="54" show="53708" value="d1cc"/>
    <field name="tcp.dstport" showname="Destination Port: 1234" size="2" pos="56" show="1234" value="04d2"/>
    <field name="tcp.port" showname="Source or Destination Port: 53708" hide="yes" size="2" pos="54" show="53708" value="d1cc"/>
    <field name="tcp.port" showname="Source or Destination Port: 1234" hide="yes" size="2" pos="56" show="1234" value="04d2"/>
    <field name="tcp.stream" showname="Stream index: 0" size="0" pos="54" show="0"/>
    <field name="tcp.len" showname="TCP Segment Len: 2" size="1" pos="66" show="2" value="50"/>
    <field name="tcp.seq" showname="Sequence number: 2250678590" size="4" pos="58" show="2250678590" value="8626a13e"/>
    <field name="tcp.nxtseq" showname="Next sequence number: 2250678592" size="0" pos="54" show="2250678592"/>
    <field name="tcp.ack" showname="Acknowledgment number: 3164923749" size="4" pos="62" show="3164923749" value="bca4e765"/>
    <field name="tcp.hdr_len" showname="0101 .... = Header Length: 20 bytes (5)" size="1" pos="66" show="20" value="50"/>
    <field name="tcp.flags" showname="Flags: 0x018 (PSH, ACK)" size="2" pos="66" show="0x00000018" value="18" unmaskedvalue="5018">
      <field name="tcp.flags.res" showname="000. .... .... = Reserved: Not set" size="1" pos="66" show="0" value="0" unmaskedvalue="50"/>
      <field name="tcp.flags.ns" showname="...0 .... .... = Nonce: Not set" size="1" pos="66" show="0" value="0" unmaskedvalue="50"/>
      <field name="tcp.flags.cwr" showname=".... 0... .... = Congestion Window Reduced (CWR): Not set" size="1" pos="67" show="0" value="0" unmaskedvalue="18"/>
      <field name="tcp.flags.ecn" showname=".... .0.. .... = ECN-Echo: Not set" size="1" pos="67" show="0" value="0" unmaskedvalue="18"/>
      <field name="tcp.flags.urg" showname=".... ..0. .... = Urgent: Not set" size="1" pos="67" show="0" value="0" unmaskedvalue="18"/>
      <field name="tcp.flags.ack" showname=".... ...1 .... = Acknowledgment: Set" size="1" pos="67" show="1" value="1" unmaskedvalue="18"/>
      <field name="tcp.flags.push" showname=".... .... 1... = Push: Set" size="1" pos="67" show="1" value="1" unmaskedvalue="18"/>
      <field name="tcp.flags.reset" showname=".... .... .0.. = Reset: Not set" size="1" pos="67" show="0" value="0" unmaskedvalue="18"/>
      <field name="tcp.flags.syn" showname=".... .... ..0. = Syn: Not set" size="1" pos="67" show="0" value="0" unmaskedvalue="18"/>
      <field name="tcp.flags.fin" showname=".... .... ...0 = Fin: Not set" size="1" pos="67" show="0" value="0" unmaskedvalue="18"/>
      <field name="tcp.flags.str" showname="TCP Flags: \xc2\xb7\xc2\xb7\xc2\xb7\xc2\xb7\xc2\xb7\xc2\xb7\xc2\xb7AP\xc2\xb7\xc2\xb7\xc2\xb7" size="2" pos="66" show="\xc2\xb7\xc2\xb7\xc2\xb7\xc2\xb7\xc2\xb7\xc2\xb7\xc2\xb7AP\xc2\xb7\xc2\xb7\xc2\xb7" value="5018"/>
    </field>
    <field name="tcp.window_size_value" showname="Window size value: 28800" size="2" pos="68" show="28800" value="7080"/>
    <field name="tcp.window_size" showname="Calculated window size: 28800" size="2" pos="68" show="28800" value="7080"/>
    <field name="tcp.window_size_scalefactor" showname="Window size scaling factor: -1 (unknown)" size="2" pos="68" show="-1" value="7080"/>
    <field name="tcp.checksum" showname="Checksum: 0x4f8e [unverified]" size="2" pos="70" show="0x00004f8e" value="4f8e"/>
    <field name="tcp.checksum.status" showname="Checksum Status: Unverified" size="0" pos="70" show="2"/>
    <field name="tcp.urgent_pointer" showname="Urgent pointer: 0" size="2" pos="72" show="0" value="0000"/>
    <field name="tcp.analysis" showname="SEQ/ACK analysis" size="0" pos="54" show="" value="">
      <field name="tcp.analysis.bytes_in_flight" showname="Bytes in flight: 2" size="0" pos="54" show="2"/>
      <field name="tcp.analysis.push_bytes_sent" showname="Bytes sent since last PSH flag: 2" size="0" pos="54" show="2"/>
    </field>
    <field name="" show="Timestamps" size="0" pos="54">
      <field name="tcp.time_relative" showname="Time since first frame in this TCP stream: 1.915778000 seconds" size="0" pos="54" show="1.915778000"/>
      <field name="tcp.time_delta" showname="Time since previous frame in this TCP stream: 0.520346000 seconds" size="0" pos="54" show="0.520346000"/>
    </field>
    <field name="tcp.payload" showname="TCP payload (2 bytes)" size="2" pos="74" show="32:0a" value="320a"/>
  </proto>
  <proto name="fake-field-wrapper">
    <field name="data" value="320a">
      <field name="filtered" value="data" />
  </field>
  </proto>
</packet>


<packet>
  <proto name="geninfo" pos="0" showname="General information" size="74">
    <field name="num" pos="0" show="5" showname="Number" value="5" size="74"/>
    <field name="len" pos="0" show="74" showname="Frame Length" value="4a" size="74"/>
    <field name="caplen" pos="0" show="74" showname="Captured Length" value="4a" size="74"/>
    <field name="timestamp" pos="0" show="Oct 25, 2018 17:26:40.134921000 CEST" showname="Captured Time" value="1540481200.134921000" size="74"/>
  </proto>
  <proto name="frame" showname="Frame 5: 74 bytes on wire (592 bits), 74 bytes captured (592 bits)" size="74" pos="0">
    <field name="filtered" value="frame" />
  </proto>
  <proto name="eth" showname="Ethernet II, Src: 36:66:93:b9:6c:1a, Dst: 26:71:ff:fe:ec:1d" size="14" pos="0">
    <field name="filtered" value="eth" />
  </proto>
  <proto name="ipv6" showname="Internet Protocol Version 6, Src: 2001:7ab:3::c, Dst: 2001:7ab:1::a" size="40" pos="14">
    <field name="filtered" value="ipv6" />
  </proto>
  <proto name="tcp" showname="Transmission Control Protocol, Src Port: 1234, Dst Port: 53708, Seq: 3164923749, Ack: 2250678592, Len: 0" size="20" pos="54">
    <field name="tcp.srcport" showname="Source Port: 1234" size="2" pos="54" show="1234" value="04d2"/>
    <field name="tcp.dstport" showname="Destination Port: 53708" size="2" pos="56" show="53708" value="d1cc"/>
    <field name="tcp.port" showname="Source or Destination Port: 1234" hide="yes" size="2" pos="54" show="1234" value="04d2"/>
    <field name="tcp.port" showname="Source or Destination Port: 53708" hide="yes" size="2" pos="56" show="53708" value="d1cc"/>
    <field name="tcp.stream" showname="Stream index: 0" size="0" pos="54" show="0"/>
    <field name="tcp.len" showname="TCP Segment Len: 0" size="1" pos="66" show="0" value="50"/>
    <field name="tcp.seq" showname="Sequence number: 3164923749" size="4" pos="58" show="3164923749" value="bca4e765"/>
    <field name="tcp.nxtseq" showname="Next sequence number: 3164923749" size="0" pos="54" show="3164923749"/>
    <field name="tcp.ack" showname="Acknowledgment number: 2250678592" size="4" pos="62" show="2250678592" value="8626a140"/>
    <field name="tcp.hdr_len" showname="0101 .... = Header Length: 20 bytes (5)" size="1" pos="66" show="20" value="50"/>
    <field name="tcp.flags" showname="Flags: 0x010 (ACK)" size="2" pos="66" show="0x00000010" value="10" unmaskedvalue="5010">
      <field name="tcp.flags.res" showname="000. .... .... = Reserved: Not set" size="1" pos="66" show="0" value="0" unmaskedvalue="50"/>
      <field name="tcp.flags.ns" showname="...0 .... .... = Nonce: Not set" size="1" pos="66" show="0" value="0" unmaskedvalue="50"/>
      <field name="tcp.flags.cwr" showname=".... 0... .... = Congestion Window Reduced (CWR): Not set" size="1" pos="67" show="0" value="0" unmaskedvalue="10"/>
      <field name="tcp.flags.ecn" showname=".... .0.. .... = ECN-Echo: Not set" size="1" pos="67" show="0" value="0" unmaskedvalue="10"/>
      <field name="tcp.flags.urg" showname=".... ..0. .... = Urgent: Not set" size="1" pos="67" show="0" value="0" unmaskedvalue="10"/>
      <field name="tcp.flags.ack" showname=".... ...1 .... = Acknowledgment: Set" size="1" pos="67" show="1" value="1" unmaskedvalue="10"/>
      <field name="tcp.flags.push" showname=".... .... 0... = Push: Not set" size="1" pos="67" show="0" value="0" unmaskedvalue="10"/>
      <field name="tcp.flags.reset" showname=".... .... .0.. = Reset: Not set" size="1" pos="67" show="0" value="0" unmaskedvalue="10"/>
      <field name="tcp.flags.syn" showname=".... .... ..0. = Syn: Not set" size="1" pos="67" show="0" value="0" unmaskedvalue="10"/>
      <field name="tcp.flags.fin" showname=".... .... ...0 = Fin: Not set" size="1" pos="67" show="0" value="0" unmaskedvalue="10"/>
      <field name="tcp.flags.str" showname="TCP Flags: \xc2\xb7\xc2\xb7\xc2\xb7\xc2\xb7\xc2\xb7\xc2\xb7\xc2\xb7A\xc2\xb7\xc2\xb7\xc2\xb7\xc2\xb7" size="2" pos="66" show="\xc2\xb7\xc2\xb7\xc2\xb7\xc2\xb7\xc2\xb7\xc2\xb7\xc2\xb7A\xc2\xb7\xc2\xb7\xc2\xb7\xc2\xb7" value="5010"/>
    </field>
    <field name="tcp.window_size_value" showname="Window size value: 28800" size="2" pos="68" show="28800" value="7080"/>
    <field name="tcp.window_size" showname="Calculated window size: 28800" size="2" pos="68" show="28800" value="7080"/>
    <field name="tcp.window_size_scalefactor" showname="Window size scaling factor: -1 (unknown)" size="2" pos="68" show="-1" value="7080"/>
    <field name="tcp.checksum" showname="Checksum: 0x4f8c [unverified]" size="2" pos="70" show="0x00004f8c" value="4f8c"/>
    <field name="tcp.checksum.status" showname="Checksum Status: Unverified" size="0" pos="70" show="2"/>
    <field name="tcp.urgent_pointer" showname="Urgent pointer: 0" size="2" pos="72" show="0" value="0000"/>
    <field name="tcp.analysis" showname="SEQ/ACK analysis" size="0" pos="54" show="" value="">
      <field name="tcp.analysis.acks_frame" showname="This is an ACK to the segment in frame: 4" size="0" pos="54" show="4"/>
      <field name="tcp.analysis.ack_rtt" showname="The RTT to ACK the segment was: 0.000009000 seconds" size="0" pos="54" show="0.000009000"/>
    </field>
    <field name="" show="Timestamps" size="0" pos="54">
      <field name="tcp.time_relative" showname="Time since first frame in this TCP stream: 1.915787000 seconds" size="0" pos="54" show="1.915787000"/>
      <field name="tcp.time_delta" showname="Time since previous frame in this TCP stream: 0.000009000 seconds" size="0" pos="54" show="0.000009000"/>
    </field>
  </proto>
</packet>


<packet>
  <proto name="geninfo" pos="0" showname="General information" size="76">
    <field name="num" pos="0" show="6" showname="Number" value="6" size="76"/>
    <field name="len" pos="0" show="76" showname="Frame Length" value="4c" size="76"/>
    <field name="caplen" pos="0" show="76" showname="Captured Length" value="4c" size="76"/>
    <field name="timestamp" pos="0" show="Oct 25, 2018 17:26:41.038925000 CEST" showname="Captured Time" value="1540481201.038925000" size="76"/>
  </proto>
  <proto name="frame" showname="Frame 6: 76 bytes on wire (608 bits), 76 bytes captured (608 bits)" size="76" pos="0">
    <field name="filtered" value="frame" />
  </proto>
  <proto name="eth" showname="Ethernet II, Src: 26:71:ff:fe:ec:1d, Dst: 36:66:93:b9:6c:1a" size="14" pos="0">
    <field name="filtered" value="eth" />
  </proto>
  <proto name="ipv6" showname="Internet Protocol Version 6, Src: 2001:7ab:1::a, Dst: 2001:7ab:3::c" size="40" pos="14">
    <field name="filtered" value="ipv6" />
  </proto>
  <proto name="tcp" showname="Transmission Control Protocol, Src Port: 53708, Dst Port: 1234, Seq: 2250678592, Ack: 3164923749, Len: 2" size="20" pos="54">
    <field name="tcp.srcport" showname="Source Port: 53708" size="2" pos="54" show="53708" value="d1cc"/>
    <field name="tcp.dstport" showname="Destination Port: 1234" size="2" pos="56" show="1234" value="04d2"/>
    <field name="tcp.port" showname="Source or Destination Port: 53708" hide="yes" size="2" pos="54" show="53708" value="d1cc"/>
    <field name="tcp.port" showname="Source or Destination Port: 1234" hide="yes" size="2" pos="56" show="1234" value="04d2"/>
    <field name="tcp.stream" showname="Stream index: 0" size="0" pos="54" show="0"/>
    <field name="tcp.len" showname="TCP Segment Len: 2" size="1" pos="66" show="2" value="50"/>
    <field name="tcp.seq" showname="Sequence number: 2250678592" size="4" pos="58" show="2250678592" value="8626a140"/>
    <field name="tcp.nxtseq" showname="Next sequence number: 2250678594" size="0" pos="54" show="2250678594"/>
    <field name="tcp.ack" showname="Acknowledgment number: 3164923749" size="4" pos="62" show="3164923749" value="bca4e765"/>
    <field name="tcp.hdr_len" showname="0101 .... = Header Length: 20 bytes (5)" size="1" pos="66" show="20" value="50"/>
    <field name="tcp.flags" showname="Flags: 0x018 (PSH, ACK)" size="2" pos="66" show="0x00000018" value="18" unmaskedvalue="5018">
      <field name="tcp.flags.res" showname="000. .... .... = Reserved: Not set" size="1" pos="66" show="0" value="0" unmaskedvalue="50"/>
      <field name="tcp.flags.ns" showname="...0 .... .... = Nonce: Not set" size="1" pos="66" show="0" value="0" unmaskedvalue="50"/>
      <field name="tcp.flags.cwr" showname=".... 0... .... = Congestion Window Reduced (CWR): Not set" size="1" pos="67" show="0" value="0" unmaskedvalue="18"/>
      <field name="tcp.flags.ecn" showname=".... .0.. .... = ECN-Echo: Not set" size="1" pos="67" show="0" value="0" unmaskedvalue="18"/>
      <field name="tcp.flags.urg" showname=".... ..0. .... = Urgent: Not set" size="1" pos="67" show="0" value="0" unmaskedvalue="18"/>
      <field name="tcp.flags.ack" showname=".... ...1 .... = Acknowledgment: Set" size="1" pos="67" show="1" value="1" unmaskedvalue="18"/>
      <field name="tcp.flags.push" showname=".... .... 1... = Push: Set" size="1" pos="67" show="1" value="1" unmaskedvalue="18"/>
      <field name="tcp.flags.reset" showname=".... .... .0.. = Reset: Not set" size="1" pos="67" show="0" value="0" unmaskedvalue="18"/>
      <field name="tcp.flags.syn" showname=".... .... ..0. = Syn: Not set" size="1" pos="67" show="0" value="0" unmaskedvalue="18"/>
      <field name="tcp.flags.fin" showname=".... .... ...0 = Fin: Not set" size="1" pos="67" show="0" value="0" unmaskedvalue="18"/>
      <field name="tcp.flags.str" showname="TCP Flags: \xc2\xb7\xc2\xb7\xc2\xb7\xc2\xb7\xc2\xb7\xc2\xb7\xc2\xb7AP\xc2\xb7\xc2\xb7\xc2\xb7" size="2" pos="66" show="\xc2\xb7\xc2\xb7\xc2\xb7\xc2\xb7\xc2\xb7\xc2\xb7\xc2\xb7AP\xc2\xb7\xc2\xb7\xc2\xb7" value="5018"/>
    </field>
    <field name="tcp.window_size_value" showname="Window size value: 28800" size="2" pos="68" show="28800" value="7080"/>
    <field name="tcp.window_size" showname="Calculated window size: 28800" size="2" pos="68" show="28800" value="7080"/>
    <field name="tcp.window_size_scalefactor" showname="Window size scaling factor: -1 (unknown)" size="2" pos="68" show="-1" value="7080"/>
    <field name="tcp.checksum" showname="Checksum: 0x4f8e [unverified]" size="2" pos="70" show="0x00004f8e" value="4f8e"/>
    <field name="tcp.checksum.status" showname="Checksum Status: Unverified" size="0" pos="70" show="2"/>
    <field name="tcp.urgent_pointer" showname="Urgent pointer: 0" size="2" pos="72" show="0" value="0000"/>
    <field name="tcp.analysis" showname="SEQ/ACK analysis" size="0" pos="54" show="" value="">
      <field name="tcp.analysis.bytes_in_flight" showname="Bytes in flight: 2" size="0" pos="54" show="2"/>
      <field name="tcp.analysis.push_bytes_sent" showname="Bytes sent since last PSH flag: 2" size="0" pos="54" show="2"/>
    </field>
    <field name="" show="Timestamps" size="0" pos="54">
      <field name="tcp.time_relative" showname="Time since first frame in this TCP stream: 2.819791000 seconds" size="0" pos="54" show="2.819791000"/>
      <field name="tcp.time_delta" showname="Time since previous frame in this TCP stream: 0.904004000 seconds" size="0" pos="54" show="0.904004000"/>
    </field>
    <field name="tcp.payload" showname="TCP payload (2 bytes)" size="2" pos="74" show="33:0a" value="330a"/>
  </proto>
  <proto name="fake-field-wrapper">
    <field name="data" value="330a">
      <field name="filtered" value="data" />
  </field>
  </proto>
</packet>


<packet>
  <proto name="geninfo" pos="0" showname="General information" size="74">
    <field name="num" pos="0" show="7" showname="Number" value="7" size="74"/>
    <field name="len" pos="0" show="74" showname="Frame Length" value="4a" size="74"/>
    <field name="caplen" pos="0" show="74" showname="Captured Length" value="4a" size="74"/>
    <field name="timestamp" pos="0" show="Oct 25, 2018 17:26:41.038931000 CEST" showname="Captured Time" value="1540481201.038931000" size="74"/>
  </proto>
  <proto name="frame" showname="Frame 7: 74 bytes on wire (592 bits), 74 bytes captured (592 bits)" size="74" pos="0">
    <field name="filtered" value="frame" />
  </proto>
  <proto name="eth" showname="Ethernet II, Src: 36:66:93:b9:6c:1a, Dst: 26:71:ff:fe:ec:1d" size="14" pos="0">
    <field name="filtered" value="eth" />
  </proto>
  <proto name="ipv6" showname="Internet Protocol Version 6, Src: 2001:7ab:3::c, Dst: 2001:7ab:1::a" size="40" pos="14">
    <field name="filtered" value="ipv6" />
  </proto>
  <proto name="tcp" showname="Transmission Control Protocol, Src Port: 1234, Dst Port: 53708, Seq: 3164923749, Ack: 2250678594, Len: 0" size="20" pos="54">
    <field name="tcp.srcport" showname="Source Port: 1234" size="2" pos="54" show="1234" value="04d2"/>
    <field name="tcp.dstport" showname="Destination Port: 53708" size="2" pos="56" show="53708" value="d1cc"/>
    <field name="tcp.port" showname="Source or Destination Port: 1234" hide="yes" size="2" pos="54" show="1234" value="04d2"/>
    <field name="tcp.port" showname="Source or Destination Port: 53708" hide="yes" size="2" pos="56" show="53708" value="d1cc"/>
    <field name="tcp.stream" showname="Stream index: 0" size="0" pos="54" show="0"/>
    <field name="tcp.len" showname="TCP Segment Len: 0" size="1" pos="66" show="0" value="50"/>
    <field name="tcp.seq" showname="Sequence number: 3164923749" size="4" pos="58" show="3164923749" value="bca4e765"/>
    <field name="tcp.nxtseq" showname="Next sequence number: 3164923749" size="0" pos="54" show="3164923749"/>
    <field name="tcp.ack" showname="Acknowledgment number: 2250678594" size="4" pos="62" show="2250678594" value="8626a142"/>
    <field name="tcp.hdr_len" showname="0101 .... = Header Length: 20 bytes (5)" size="1" pos="66" show="20" value="50"/>
    <field name="tcp.flags" showname="Flags: 0x010 (ACK)" size="2" pos="66" show="0x00000010" value="10" unmaskedvalue="5010">
      <field name="tcp.flags.res" showname="000. .... .... = Reserved: Not set" size="1" pos="66" show="0" value="0" unmaskedvalue="50"/>
      <field name="tcp.flags.ns" showname="...0 .... .... = Nonce: Not set" size="1" pos="66" show="0" value="0" unmaskedvalue="50"/>
      <field name="tcp.flags.cwr" showname=".... 0... .... = Congestion Window Reduced (CWR): Not set" size="1" pos="67" show="0" value="0" unmaskedvalue="10"/>
      <field name="tcp.flags.ecn" showname=".... .0.. .... = ECN-Echo: Not set" size="1" pos="67" show="0" value="0" unmaskedvalue="10"/>
      <field name="tcp.flags.urg" showname=".... ..0. .... = Urgent: Not set" size="1" pos="67" show="0" value="0" unmaskedvalue="10"/>
      <field name="tcp.flags.ack" showname=".... ...1 .... = Acknowledgment: Set" size="1" pos="67" show="1" value="1" unmaskedvalue="10"/>
      <field name="tcp.flags.push" showname=".... .... 0... = Push: Not set" size="1" pos="67" show="0" value="0" unmaskedvalue="10"/>
      <field name="tcp.flags.reset" showname=".... .... .0.. = Reset: Not set" size="1" pos="67" show="0" value="0" unmaskedvalue="10"/>
      <field name="tcp.flags.syn" showname=".... .... ..0. = Syn: Not set" size="1" pos="67" show="0" value="0" unmaskedvalue="10"/>
      <field name="tcp.flags.fin" showname=".... .... ...0 = Fin: Not set" size="1" pos="67" show="0" value="0" unmaskedvalue="10"/>
      <field name="tcp.flags.str" showname="TCP Flags: \xc2\xb7\xc2\xb7\xc2\xb7\xc2\xb7\xc2\xb7\xc2\xb7\xc2\xb7A\xc2\xb7\xc2\xb7\xc2\xb7\xc2\xb7" size="2" pos="66" show="\xc2\xb7\xc2\xb7\xc2\xb7\xc2\xb7\xc2\xb7\xc2\xb7\xc2\xb7A\xc2\xb7\xc2\xb7\xc2\xb7\xc2\xb7" value="5010"/>
    </field>
    <field name="tcp.window_size_value" showname="Window size value: 28800" size="2" pos="68" show="28800" value="7080"/>
    <field name="tcp.window_size" showname="Calculated window size: 28800" size="2" pos="68" show="28800" value="7080"/>
    <field name="tcp.window_size_scalefactor" showname="Window size scaling factor: -1 (unknown)" size="2" pos="68" show="-1" value="7080"/>
    <field name="tcp.checksum" showname="Checksum: 0x4f8c [unverified]" size="2" pos="70" show="0x00004f8c" value="4f8c"/>
    <field name="tcp.checksum.status" showname="Checksum Status: Unverified" size="0" pos="70" show="2"/>
    <field name="tcp.urgent_pointer" showname="Urgent pointer: 0" size="2" pos="72" show="0" value="0000"/>
    <field name="tcp.analysis" showname="SEQ/ACK analysis" size="0" pos="54" show="" value="">
      <field name="tcp.analysis.acks_frame" showname="This is an ACK to the segment in frame: 6" size="0" pos="54" show="6"/>
      <field name="tcp.analysis.ack_rtt" showname="The RTT to ACK the segment was: 0.000006000 seconds" size="0" pos="54" show="0.000006000"/>
    </field>
    <field name="" show="Timestamps" size="0" pos="54">
      <field name="tcp.time_relative" showname="Time since first frame in this TCP stream: 2.819797000 seconds" size="0" pos="54" show="2.819797000"/>
      <field name="tcp.time_delta" showname="Time since previous frame in this TCP stream: 0.000006000 seconds" size="0" pos="54" show="0.000006000"/>
    </field>
  </proto>
</packet>


<packet>
  <proto name="geninfo" pos="0" showname="General information" size="76">
    <field name="num" pos="0" show="8" showname="Number" value="8" size="76"/>
    <field name="len" pos="0" show="76" showname="Frame Length" value="4c" size="76"/>
    <field name="caplen" pos="0" show="76" showname="Captured Length" value="4c" size="76"/>
    <field name="timestamp" pos="0" show="Oct 25, 2018 17:26:41.622809000 CEST" showname="Captured Time" value="1540481201.622809000" size="76"/>
  </proto>
  <proto name="frame" showname="Frame 8: 76 bytes on wire (608 bits), 76 bytes captured (608 bits)" size="76" pos="0">
    <field name="filtered" value="frame" />
  </proto>
  <proto name="eth" showname="Ethernet II, Src: 26:71:ff:fe:ec:1d, Dst: 36:66:93:b9:6c:1a" size="14" pos="0">
    <field name="filtered" value="eth" />
  </proto>
  <proto name="ipv6" showname="Internet Protocol Version 6, Src: 2001:7ab:1::a, Dst: 2001:7ab:3::c" size="40" pos="14">
    <field name="filtered" value="ipv6" />
  </proto>
  <proto name="tcp" showname="Transmission Control Protocol, Src Port: 53708, Dst Port: 1234, Seq: 2250678594, Ack: 3164923749, Len: 2" size="20" pos="54">
    <field name="tcp.srcport" showname="Source Port: 53708" size="2" pos="54" show="53708" value="d1cc"/>
    <field name="tcp.dstport" showname="Destination Port: 1234" size="2" pos="56" show="1234" value="04d2"/>
    <field name="tcp.port" showname="Source or Destination Port: 53708" hide="yes" size="2" pos="54" show="53708" value="d1cc"/>
    <field name="tcp.port" showname="Source or Destination Port: 1234" hide="yes" size="2" pos="56" show="1234" value="04d2"/>
    <field name="tcp.stream" showname="Stream index: 0" size="0" pos="54" show="0"/>
    <field name="tcp.len" showname="TCP Segment Len: 2" size="1" pos="66" show="2" value="50"/>
    <field name="tcp.seq" showname="Sequence number: 2250678594" size="4" pos="58" show="2250678594" value="8626a142"/>
    <field name="tcp.nxtseq" showname="Next sequence number: 2250678596" size="0" pos="54" show="2250678596"/>
    <field name="tcp.ack" showname="Acknowledgment number: 3164923749" size="4" pos="62" show="3164923749" value="bca4e765"/>
    <field name="tcp.hdr_len" showname="0101 .... = Header Length: 20 bytes (5)" size="1" pos="66" show="20" value="50"/>
    <field name="tcp.flags" showname="Flags: 0x018 (PSH, ACK)" size="2" pos="66" show="0x00000018" value="18" unmaskedvalue="5018">
      <field name="tcp.flags.res" showname="000. .... .... = Reserved: Not set" size="1" pos="66" show="0" value="0" unmaskedvalue="50"/>
      <field name="tcp.flags.ns" showname="...0 .... .... = Nonce: Not set" size="1" pos="66" show="0" value="0" unmaskedvalue="50"/>
      <field name="tcp.flags.cwr" showname=".... 0... .... = Congestion Window Reduced (CWR): Not set" size="1" pos="67" show="0" value="0" unmaskedvalue="18"/>
      <field name="tcp.flags.ecn" showname=".... .0.. .... = ECN-Echo: Not set" size="1" pos="67" show="0" value="0" unmaskedvalue="18"/>
      <field name="tcp.flags.urg" showname=".... ..0. .... = Urgent: Not set" size="1" pos="67" show="0" value="0" unmaskedvalue="18"/>
      <field name="tcp.flags.ack" showname=".... ...1 .... = Acknowledgment: Set" size="1" pos="67" show="1" value="1" unmaskedvalue="18"/>
      <field name="tcp.flags.push" showname=".... .... 1... = Push: Set" size="1" pos="67" show="1" value="1" unmaskedvalue="18"/>
      <field name="tcp.flags.reset" showname=".... .... .0.. = Reset: Not set" size="1" pos="67" show="0" value="0" unmaskedvalue="18"/>
      <field name="tcp.flags.syn" showname=".... .... ..0. = Syn: Not set" size="1" pos="67" show="0" value="0" unmaskedvalue="18"/>
      <field name="tcp.flags.fin" showname=".... .... ...0 = Fin: Not set" size="1" pos="67" show="0" value="0" unmaskedvalue="18"/>
      <field name="tcp.flags.str" showname="TCP Flags: \xc2\xb7\xc2\xb7\xc2\xb7\xc2\xb7\xc2\xb7\xc2\xb7\xc2\xb7AP\xc2\xb7\xc2\xb7\xc2\xb7" size="2" pos="66" show="\xc2\xb7\xc2\xb7\xc2\xb7\xc2\xb7\xc2\xb7\xc2\xb7\xc2\xb7AP\xc2\xb7\xc2\xb7\xc2\xb7" value="5018"/>
    </field>
    <field name="tcp.window_size_value" showname="Window size value: 28800" size="2" pos="68" show="28800" value="7080"/>
    <field name="tcp.window_size" showname="Calculated window size: 28800" size="2" pos="68" show="28800" value="7080"/>
    <field name="tcp.window_size_scalefactor" showname="Window size scaling factor: -1 (unknown)" size="2" pos="68" show="-1" value="7080"/>
    <field name="tcp.checksum" showname="Checksum: 0x4f8e [unverified]" size="2" pos="70" show="0x00004f8e" value="4f8e"/>
    <field name="tcp.checksum.status" showname="Checksum Status: Unverified" size="0" pos="70" show="2"/>
    <field name="tcp.urgent_pointer" showname="Urgent pointer: 0" size="2" pos="72" show="0" value="0000"/>
    <field name="tcp.analysis" showname="SEQ/ACK analysis" size="0" pos="54" show="" value="">
      <field name="tcp.analysis.bytes_in_flight" showname="Bytes in flight: 2" size="0" pos="54" show="2"/>
      <field name="tcp.analysis.push_bytes_sent" showname="Bytes sent since last PSH flag: 2" size="0" pos="54" show="2"/>
    </field>
    <field name="" show="Timestamps" size="0" pos="54">
      <field name="tcp.time_relative" showname="Time since first frame in this TCP stream: 3.403675000 seconds" size="0" pos="54" show="3.403675000"/>
      <field name="tcp.time_delta" showname="Time since previous frame in this TCP stream: 0.583878000 seconds" size="0" pos="54" show="0.583878000"/>
    </field>
    <field name="tcp.payload" showname="TCP payload (2 bytes)" size="2" pos="74" show="34:0a" value="340a"/>
  </proto>
  <proto name="fake-field-wrapper">
    <field name="data" value="340a">
      <field name="filtered" value="data" />
  </field>
  </proto>
</packet>


<packet>
  <proto name="geninfo" pos="0" showname="General information" size="74">
    <field name="num" pos="0" show="9" showname="Number" value="9" size="74"/>
    <field name="len" pos="0" show="74" showname="Frame Length" value="4a" size="74"/>
    <field name="caplen" pos="0" show="74" showname="Captured Length" value="4a" size="74"/>
    <field name="timestamp" pos="0" show="Oct 25, 2018 17:26:41.622816000 CEST" showname="Captured Time" value="1540481201.622816000" size="74"/>
  </proto>
  <proto name="frame" showname="Frame 9: 74 bytes on wire (592 bits), 74 bytes captured (592 bits)" size="74" pos="0">
    <field name="filtered" value="frame" />
  </proto>
  <proto name="eth" showname="Ethernet II, Src: 36:66:93:b9:6c:1a, Dst: 26:71:ff:fe:ec:1d" size="14" pos="0">
    <field name="filtered" value="eth" />
  </proto>
  <proto name="ipv6" showname="Internet Protocol Version 6, Src: 2001:7ab:3::c, Dst: 2001:7ab:1::a" size="40" pos="14">
    <field name="filtered" value="ipv6" />
  </proto>
  <proto name="tcp" showname="Transmission Control Protocol, Src Port: 1234, Dst Port: 53708, Seq: 3164923749, Ack: 2250678596, Len: 0" size="20" pos="54">
    <field name="tcp.srcport" showname="Source Port: 1234" size="2" pos="54" show="1234" value="04d2"/>
    <field name="tcp.dstport" showname="Destination Port: 53708" size="2" pos="56" show="53708" value="d1cc"/>
    <field name="tcp.port" showname="Source or Destination Port: 1234" hide="yes" size="2" pos="54" show="1234" value="04d2"/>
    <field name="tcp.port" showname="Source or Destination Port: 53708" hide="yes" size="2" pos="56" show="53708" value="d1cc"/>
    <field name="tcp.stream" showname="Stream index: 0" size="0" pos="54" show="0"/>
    <field name="tcp.len" showname="TCP Segment Len: 0" size="1" pos="66" show="0" value="50"/>
    <field name="tcp.seq" showname="Sequence number: 3164923749" size="4" pos="58" show="3164923749" value="bca4e765"/>
    <field name="tcp.nxtseq" showname="Next sequence number: 3164923749" size="0" pos="54" show="3164923749"/>
    <field name="tcp.ack" showname="Acknowledgment number: 2250678596" size="4" pos="62" show="2250678596" value="8626a144"/>
    <field name="tcp.hdr_len" showname="0101 .... = Header Length: 20 bytes (5)" size="1" pos="66" show="20" value="50"/>
    <field name="tcp.flags" showname="Flags: 0x010 (ACK)" size="2" pos="66" show="0x00000010" value="10" unmaskedvalue="5010">
      <field name="tcp.flags.res" showname="000. .... .... = Reserved: Not set" size="1" pos="66" show="0" value="0" unmaskedvalue="50"/>
      <field name="tcp.flags.ns" showname="...0 .... .... = Nonce: Not set" size="1" pos="66" show="0" value="0" unmaskedvalue="50"/>
      <field name="tcp.flags.cwr" showname=".... 0... .... = Congestion Window Reduced (CWR): Not set" size="1" pos="67" show="0" value="0" unmaskedvalue="10"/>
      <field name="tcp.flags.ecn" showname=".... .0.. .... = ECN-Echo: Not set" size="1" pos="67" show="0" value="0" unmaskedvalue="10"/>
      <field name="tcp.flags.urg" showname=".... ..0. .... = Urgent: Not set" size="1" pos="67" show="0" value="0" unmaskedvalue="10"/>
      <field name="tcp.flags.ack" showname=".... ...1 .... = Acknowledgment: Set" size="1" pos="67" show="1" value="1" unmaskedvalue="10"/>
      <field name="tcp.flags.push" showname=".... .... 0... = Push: Not set" size="1" pos="67" show="0" value="0" unmaskedvalue="10"/>
      <field name="tcp.flags.reset" showname=".... .... .0.. = Reset: Not set" size="1" pos="67" show="0" value="0" unmaskedvalue="10"/>
      <field name="tcp.flags.syn" showname=".... .... ..0. = Syn: Not set" size="1" pos="67" show="0" value="0" unmaskedvalue="10"/>
      <field name="tcp.flags.fin" showname=".... .... ...0 = Fin: Not set" size="1" pos="67" show="0" value="0" unmaskedvalue="10"/>
      <field name="tcp.flags.str" showname="TCP Flags: \xc2\xb7\xc2\xb7\xc2\xb7\xc2\xb7\xc2\xb7\xc2\xb7\xc2\xb7A\xc2\xb7\xc2\xb7\xc2\xb7\xc2\xb7" size="2" pos="66" show="\xc2\xb7\xc2\xb7\xc2\xb7\xc2\xb7\xc2\xb7\xc2\xb7\xc2\xb7A\xc2\xb7\xc2\xb7\xc2\xb7\xc2\xb7" value="5010"/>
    </field>
    <field name="tcp.window_size_value" showname="Window size value: 28800" size="2" pos="68" show="28800" value="7080"/>
    <field name="tcp.window_size" showname="Calculated window size: 28800" size="2" pos="68" show="28800" value="7080"/>
    <field name="tcp.window_size_scalefactor" showname="Window size scaling factor: -1 (unknown)" size="2" pos="68" show="-1" value="7080"/>
    <field name="tcp.checksum" showname="Checksum: 0x4f8c [unverified]" size="2" pos="70" show="0x00004f8c" value="4f8c"/>
    <field name="tcp.checksum.status" showname="Checksum Status: Unverified" size="0" pos="70" show="2"/>
    <field name="tcp.urgent_pointer" showname="Urgent pointer: 0" size="2" pos="72" show="0" value="0000"/>
    <field name="tcp.analysis" showname="SEQ/ACK analysis" size="0" pos="54" show="" value="">
      <field name="tcp.analysis.acks_frame" showname="This is an ACK to the segment in frame: 8" size="0" pos="54" show="8"/>
      <field name="tcp.analysis.ack_rtt" showname="The RTT to ACK the segment was: 0.000007000 seconds" size="0" pos="54" show="0.000007000"/>
    </field>
    <field name="" show="Timestamps" size="0" pos="54">
      <field name="tcp.time_relative" showname="Time since first frame in this TCP stream: 3.403682000 seconds" size="0" pos="54" show="3.403682000"/>
      <field name="tcp.time_delta" showname="Time since previous frame in this TCP stream: 0.000007000 seconds" size="0" pos="54" show="0.000007000"/>
    </field>
  </proto>
</packet>


</pdml>
