<?xml version="1.0" encoding="utf-8"?>
<?xml-stylesheet type="text/xsl" href="pdml2html.xsl"?>
<!-- You can find pdml2html.xsl in /Applications/Wireshark.app/Contents/Resources/share/wireshark or at https://code.wireshark.org/review/gitweb?p=wireshark.git;a=blob_plain;f=pdml2html.xsl. -->
<pdml version="0" creator="wireshark/3.0.1" time="Thu May 16 11:07:04 2019" capture_file="tcp-fin/tcp-rfc793-82-89.pcap">
<packet>
  <proto name="geninfo" pos="0" showname="General information" size="78">
    <field name="num" pos="0" show="1" showname="Number" value="1" size="78"/>
    <field name="len" pos="0" show="78" showname="Frame Length" value="4e" size="78"/>
    <field name="caplen" pos="0" show="78" showname="Captured Length" value="4e" size="78"/>
    <field name="timestamp" pos="0" show="Oct 25, 2018 17:27:09.617467000 CEST" showname="Captured Time" value="1540481229.617467000" size="78"/>
  </proto>
  <proto name="frame" showname="Frame 1: 78 bytes on wire (624 bits), 78 bytes captured (624 bits)" size="78" pos="0">
    <field name="filtered" value="frame" />
  </proto>
  <proto name="eth" showname="Ethernet II, Src: 26:71:ff:fe:ec:1d, Dst: 36:66:93:b9:6c:1a" size="14" pos="0">
    <field name="filtered" value="eth" />
  </proto>
  <proto name="ipv6" showname="Internet Protocol Version 6, Src: 2001:7ab:1::a, Dst: 2001:7ab:3::c" size="40" pos="14">
    <field name="filtered" value="ipv6" />
  </proto>
  <proto name="tcp" showname="Transmission Control Protocol, Src Port: 53716, Dst Port: 1234, Seq: 0, Len: 0" size="24" pos="54">
    <field name="tcp.srcport" showname="Source Port: 53716" size="2" pos="54" show="53716" value="d1d4"/>
    <field name="tcp.dstport" showname="Destination Port: 1234" size="2" pos="56" show="1234" value="04d2"/>
    <field name="tcp.port" showname="Source or Destination Port: 53716" hide="yes" size="2" pos="54" show="53716" value="d1d4"/>
    <field name="tcp.port" showname="Source or Destination Port: 1234" hide="yes" size="2" pos="56" show="1234" value="04d2"/>
    <field name="tcp.stream" showname="Stream index: 0" size="0" pos="54" show="0"/>
    <field name="tcp.len" showname="TCP Segment Len: 0" size="1" pos="66" show="0" value="60"/>
    <field name="tcp.seq" showname="Sequence number: 0    (relative sequence number)" size="4" pos="58" show="0" value="cb01e4f8"/>
    <field name="tcp.nxtseq" showname="Next sequence number: 0    (relative sequence number)" size="0" pos="54" show="0"/>
    <field name="tcp.ack" showname="Acknowledgment number: 0" size="4" pos="62" show="0" value="00000000"/>
    <field name="tcp.hdr_len" showname="0110 .... = Header Length: 24 bytes (6)" size="1" pos="66" show="24" value="60"/>
    <field name="tcp.flags" showname="Flags: 0x002 (SYN)" size="2" pos="66" show="0x00000002" value="2" unmaskedvalue="6002">
      <field name="tcp.flags.res" showname="000. .... .... = Reserved: Not set" size="1" pos="66" show="0" value="0" unmaskedvalue="60"/>
      <field name="tcp.flags.ns" showname="...0 .... .... = Nonce: Not set" size="1" pos="66" show="0" value="0" unmaskedvalue="60"/>
      <field name="tcp.flags.cwr" showname=".... 0... .... = Congestion Window Reduced (CWR): Not set" size="1" pos="67" show="0" value="0" unmaskedvalue="02"/>
      <field name="tcp.flags.ecn" showname=".... .0.. .... = ECN-Echo: Not set" size="1" pos="67" show="0" value="0" unmaskedvalue="02"/>
      <field name="tcp.flags.urg" showname=".... ..0. .... = Urgent: Not set" size="1" pos="67" show="0" value="0" unmaskedvalue="02"/>
      <field name="tcp.flags.ack" showname=".... ...0 .... = Acknowledgment: Not set" size="1" pos="67" show="0" value="0" unmaskedvalue="02"/>
      <field name="tcp.flags.push" showname=".... .... 0... = Push: Not set" size="1" pos="67" show="0" value="0" unmaskedvalue="02"/>
      <field name="tcp.flags.reset" showname=".... .... .0.. = Reset: Not set" size="1" pos="67" show="0" value="0" unmaskedvalue="02"/>
      <field name="tcp.flags.syn" showname=".... .... ..1. = Syn: Set" size="1" pos="67" show="1" value="1" unmaskedvalue="02">
        <field name="_ws.expert" showname="Expert Info (Chat/Sequence): Connection establish request (SYN): server port 1234" size="0" pos="67">
          <field name="tcp.connection.syn" showname="Connection establish request (SYN): server port 1234" size="0" pos="0" show="" value=""/>
          <field name="_ws.expert.message" showname="Message: Connection establish request (SYN): server port 1234" hide="yes" size="0" pos="0" show="Connection establish request (SYN): server port 1234"/>
          <field name="_ws.expert.severity" showname="Severity level: Chat" size="0" pos="0" show="2097152"/>
          <field name="_ws.expert.group" showname="Group: Sequence" size="0" pos="0" show="33554432"/>
        </field>
      </field>
      <field name="tcp.flags.fin" showname=".... .... ...0 = Fin: Not set" size="1" pos="67" show="0" value="0" unmaskedvalue="02"/>
      <field name="tcp.flags.str" showname="TCP Flags: \xc2\xb7\xc2\xb7\xc2\xb7\xc2\xb7\xc2\xb7\xc2\xb7\xc2\xb7\xc2\xb7\xc2\xb7\xc2\xb7S\xc2\xb7" size="2" pos="66" show="\xc2\xb7\xc2\xb7\xc2\xb7\xc2\xb7\xc2\xb7\xc2\xb7\xc2\xb7\xc2\xb7\xc2\xb7\xc2\xb7S\xc2\xb7" value="6002"/>
    </field>
    <field name="tcp.window_size_value" showname="Window size value: 28800" size="2" pos="68" show="28800" value="7080"/>
    <field name="tcp.window_size" showname="Calculated window size: 28800" size="2" pos="68" show="28800" value="7080"/>
    <field name="tcp.checksum" showname="Checksum: 0x4f90 [unverified]" size="2" pos="70" show="0x00004f90" value="4f90"/>
    <field name="tcp.checksum.status" showname="Checksum Status: Unverified" size="0" pos="70" show="2"/>
    <field name="tcp.urgent_pointer" showname="Urgent pointer: 0" size="2" pos="72" show="0" value="0000"/>
    <field name="tcp.options" showname="Options: (4 bytes), Maximum segment size" size="4" pos="74" show="02:04:05:a0" value="020405a0">
      <field name="tcp.options.mss" showname="TCP Option - Maximum segment size: 1440 bytes" size="4" pos="74" show="02:04:05:a0" value="020405a0">
        <field name="tcp.option_kind" showname="Kind: Maximum Segment Size (2)" size="1" pos="74" show="2" value="02"/>
        <field name="tcp.option_len" showname="Length: 4" size="1" pos="75" show="4" value="04"/>
        <field name="tcp.options.mss_val" showname="MSS Value: 1440" size="2" pos="76" show="1440" value="05a0"/>
      </field>
    </field>
    <field name="" show="Timestamps" size="0" pos="54">
      <field name="tcp.time_relative" showname="Time since first frame in this TCP stream: 0.000000000 seconds" size="0" pos="54" show="0.000000000"/>
      <field name="tcp.time_delta" showname="Time since previous frame in this TCP stream: 0.000000000 seconds" size="0" pos="54" show="0.000000000"/>
    </field>
  </proto>
</packet>


<packet>
  <proto name="geninfo" pos="0" showname="General information" size="78">
    <field name="num" pos="0" show="2" showname="Number" value="2" size="78"/>
    <field name="len" pos="0" show="78" showname="Frame Length" value="4e" size="78"/>
    <field name="caplen" pos="0" show="78" showname="Captured Length" value="4e" size="78"/>
    <field name="timestamp" pos="0" show="Oct 25, 2018 17:27:09.617529000 CEST" showname="Captured Time" value="1540481229.617529000" size="78"/>
  </proto>
  <proto name="frame" showname="Frame 2: 78 bytes on wire (624 bits), 78 bytes captured (624 bits)" size="78" pos="0">
    <field name="filtered" value="frame" />
  </proto>
  <proto name="eth" showname="Ethernet II, Src: 36:66:93:b9:6c:1a, Dst: 26:71:ff:fe:ec:1d" size="14" pos="0">
    <field name="filtered" value="eth" />
  </proto>
  <proto name="ipv6" showname="Internet Protocol Version 6, Src: 2001:7ab:3::c, Dst: 2001:7ab:1::a" size="40" pos="14">
    <field name="filtered" value="ipv6" />
  </proto>
  <proto name="tcp" showname="Transmission Control Protocol, Src Port: 1234, Dst Port: 53716, Seq: 0, Ack: 1, Len: 0" size="24" pos="54">
    <field name="tcp.srcport" showname="Source Port: 1234" size="2" pos="54" show="1234" value="04d2"/>
    <field name="tcp.dstport" showname="Destination Port: 53716" size="2" pos="56" show="53716" value="d1d4"/>
    <field name="tcp.port" showname="Source or Destination Port: 1234" hide="yes" size="2" pos="54" show="1234" value="04d2"/>
    <field name="tcp.port" showname="Source or Destination Port: 53716" hide="yes" size="2" pos="56" show="53716" value="d1d4"/>
    <field name="tcp.stream" showname="Stream index: 0" size="0" pos="54" show="0"/>
    <field name="tcp.len" showname="TCP Segment Len: 0" size="1" pos="66" show="0" value="60"/>
    <field name="tcp.seq" showname="Sequence number: 0    (relative sequence number)" size="4" pos="58" show="0" value="8253f648"/>
    <field name="tcp.nxtseq" showname="Next sequence number: 0    (relative sequence number)" size="0" pos="54" show="0"/>
    <field name="tcp.ack" showname="Acknowledgment number: 1    (relative ack number)" size="4" pos="62" show="1" value="cb01e4f9"/>
    <field name="tcp.hdr_len" showname="0110 .... = Header Length: 24 bytes (6)" size="1" pos="66" show="24" value="60"/>
    <field name="tcp.flags" showname="Flags: 0x012 (SYN, ACK)" size="2" pos="66" show="0x00000012" value="12" unmaskedvalue="6012">
      <field name="tcp.flags.res" showname="000. .... .... = Reserved: Not set" size="1" pos="66" show="0" value="0" unmaskedvalue="60"/>
      <field name="tcp.flags.ns" showname="...0 .... .... = Nonce: Not set" size="1" pos="66" show="0" value="0" unmaskedvalue="60"/>
      <field name="tcp.flags.cwr" showname=".... 0... .... = Congestion Window Reduced (CWR): Not set" size="1" pos="67" show="0" value="0" unmaskedvalue="12"/>
      <field name="tcp.flags.ecn" showname=".... .0.. .... = ECN-Echo: Not set" size="1" pos="67" show="0" value="0" unmaskedvalue="12"/>
      <field name="tcp.flags.urg" showname=".... ..0. .... = Urgent: Not set" size="1" pos="67" show="0" value="0" unmaskedvalue="12"/>
      <field name="tcp.flags.ack" showname=".... ...1 .... = Acknowledgment: Set" size="1" pos="67" show="1" value="1" unmaskedvalue="12"/>
      <field name="tcp.flags.push" showname=".... .... 0... = Push: Not set" size="1" pos="67" show="0" value="0" unmaskedvalue="12"/>
      <field name="tcp.flags.reset" showname=".... .... .0.. = Reset: Not set" size="1" pos="67" show="0" value="0" unmaskedvalue="12"/>
      <field name="tcp.flags.syn" showname=".... .... ..1. = Syn: Set" size="1" pos="67" show="1" value="1" unmaskedvalue="12">
        <field name="_ws.expert" showname="Expert Info (Chat/Sequence): Connection establish acknowledge (SYN+ACK): server port 1234" size="0" pos="67">
          <field name="tcp.connection.sack" showname="Connection establish acknowledge (SYN+ACK): server port 1234" size="0" pos="0" show="" value=""/>
          <field name="_ws.expert.message" showname="Message: Connection establish acknowledge (SYN+ACK): server port 1234" hide="yes" size="0" pos="0" show="Connection establish acknowledge (SYN+ACK): server port 1234"/>
          <field name="_ws.expert.severity" showname="Severity level: Chat" size="0" pos="0" show="2097152"/>
          <field name="_ws.expert.group" showname="Group: Sequence" size="0" pos="0" show="33554432"/>
        </field>
      </field>
      <field name="tcp.flags.fin" showname=".... .... ...0 = Fin: Not set" size="1" pos="67" show="0" value="0" unmaskedvalue="12"/>
      <field name="tcp.flags.str" showname="TCP Flags: \xc2\xb7\xc2\xb7\xc2\xb7\xc2\xb7\xc2\xb7\xc2\xb7\xc2\xb7A\xc2\xb7\xc2\xb7S\xc2\xb7" size="2" pos="66" show="\xc2\xb7\xc2\xb7\xc2\xb7\xc2\xb7\xc2\xb7\xc2\xb7\xc2\xb7A\xc2\xb7\xc2\xb7S\xc2\xb7" value="6012"/>
    </field>
    <field name="tcp.window_size_value" showname="Window size value: 28800" size="2" pos="68" show="28800" value="7080"/>
    <field name="tcp.window_size" showname="Calculated window size: 28800" size="2" pos="68" show="28800" value="7080"/>
    <field name="tcp.checksum" showname="Checksum: 0x4f90 [unverified]" size="2" pos="70" show="0x00004f90" value="4f90"/>
    <field name="tcp.checksum.status" showname="Checksum Status: Unverified" size="0" pos="70" show="2"/>
    <field name="tcp.urgent_pointer" showname="Urgent pointer: 0" size="2" pos="72" show="0" value="0000"/>
    <field name="tcp.options" showname="Options: (4 bytes), Maximum segment size" size="4" pos="74" show="02:04:05:a0" value="020405a0">
      <field name="tcp.options.mss" showname="TCP Option - Maximum segment size: 1440 bytes" size="4" pos="74" show="02:04:05:a0" value="020405a0">
        <field name="tcp.option_kind" showname="Kind: Maximum Segment Size (2)" size="1" pos="74" show="2" value="02"/>
        <field name="tcp.option_len" showname="Length: 4" size="1" pos="75" show="4" value="04"/>
        <field name="tcp.options.mss_val" showname="MSS Value: 1440" size="2" pos="76" show="1440" value="05a0"/>
      </field>
    </field>
    <field name="tcp.analysis" showname="SEQ/ACK analysis" size="0" pos="54" show="" value="">
      <field name="tcp.analysis.acks_frame" showname="This is an ACK to the segment in frame: 1" size="0" pos="54" show="1"/>
      <field name="tcp.analysis.ack_rtt" showname="The RTT to ACK the segment was: 0.000062000 seconds" size="0" pos="54" show="0.000062000"/>
    </field>
    <field name="" show="Timestamps" size="0" pos="54">
      <field name="tcp.time_relative" showname="Time since first frame in this TCP stream: 0.000062000 seconds" size="0" pos="54" show="0.000062000"/>
      <field name="tcp.time_delta" showname="Time since previous frame in this TCP stream: 0.000062000 seconds" size="0" pos="54" show="0.000062000"/>
    </field>
  </proto>
</packet>


<packet>
  <proto name="geninfo" pos="0" showname="General information" size="74">
    <field name="num" pos="0" show="3" showname="Number" value="3" size="74"/>
    <field name="len" pos="0" show="74" showname="Frame Length" value="4a" size="74"/>
    <field name="caplen" pos="0" show="74" showname="Captured Length" value="4a" size="74"/>
    <field name="timestamp" pos="0" show="Oct 25, 2018 17:27:09.617557000 CEST" showname="Captured Time" value="1540481229.617557000" size="74"/>
  </proto>
  <proto name="frame" showname="Frame 3: 74 bytes on wire (592 bits), 74 bytes captured (592 bits)" size="74" pos="0">
    <field name="filtered" value="frame" />
  </proto>
  <proto name="eth" showname="Ethernet II, Src: 26:71:ff:fe:ec:1d, Dst: 36:66:93:b9:6c:1a" size="14" pos="0">
    <field name="filtered" value="eth" />
  </proto>
  <proto name="ipv6" showname="Internet Protocol Version 6, Src: 2001:7ab:1::a, Dst: 2001:7ab:3::c" size="40" pos="14">
    <field name="filtered" value="ipv6" />
  </proto>
  <proto name="tcp" showname="Transmission Control Protocol, Src Port: 53716, Dst Port: 1234, Seq: 1, Ack: 1, Len: 0" size="20" pos="54">
    <field name="tcp.srcport" showname="Source Port: 53716" size="2" pos="54" show="53716" value="d1d4"/>
    <field name="tcp.dstport" showname="Destination Port: 1234" size="2" pos="56" show="1234" value="04d2"/>
    <field name="tcp.port" showname="Source or Destination Port: 53716" hide="yes" size="2" pos="54" show="53716" value="d1d4"/>
    <field name="tcp.port" showname="Source or Destination Port: 1234" hide="yes" size="2" pos="56" show="1234" value="04d2"/>
    <field name="tcp.stream" showname="Stream index: 0" size="0" pos="54" show="0"/>
    <field name="tcp.len" showname="TCP Segment Len: 0" size="1" pos="66" show="0" value="50"/>
    <field name="tcp.seq" showname="Sequence number: 1    (relative sequence number)" size="4" pos="58" show="1" value="cb01e4f9"/>
    <field name="tcp.nxtseq" showname="Next sequence number: 1    (relative sequence number)" size="0" pos="54" show="1"/>
    <field name="tcp.ack" showname="Acknowledgment number: 1    (relative ack number)" size="4" pos="62" show="1" value="8253f649"/>
    <field name="tcp.hdr_len" showname="0101 .... = Header Length: 20 bytes (5)" size="1" pos="66" show="20" value="50"/>
    <field name="tcp.flags" showname="Flags: 0x010 (ACK)" size="2" pos="66" show="0x00000010" value="10" unmaskedvalue="5010">
      <field name="tcp.flags.res" showname="000. .... .... = Reserved: Not set" size="1" pos="66" show="0" value="0" unmaskedvalue="50"/>
      <field name="tcp.flags.ns" showname="...0 .... .... = Nonce: Not set" size="1" pos="66" show="0" value="0" unmaskedvalue="50"/>
      <field name="tcp.flags.cwr" showname=".... 0... .... = Congestion Window Reduced (CWR): Not set" size="1" pos="67" show="0" value="0" unmaskedvalue="10"/>
      <field name="tcp.flags.ecn" showname=".... .0.. .... = ECN-Echo: Not set" size="1" pos="67" show="0" value="0" unmaskedvalue="10"/>
      <field name="tcp.flags.urg" showname=".... ..0. .... = Urgent: Not set" size="1" pos="67" show="0" value="0" unmaskedvalue="10"/>
      <field name="tcp.flags.ack" showname=".... ...1 .... = Acknowledgment: Set" size="1" pos="67" show="1" value="1" unmaskedvalue="10"/>
      <field name="tcp.flags.push" showname=".... .... 0... = Push: Not set" size="1" pos="67" show="0" value="0" unmaskedvalue="10"/>
      <field name="tcp.flags.reset" showname=".... .... .0.. = Reset: Not set" size="1" pos="67" show="0" value="0" unmaskedvalue="10"/>
      <field name="tcp.flags.syn" showname=".... .... ..0. = Syn: Not set" size="1" pos="67" show="0" value="0" unmaskedvalue="10"/>
      <field name="tcp.flags.fin" showname=".... .... ...0 = Fin: Not set" size="1" pos="67" show="0" value="0" unmaskedvalue="10"/>
      <field name="tcp.flags.str" showname="TCP Flags: \xc2\xb7\xc2\xb7\xc2\xb7\xc2\xb7\xc2\xb7\xc2\xb7\xc2\xb7A\xc2\xb7\xc2\xb7\xc2\xb7\xc2\xb7" size="2" pos="66" show="\xc2\xb7\xc2\xb7\xc2\xb7\xc2\xb7\xc2\xb7\xc2\xb7\xc2\xb7A\xc2\xb7\xc2\xb7\xc2\xb7\xc2\xb7" value="5010"/>
    </field>
    <field name="tcp.window_size_value" showname="Window size value: 28800" size="2" pos="68" show="28800" value="7080"/>
    <field name="tcp.window_size" showname="Calculated window size: 28800" size="2" pos="68" show="28800" value="7080"/>
    <field name="tcp.window_size_scalefactor" showname="Window size scaling factor: -2 (no window scaling used)" size="2" pos="68" show="-2" value="7080"/>
    <field name="tcp.checksum" showname="Checksum: 0x4f8c [unverified]" size="2" pos="70" show="0x00004f8c" value="4f8c"/>
    <field name="tcp.checksum.status" showname="Checksum Status: Unverified" size="0" pos="70" show="2"/>
    <field name="tcp.urgent_pointer" showname="Urgent pointer: 0" size="2" pos="72" show="0" value="0000"/>
    <field name="tcp.analysis" showname="SEQ/ACK analysis" size="0" pos="54" show="" value="">
      <field name="tcp.analysis.acks_frame" showname="This is an ACK to the segment in frame: 2" size="0" pos="54" show="2"/>
      <field name="tcp.analysis.ack_rtt" showname="The RTT to ACK the segment was: 0.000028000 seconds" size="0" pos="54" show="0.000028000"/>
      <field name="tcp.analysis.initial_rtt" showname="iRTT: 0.000090000 seconds" size="0" pos="54" show="0.000090000"/>
    </field>
    <field name="" show="Timestamps" size="0" pos="54">
      <field name="tcp.time_relative" showname="Time since first frame in this TCP stream: 0.000090000 seconds" size="0" pos="54" show="0.000090000"/>
      <field name="tcp.time_delta" showname="Time since previous frame in this TCP stream: 0.000028000 seconds" size="0" pos="54" show="0.000028000"/>
    </field>
  </proto>
</packet>


<packet>
  <proto name="geninfo" pos="0" showname="General information" size="75">
    <field name="num" pos="0" show="4" showname="Number" value="4" size="75"/>
    <field name="len" pos="0" show="75" showname="Frame Length" value="4b" size="75"/>
    <field name="caplen" pos="0" show="75" showname="Captured Length" value="4b" size="75"/>
    <field name="timestamp" pos="0" show="Oct 25, 2018 17:27:09.876956000 CEST" showname="Captured Time" value="1540481229.876956000" size="75"/>
  </proto>
  <proto name="frame" showname="Frame 4: 75 bytes on wire (600 bits), 75 bytes captured (600 bits)" size="75" pos="0">
    <field name="filtered" value="frame" />
  </proto>
  <proto name="eth" showname="Ethernet II, Src: 26:71:ff:fe:ec:1d, Dst: 36:66:93:b9:6c:1a" size="14" pos="0">
    <field name="filtered" value="eth" />
  </proto>
  <proto name="ipv6" showname="Internet Protocol Version 6, Src: 2001:7ab:1::a, Dst: 2001:7ab:3::c" size="40" pos="14">
    <field name="filtered" value="ipv6" />
  </proto>
  <proto name="tcp" showname="Transmission Control Protocol, Src Port: 53716, Dst Port: 1234, Seq: 1, Ack: 1, Len: 1" size="20" pos="54">
    <field name="tcp.srcport" showname="Source Port: 53716" size="2" pos="54" show="53716" value="d1d4"/>
    <field name="tcp.dstport" showname="Destination Port: 1234" size="2" pos="56" show="1234" value="04d2"/>
    <field name="tcp.port" showname="Source or Destination Port: 53716" hide="yes" size="2" pos="54" show="53716" value="d1d4"/>
    <field name="tcp.port" showname="Source or Destination Port: 1234" hide="yes" size="2" pos="56" show="1234" value="04d2"/>
    <field name="tcp.stream" showname="Stream index: 0" size="0" pos="54" show="0"/>
    <field name="tcp.len" showname="TCP Segment Len: 1" size="1" pos="66" show="1" value="50"/>
    <field name="tcp.seq" showname="Sequence number: 1    (relative sequence number)" size="4" pos="58" show="1" value="cb01e4f9"/>
    <field name="tcp.nxtseq" showname="Next sequence number: 2    (relative sequence number)" size="0" pos="54" show="2"/>
    <field name="tcp.ack" showname="Acknowledgment number: 1    (relative ack number)" size="4" pos="62" show="1" value="8253f649"/>
    <field name="tcp.hdr_len" showname="0101 .... = Header Length: 20 bytes (5)" size="1" pos="66" show="20" value="50"/>
    <field name="tcp.flags" showname="Flags" size="2" pos="66" show="0x00000018" value="18" unmaskedvalue="5018">
      <field name="tcp.flags.res" showname="000. .... .... = Reserved: Not set" size="1" pos="66" show="0" value="0" unmaskedvalue="50"/>
      <field name="tcp.flags.ns" showname="...0 .... .... = Nonce: Not set" size="1" pos="66" show="0" value="0" unmaskedvalue="50"/>
      <field name="tcp.flags.cwr" showname=".... 0... .... = Congestion Window Reduced (CWR): Not set" size="1" pos="67" show="0" value="0" unmaskedvalue="18"/>
      <field name="tcp.flags.ecn" showname=".... .0.. .... = ECN-Echo: Not set" size="1" pos="67" show="0" value="0" unmaskedvalue="18"/>
      <field name="tcp.flags.urg" showname=".... ..0. .... = Urgent: Not set" size="1" pos="67" show="0" value="0" unmaskedvalue="18"/>
      <field name="tcp.flags.ack" showname=".... ...1 .... = Acknowledgment: Set" size="1" pos="67" show="1" value="1" unmaskedvalue="18"/>
      <field name="tcp.flags.push" showname=".... .... 1... = Push: Set" size="1" pos="67" show="1" value="1" unmaskedvalue="18"/>
      <field name="tcp.flags.reset" showname=".... .... .0.. = Reset: Not set" size="1" pos="67" show="0" value="0" unmaskedvalue="18"/>
      <field name="tcp.flags.syn" showname=".... .... ..0. = Syn: Not set" size="1" pos="67" show="0" value="0" unmaskedvalue="18"/>
      <field name="tcp.flags.fin" showname=".... .... ...0 = Fin: Not set" size="1" pos="67" show="0" value="0" unmaskedvalue="18"/>
      <field name="tcp.flags.str" showname="TCP Flags: \xc2\xb7\xc2\xb7\xc2\xb7\xc2\xb7\xc2\xb7\xc2\xb7\xc2\xb7AP\xc2\xb7\xc2\xb7\xc2\xb7" size="2" pos="66" show="\xc2\xb7\xc2\xb7\xc2\xb7\xc2\xb7\xc2\xb7\xc2\xb7\xc2\xb7AP\xc2\xb7\xc2\xb7\xc2\xb7" value="5018"/>
    </field>
    <field name="tcp.window_size_value" showname="Window size value: 28800" size="2" pos="68" show="28800" value="7080"/>
    <field name="tcp.window_size" showname="Calculated window size: 28800" size="2" pos="68" show="28800" value="7080"/>
    <field name="tcp.window_size_scalefactor" showname="Window size scaling factor: -2 (no window scaling used)" size="2" pos="68" show="-2" value="7080"/>
    <field name="tcp.checksum" showname="Checksum: 0x4f8d [unverified]" size="2" pos="70" show="0x00004f8d" value="4f8d"/>
    <field name="tcp.checksum.status" showname="Checksum Status: Unverified" size="0" pos="70" show="2"/>
    <field name="tcp.urgent_pointer" showname="Urgent pointer: 0" size="2" pos="72" show="0" value="0000"/>
    <field name="tcp.analysis" showname="SEQ/ACK analysis" size="0" pos="54" show="" value="">
      <field name="tcp.analysis.initial_rtt" showname="iRTT: 0.000090000 seconds" size="0" pos="54" show="0.000090000"/>
      <field name="tcp.analysis.bytes_in_flight" showname="Bytes in flight: 1" size="0" pos="54" show="1"/>
      <field name="tcp.analysis.push_bytes_sent" showname="Bytes sent since last PSH flag: 1" size="0" pos="54" show="1"/>
    </field>
    <field name="" show="Timestamps" size="0" pos="54">
      <field name="tcp.time_relative" showname="Time since first frame in this TCP stream: 0.259489000 seconds" size="0" pos="54" show="0.259489000"/>
      <field name="tcp.time_delta" showname="Time since previous frame in this TCP stream: 0.259399000 seconds" size="0" pos="54" show="0.259399000"/>
    </field>
    <field name="tcp.payload" showname="TCP payload (1 byte)" size="1" pos="74" show="0a" value="0a"/>
  </proto>
  <proto name="fake-field-wrapper">
    <field name="data" value="0a">
      <field name="filtered" value="data" />
  </field>
  </proto>
</packet>


<packet>
  <proto name="geninfo" pos="0" showname="General information" size="74">
    <field name="num" pos="0" show="5" showname="Number" value="5" size="74"/>
    <field name="len" pos="0" show="74" showname="Frame Length" value="4a" size="74"/>
    <field name="caplen" pos="0" show="74" showname="Captured Length" value="4a" size="74"/>
    <field name="timestamp" pos="0" show="Oct 25, 2018 17:27:09.876980000 CEST" showname="Captured Time" value="1540481229.876980000" size="74"/>
  </proto>
  <proto name="frame" showname="Frame 5: 74 bytes on wire (592 bits), 74 bytes captured (592 bits)" size="74" pos="0">
    <field name="filtered" value="frame" />
  </proto>
  <proto name="eth" showname="Ethernet II, Src: 36:66:93:b9:6c:1a, Dst: 26:71:ff:fe:ec:1d" size="14" pos="0">
    <field name="filtered" value="eth" />
  </proto>
  <proto name="ipv6" showname="Internet Protocol Version 6, Src: 2001:7ab:3::c, Dst: 2001:7ab:1::a" size="40" pos="14">
    <field name="filtered" value="ipv6" />
  </proto>
  <proto name="tcp" showname="Transmission Control Protocol, Src Port: 1234, Dst Port: 53716, Seq: 1, Ack: 2, Len: 0" size="20" pos="54">
    <field name="tcp.srcport" showname="Source Port: 1234" size="2" pos="54" show="1234" value="04d2"/>
    <field name="tcp.dstport" showname="Destination Port: 53716" size="2" pos="56" show="53716" value="d1d4"/>
    <field name="tcp.port" showname="Source or Destination Port: 1234" hide="yes" size="2" pos="54" show="1234" value="04d2"/>
    <field name="tcp.port" showname="Source or Destination Port: 53716" hide="yes" size="2" pos="56" show="53716" value="d1d4"/>
    <field name="tcp.stream" showname="Stream index: 0" size="0" pos="54" show="0"/>
    <field name="tcp.len" showname="TCP Segment Len: 0" size="1" pos="66" show="0" value="50"/>
    <field name="tcp.seq" showname="Sequence number: 1    (relative sequence number)" size="4" pos="58" show="1" value="8253f649"/>
    <field name="tcp.nxtseq" showname="Next sequence number: 1    (relative sequence number)" size="0" pos="54" show="1"/>
    <field name="tcp.ack" showname="Acknowledgment number: 2    (relative ack number)" size="4" pos="62" show="2" value="cb01e4fa"/>
    <field name="tcp.hdr_len" showname="0101 .... = Header Length: 20 bytes (5)" size="1" pos="66" show="20" value="50"/>
    <field name="tcp.flags" showname="Flags" size="2" pos="66" show="0x00000010" value="10" unmaskedvalue="5010">
      <field name="tcp.flags.res" showname="000. .... .... = Reserved: Not set" size="1" pos="66" show="0" value="0" unmaskedvalue="50"/>
      <field name="tcp.flags.ns" showname="...0 .... .... = Nonce: Not set" size="1" pos="66" show="0" value="0" unmaskedvalue="50"/>
      <field name="tcp.flags.cwr" showname=".... 0... .... = Congestion Window Reduced (CWR): Not set" size="1" pos="67" show="0" value="0" unmaskedvalue="10"/>
      <field name="tcp.flags.ecn" showname=".... .0.. .... = ECN-Echo: Not set" size="1" pos="67" show="0" value="0" unmaskedvalue="10"/>
      <field name="tcp.flags.urg" showname=".... ..0. .... = Urgent: Not set" size="1" pos="67" show="0" value="0" unmaskedvalue="10"/>
      <field name="tcp.flags.ack" showname=".... ...1 .... = Acknowledgment: Set" size="1" pos="67" show="1" value="1" unmaskedvalue="10"/>
      <field name="tcp.flags.push" showname=".... .... 0... = Push: Not set" size="1" pos="67" show="0" value="0" unmaskedvalue="10"/>
      <field name="tcp.flags.reset" showname=".... .... .0.. = Reset: Not set" size="1" pos="67" show="0" value="0" unmaskedvalue="10"/>
      <field name="tcp.flags.syn" showname=".... .... ..0. = Syn: Not set" size="1" pos="67" show="0" value="0" unmaskedvalue="10"/>
      <field name="tcp.flags.fin" showname=".... .... ...0 = Fin: Not set" size="1" pos="67" show="0" value="0" unmaskedvalue="10"/>
      <field name="tcp.flags.str" showname="TCP Flags: \xc2\xb7\xc2\xb7\xc2\xb7\xc2\xb7\xc2\xb7\xc2\xb7\xc2\xb7A\xc2\xb7\xc2\xb7\xc2\xb7\xc2\xb7" size="2" pos="66" show="\xc2\xb7\xc2\xb7\xc2\xb7\xc2\xb7\xc2\xb7\xc2\xb7\xc2\xb7A\xc2\xb7\xc2\xb7\xc2\xb7\xc2\xb7" value="5010"/>
    </field>
    <field name="tcp.window_size_value" showname="Window size value: 28800" size="2" pos="68" show="28800" value="7080"/>
    <field name="tcp.window_size" showname="Calculated window size: 28800" size="2" pos="68" show="28800" value="7080"/>
    <field name="tcp.window_size_scalefactor" showname="Window size scaling factor: -2 (no window scaling used)" size="2" pos="68" show="-2" value="7080"/>
    <field name="tcp.checksum" showname="Checksum: 0x4f8c [unverified]" size="2" pos="70" show="0x00004f8c" value="4f8c"/>
    <field name="tcp.checksum.status" showname="Checksum Status: Unverified" size="0" pos="70" show="2"/>
    <field name="tcp.urgent_pointer" showname="Urgent pointer: 0" size="2" pos="72" show="0" value="0000"/>
    <field name="tcp.analysis" showname="SEQ/ACK analysis" size="0" pos="54" show="" value="">
      <field name="tcp.analysis.acks_frame" showname="This is an ACK to the segment in frame: 4" size="0" pos="54" show="4"/>
      <field name="tcp.analysis.ack_rtt" showname="The RTT to ACK the segment was: 0.000024000 seconds" size="0" pos="54" show="0.000024000"/>
      <field name="tcp.analysis.initial_rtt" showname="iRTT: 0.000090000 seconds" size="0" pos="54" show="0.000090000"/>
    </field>
    <field name="" show="Timestamps" size="0" pos="54">
      <field name="tcp.time_relative" showname="Time since first frame in this TCP stream: 0.259513000 seconds" size="0" pos="54" show="0.259513000"/>
      <field name="tcp.time_delta" showname="Time since previous frame in this TCP stream: 0.000024000 seconds" size="0" pos="54" show="0.000024000"/>
    </field>
  </proto>
</packet>


<packet>
  <proto name="geninfo" pos="0" showname="General information" size="74">
    <field name="num" pos="0" show="6" showname="Number" value="6" size="74"/>
    <field name="len" pos="0" show="74" showname="Frame Length" value="4a" size="74"/>
    <field name="caplen" pos="0" show="74" showname="Captured Length" value="4a" size="74"/>
    <field name="timestamp" pos="0" show="Oct 25, 2018 17:27:10.213248000 CEST" showname="Captured Time" value="1540481230.213248000" size="74"/>
  </proto>
  <proto name="frame" showname="Frame 6: 74 bytes on wire (592 bits), 74 bytes captured (592 bits)" size="74" pos="0">
    <field name="filtered" value="frame" />
  </proto>
  <proto name="eth" showname="Ethernet II, Src: 26:71:ff:fe:ec:1d, Dst: 36:66:93:b9:6c:1a" size="14" pos="0">
    <field name="filtered" value="eth" />
  </proto>
  <proto name="ipv6" showname="Internet Protocol Version 6, Src: 2001:7ab:1::a, Dst: 2001:7ab:3::c" size="40" pos="14">
    <field name="filtered" value="ipv6" />
  </proto>
  <proto name="tcp" showname="Transmission Control Protocol, Src Port: 53716, Dst Port: 1234, Seq: 2, Ack: 1, Len: 0" size="20" pos="54">
    <field name="tcp.srcport" showname="Source Port: 53716" size="2" pos="54" show="53716" value="d1d4"/>
    <field name="tcp.dstport" showname="Destination Port: 1234" size="2" pos="56" show="1234" value="04d2"/>
    <field name="tcp.port" showname="Source or Destination Port: 53716" hide="yes" size="2" pos="54" show="53716" value="d1d4"/>
    <field name="tcp.port" showname="Source or Destination Port: 1234" hide="yes" size="2" pos="56" show="1234" value="04d2"/>
    <field name="tcp.stream" showname="Stream index: 0" size="0" pos="54" show="0"/>
    <field name="tcp.len" showname="TCP Segment Len: 0" size="1" pos="66" show="0" value="50"/>
    <field name="tcp.seq" showname="Sequence number: 2    (relative sequence number)" size="4" pos="58" show="2" value="cb01e4fa"/>
    <field name="tcp.nxtseq" showname="Next sequence number: 2    (relative sequence number)" size="0" pos="54" show="2"/>
    <field name="tcp.ack" showname="Acknowledgment number: 1    (relative ack number)" size="4" pos="62" show="1" value="8253f649"/>
    <field name="tcp.hdr_len" showname="0101 .... = Header Length: 20 bytes (5)" size="1" pos="66" show="20" value="50"/>
    <field name="tcp.flags" showname="Flags" size="2" pos="66" show="0x00000011" value="11" unmaskedvalue="5011">
      <field name="tcp.flags.res" showname="000. .... .... = Reserved: Not set" size="1" pos="66" show="0" value="0" unmaskedvalue="50"/>
      <field name="tcp.flags.ns" showname="...0 .... .... = Nonce: Not set" size="1" pos="66" show="0" value="0" unmaskedvalue="50"/>
      <field name="tcp.flags.cwr" showname=".... 0... .... = Congestion Window Reduced (CWR): Not set" size="1" pos="67" show="0" value="0" unmaskedvalue="11"/>
      <field name="tcp.flags.ecn" showname=".... .0.. .... = ECN-Echo: Not set" size="1" pos="67" show="0" value="0" unmaskedvalue="11"/>
      <field name="tcp.flags.urg" showname=".... ..0. .... = Urgent: Not set" size="1" pos="67" show="0" value="0" unmaskedvalue="11"/>
      <field name="tcp.flags.ack" showname=".... ...1 .... = Acknowledgment: Set" size="1" pos="67" show="1" value="1" unmaskedvalue="11"/>
      <field name="tcp.flags.push" showname=".... .... 0... = Push: Not set" size="1" pos="67" show="0" value="0" unmaskedvalue="11"/>
      <field name="tcp.flags.reset" showname=".... .... .0.. = Reset: Not set" size="1" pos="67" show="0" value="0" unmaskedvalue="11"/>
      <field name="tcp.flags.syn" showname=".... .... ..0. = Syn: Not set" size="1" pos="67" show="0" value="0" unmaskedvalue="11"/>
      <field name="tcp.flags.fin" showname=".... .... ...1 = Fin: Set" size="1" pos="67" show="1" value="1" unmaskedvalue="11">
        <field name="_ws.expert" showname="Expert Info (Chat/Sequence): Connection finish (FIN)" size="0" pos="67">
          <field name="tcp.connection.fin" showname="Connection finish (FIN)" size="0" pos="0" show="" value=""/>
          <field name="_ws.expert.message" showname="Message: Connection finish (FIN)" hide="yes" size="0" pos="0" show="Connection finish (FIN)"/>
          <field name="_ws.expert.severity" showname="Severity level: Chat" size="0" pos="0" show="2097152"/>
          <field name="_ws.expert.group" showname="Group: Sequence" size="0" pos="0" show="33554432"/>
        </field>
      </field>
      <field name="tcp.flags.str" showname="TCP Flags: \xc2\xb7\xc2\xb7\xc2\xb7\xc2\xb7\xc2\xb7\xc2\xb7\xc2\xb7A\xc2\xb7\xc2\xb7\xc2\xb7F" size="2" pos="66" show="\xc2\xb7\xc2\xb7\xc2\xb7\xc2\xb7\xc2\xb7\xc2\xb7\xc2\xb7A\xc2\xb7\xc2\xb7\xc2\xb7F" value="5011"/>
    </field>
    <field name="tcp.window_size_value" showname="Window size value: 28800" size="2" pos="68" show="28800" value="7080"/>
    <field name="tcp.window_size" showname="Calculated window size: 28800" size="2" pos="68" show="28800" value="7080"/>
    <field name="tcp.window_size_scalefactor" showname="Window size scaling factor: -2 (no window scaling used)" size="2" pos="68" show="-2" value="7080"/>
    <field name="tcp.checksum" showname="Checksum: 0x4f8c [unverified]" size="2" pos="70" show="0x00004f8c" value="4f8c"/>
    <field name="tcp.checksum.status" showname="Checksum Status: Unverified" size="0" pos="70" show="2"/>
    <field name="tcp.urgent_pointer" showname="Urgent pointer: 0" size="2" pos="72" show="0" value="0000"/>
    <field name="" show="Timestamps" size="0" pos="54">
      <field name="tcp.time_relative" showname="Time since first frame in this TCP stream: 0.595781000 seconds" size="0" pos="54" show="0.595781000"/>
      <field name="tcp.time_delta" showname="Time since previous frame in this TCP stream: 0.336268000 seconds" size="0" pos="54" show="0.336268000"/>
    </field>
  </proto>
</packet>


<packet>
  <proto name="geninfo" pos="0" showname="General information" size="74">
    <field name="num" pos="0" show="7" showname="Number" value="7" size="74"/>
    <field name="len" pos="0" show="74" showname="Frame Length" value="4a" size="74"/>
    <field name="caplen" pos="0" show="74" showname="Captured Length" value="4a" size="74"/>
    <field name="timestamp" pos="0" show="Oct 25, 2018 17:27:10.213366000 CEST" showname="Captured Time" value="1540481230.213366000" size="74"/>
  </proto>
  <proto name="frame" showname="Frame 7: 74 bytes on wire (592 bits), 74 bytes captured (592 bits)" size="74" pos="0">
    <field name="filtered" value="frame" />
  </proto>
  <proto name="eth" showname="Ethernet II, Src: 36:66:93:b9:6c:1a, Dst: 26:71:ff:fe:ec:1d" size="14" pos="0">
    <field name="filtered" value="eth" />
  </proto>
  <proto name="ipv6" showname="Internet Protocol Version 6, Src: 2001:7ab:3::c, Dst: 2001:7ab:1::a" size="40" pos="14">
    <field name="filtered" value="ipv6" />
  </proto>
  <proto name="tcp" showname="Transmission Control Protocol, Src Port: 1234, Dst Port: 53716, Seq: 1, Ack: 3, Len: 0" size="20" pos="54">
    <field name="tcp.srcport" showname="Source Port: 1234" size="2" pos="54" show="1234" value="04d2"/>
    <field name="tcp.dstport" showname="Destination Port: 53716" size="2" pos="56" show="53716" value="d1d4"/>
    <field name="tcp.port" showname="Source or Destination Port: 1234" hide="yes" size="2" pos="54" show="1234" value="04d2"/>
    <field name="tcp.port" showname="Source or Destination Port: 53716" hide="yes" size="2" pos="56" show="53716" value="d1d4"/>
    <field name="tcp.stream" showname="Stream index: 0" size="0" pos="54" show="0"/>
    <field name="tcp.len" showname="TCP Segment Len: 0" size="1" pos="66" show="0" value="50"/>
    <field name="tcp.seq" showname="Sequence number: 1    (relative sequence number)" size="4" pos="58" show="1" value="8253f649"/>
    <field name="tcp.nxtseq" showname="Next sequence number: 1    (relative sequence number)" size="0" pos="54" show="1"/>
    <field name="tcp.ack" showname="Acknowledgment number: 3    (relative ack number)" size="4" pos="62" show="3" value="cb01e4fb"/>
    <field name="tcp.hdr_len" showname="0101 .... = Header Length: 20 bytes (5)" size="1" pos="66" show="20" value="50"/>
    <field name="tcp.flags" showname="Flags" size="2" pos="66" show="0x00000011" value="11" unmaskedvalue="5011">
      <field name="tcp.flags.res" showname="000. .... .... = Reserved: Not set" size="1" pos="66" show="0" value="0" unmaskedvalue="50"/>
      <field name="tcp.flags.ns" showname="...0 .... .... = Nonce: Not set" size="1" pos="66" show="0" value="0" unmaskedvalue="50"/>
      <field name="tcp.flags.cwr" showname=".... 0... .... = Congestion Window Reduced (CWR): Not set" size="1" pos="67" show="0" value="0" unmaskedvalue="11"/>
      <field name="tcp.flags.ecn" showname=".... .0.. .... = ECN-Echo: Not set" size="1" pos="67" show="0" value="0" unmaskedvalue="11"/>
      <field name="tcp.flags.urg" showname=".... ..0. .... = Urgent: Not set" size="1" pos="67" show="0" value="0" unmaskedvalue="11"/>
      <field name="tcp.flags.ack" showname=".... ...1 .... = Acknowledgment: Set" size="1" pos="67" show="1" value="1" unmaskedvalue="11"/>
      <field name="tcp.flags.push" showname=".... .... 0... = Push: Not set" size="1" pos="67" show="0" value="0" unmaskedvalue="11"/>
      <field name="tcp.flags.reset" showname=".... .... .0.. = Reset: Not set" size="1" pos="67" show="0" value="0" unmaskedvalue="11"/>
      <field name="tcp.flags.syn" showname=".... .... ..0. = Syn: Not set" size="1" pos="67" show="0" value="0" unmaskedvalue="11"/>
      <field name="tcp.flags.fin" showname=".... .... ...1 = Fin: Set" size="1" pos="67" show="1" value="1" unmaskedvalue="11">
        <field name="_ws.expert" showname="Expert Info (Chat/Sequence): Connection finish (FIN)" size="0" pos="67">
          <field name="tcp.connection.fin" showname="Connection finish (FIN)" size="0" pos="0" show="" value=""/>
          <field name="_ws.expert.message" showname="Message: Connection finish (FIN)" hide="yes" size="0" pos="0" show="Connection finish (FIN)"/>
          <field name="_ws.expert.severity" showname="Severity level: Chat" size="0" pos="0" show="2097152"/>
          <field name="_ws.expert.group" showname="Group: Sequence" size="0" pos="0" show="33554432"/>
        </field>
      </field>
      <field name="tcp.flags.str" showname="TCP Flags: \xc2\xb7\xc2\xb7\xc2\xb7\xc2\xb7\xc2\xb7\xc2\xb7\xc2\xb7A\xc2\xb7\xc2\xb7\xc2\xb7F" size="2" pos="66" show="\xc2\xb7\xc2\xb7\xc2\xb7\xc2\xb7\xc2\xb7\xc2\xb7\xc2\xb7A\xc2\xb7\xc2\xb7\xc2\xb7F" value="5011"/>
    </field>
    <field name="tcp.window_size_value" showname="Window size value: 28800" size="2" pos="68" show="28800" value="7080"/>
    <field name="tcp.window_size" showname="Calculated window size: 28800" size="2" pos="68" show="28800" value="7080"/>
    <field name="tcp.window_size_scalefactor" showname="Window size scaling factor: -2 (no window scaling used)" size="2" pos="68" show="-2" value="7080"/>
    <field name="tcp.checksum" showname="Checksum: 0x4f8c [unverified]" size="2" pos="70" show="0x00004f8c" value="4f8c"/>
    <field name="tcp.checksum.status" showname="Checksum Status: Unverified" size="0" pos="70" show="2"/>
    <field name="tcp.urgent_pointer" showname="Urgent pointer: 0" size="2" pos="72" show="0" value="0000"/>
    <field name="tcp.analysis" showname="SEQ/ACK analysis" size="0" pos="54" show="" value="">
      <field name="tcp.analysis.acks_frame" showname="This is an ACK to the segment in frame: 6" size="0" pos="54" show="6"/>
      <field name="tcp.analysis.ack_rtt" showname="The RTT to ACK the segment was: 0.000118000 seconds" size="0" pos="54" show="0.000118000"/>
      <field name="tcp.analysis.initial_rtt" showname="iRTT: 0.000090000 seconds" size="0" pos="54" show="0.000090000"/>
    </field>
    <field name="" show="Timestamps" size="0" pos="54">
      <field name="tcp.time_relative" showname="Time since first frame in this TCP stream: 0.595899000 seconds" size="0" pos="54" show="0.595899000"/>
      <field name="tcp.time_delta" showname="Time since previous frame in this TCP stream: 0.000118000 seconds" size="0" pos="54" show="0.000118000"/>
    </field>
  </proto>
</packet>


<packet>
  <proto name="geninfo" pos="0" showname="General information" size="74">
    <field name="num" pos="0" show="8" showname="Number" value="8" size="74"/>
    <field name="len" pos="0" show="74" showname="Frame Length" value="4a" size="74"/>
    <field name="caplen" pos="0" show="74" showname="Captured Length" value="4a" size="74"/>
    <field name="timestamp" pos="0" show="Oct 25, 2018 17:27:10.213415000 CEST" showname="Captured Time" value="1540481230.213415000" size="74"/>
  </proto>
  <proto name="frame" showname="Frame 8: 74 bytes on wire (592 bits), 74 bytes captured (592 bits)" size="74" pos="0">
    <field name="filtered" value="frame" />
  </proto>
  <proto name="eth" showname="Ethernet II, Src: 26:71:ff:fe:ec:1d, Dst: 36:66:93:b9:6c:1a" size="14" pos="0">
    <field name="filtered" value="eth" />
  </proto>
  <proto name="ipv6" showname="Internet Protocol Version 6, Src: 2001:7ab:1::a, Dst: 2001:7ab:3::c" size="40" pos="14">
    <field name="filtered" value="ipv6" />
  </proto>
  <proto name="tcp" showname="Transmission Control Protocol, Src Port: 53716, Dst Port: 1234, Seq: 3, Ack: 2, Len: 0" size="20" pos="54">
    <field name="tcp.srcport" showname="Source Port: 53716" size="2" pos="54" show="53716" value="d1d4"/>
    <field name="tcp.dstport" showname="Destination Port: 1234" size="2" pos="56" show="1234" value="04d2"/>
    <field name="tcp.port" showname="Source or Destination Port: 53716" hide="yes" size="2" pos="54" show="53716" value="d1d4"/>
    <field name="tcp.port" showname="Source or Destination Port: 1234" hide="yes" size="2" pos="56" show="1234" value="04d2"/>
    <field name="tcp.stream" showname="Stream index: 0" size="0" pos="54" show="0"/>
    <field name="tcp.len" showname="TCP Segment Len: 0" size="1" pos="66" show="0" value="50"/>
    <field name="tcp.seq" showname="Sequence number: 3    (relative sequence number)" size="4" pos="58" show="3" value="cb01e4fb"/>
    <field name="tcp.nxtseq" showname="Next sequence number: 3    (relative sequence number)" size="0" pos="54" show="3"/>
    <field name="tcp.ack" showname="Acknowledgment number: 2    (relative ack number)" size="4" pos="62" show="2" value="8253f64a"/>
    <field name="tcp.hdr_len" showname="0101 .... = Header Length: 20 bytes (5)" size="1" pos="66" show="20" value="50"/>
    <field name="tcp.flags" showname="Flags" size="2" pos="66" show="0x00000010" value="10" unmaskedvalue="5010">
      <field name="tcp.flags.res" showname="000. .... .... = Reserved: Not set" size="1" pos="66" show="0" value="0" unmaskedvalue="50"/>
      <field name="tcp.flags.ns" showname="...0 .... .... = Nonce: Not set" size="1" pos="66" show="0" value="0" unmaskedvalue="50"/>
      <field name="tcp.flags.cwr" showname=".... 0... .... = Congestion Window Reduced (CWR): Not set" size="1" pos="67" show="0" value="0" unmaskedvalue="10"/>
      <field name="tcp.flags.ecn" showname=".... .0.. .... = ECN-Echo: Not set" size="1" pos="67" show="0" value="0" unmaskedvalue="10"/>
      <field name="tcp.flags.urg" showname=".... ..0. .... = Urgent: Not set" size="1" pos="67" show="0" value="0" unmaskedvalue="10"/>
      <field name="tcp.flags.ack" showname=".... ...1 .... = Acknowledgment: Set" size="1" pos="67" show="1" value="1" unmaskedvalue="10"/>
      <field name="tcp.flags.push" showname=".... .... 0... = Push: Not set" size="1" pos="67" show="0" value="0" unmaskedvalue="10"/>
      <field name="tcp.flags.reset" showname=".... .... .0.. = Reset: Not set" size="1" pos="67" show="0" value="0" unmaskedvalue="10"/>
      <field name="tcp.flags.syn" showname=".... .... ..0. = Syn: Not set" size="1" pos="67" show="0" value="0" unmaskedvalue="10"/>
      <field name="tcp.flags.fin" showname=".... .... ...0 = Fin: Not set" size="1" pos="67" show="0" value="0" unmaskedvalue="10"/>
      <field name="tcp.flags.str" showname="TCP Flags: \xc2\xb7\xc2\xb7\xc2\xb7\xc2\xb7\xc2\xb7\xc2\xb7\xc2\xb7A\xc2\xb7\xc2\xb7\xc2\xb7\xc2\xb7" size="2" pos="66" show="\xc2\xb7\xc2\xb7\xc2\xb7\xc2\xb7\xc2\xb7\xc2\xb7\xc2\xb7A\xc2\xb7\xc2\xb7\xc2\xb7\xc2\xb7" value="5010"/>
    </field>
    <field name="tcp.window_size_value" showname="Window size value: 28800" size="2" pos="68" show="28800" value="7080"/>
    <field name="tcp.window_size" showname="Calculated window size: 28800" size="2" pos="68" show="28800" value="7080"/>
    <field name="tcp.window_size_scalefactor" showname="Window size scaling factor: -2 (no window scaling used)" size="2" pos="68" show="-2" value="7080"/>
    <field name="tcp.checksum" showname="Checksum: 0x4f8c [unverified]" size="2" pos="70" show="0x00004f8c" value="4f8c"/>
    <field name="tcp.checksum.status" showname="Checksum Status: Unverified" size="0" pos="70" show="2"/>
    <field name="tcp.urgent_pointer" showname="Urgent pointer: 0" size="2" pos="72" show="0" value="0000"/>
    <field name="tcp.analysis" showname="SEQ/ACK analysis" size="0" pos="54" show="" value="">
      <field name="tcp.analysis.acks_frame" showname="This is an ACK to the segment in frame: 7" size="0" pos="54" show="7"/>
      <field name="tcp.analysis.ack_rtt" showname="The RTT to ACK the segment was: 0.000049000 seconds" size="0" pos="54" show="0.000049000"/>
      <field name="tcp.analysis.initial_rtt" showname="iRTT: 0.000090000 seconds" size="0" pos="54" show="0.000090000"/>
    </field>
    <field name="" show="Timestamps" size="0" pos="54">
      <field name="tcp.time_relative" showname="Time since first frame in this TCP stream: 0.595948000 seconds" size="0" pos="54" show="0.595948000"/>
      <field name="tcp.time_delta" showname="Time since previous frame in this TCP stream: 0.000049000 seconds" size="0" pos="54" show="0.000049000"/>
    </field>
  </proto>
</packet>


</pdml>
